
software.elf:     file format elf32-littlenios2
software.elf
architecture: nios2, flags 0x00000112:
EXEC_P, HAS_SYMS, D_PAGED
start address 0x00800184

Program Header:
    LOAD off    0x00001000 vaddr 0x00800000 paddr 0x00800000 align 2**12
         filesz 0x00000020 memsz 0x00000020 flags r-x
    LOAD off    0x00001020 vaddr 0x00800020 paddr 0x00800020 align 2**12
         filesz 0x00009b7c memsz 0x00009b7c flags r-x
    LOAD off    0x0000ab9c vaddr 0x00809b9c paddr 0x0080a5b0 align 2**12
         filesz 0x00000a14 memsz 0x00000a14 flags rw-
    LOAD off    0x0000bfc4 vaddr 0x0080afc4 paddr 0x0080afc4 align 2**12
         filesz 0x00000000 memsz 0x00000150 flags rw-

Sections:
Idx Name          Size      VMA       LMA       File off  Algn
  0 .entry        00000020  00800000  00800000  00001000  2**5
                  CONTENTS, ALLOC, LOAD, READONLY, CODE
  1 .exceptions   00000164  00800020  00800020  00001020  2**2
                  CONTENTS, ALLOC, LOAD, READONLY, CODE
  2 .text         00009758  00800184  00800184  00001184  2**2
                  CONTENTS, ALLOC, LOAD, READONLY, CODE
  3 .rodata       000002c0  008098dc  008098dc  0000a8dc  2**2
                  CONTENTS, ALLOC, LOAD, READONLY, DATA
  4 .rwdata       00000a14  00809b9c  0080a5b0  0000ab9c  2**2
                  CONTENTS, ALLOC, LOAD, DATA, SMALL_DATA
  5 .bss          00000150  0080afc4  0080afc4  0000bfc4  2**2
                  ALLOC, SMALL_DATA
  6 .comment      00000023  00000000  00000000  0000b5b0  2**0
                  CONTENTS, READONLY
  7 .debug_aranges 00000810  00000000  00000000  0000b5d8  2**3
                  CONTENTS, READONLY, DEBUGGING
  8 .debug_pubnames 00000ba0  00000000  00000000  0000bde8  2**0
                  CONTENTS, READONLY, DEBUGGING
  9 .debug_info   00018a43  00000000  00000000  0000c988  2**0
                  CONTENTS, READONLY, DEBUGGING
 10 .debug_abbrev 00005c1a  00000000  00000000  000253cb  2**0
                  CONTENTS, READONLY, DEBUGGING
 11 .debug_line   0000cd0b  00000000  00000000  0002afe5  2**0
                  CONTENTS, READONLY, DEBUGGING
 12 .debug_frame  00000fe0  00000000  00000000  00037cf0  2**2
                  CONTENTS, READONLY, DEBUGGING
 13 .debug_str    00001aae  00000000  00000000  00038cd0  2**0
                  CONTENTS, READONLY, DEBUGGING
 14 .debug_loc    00009030  00000000  00000000  0003a77e  2**0
                  CONTENTS, READONLY, DEBUGGING
 15 .debug_alt_sim_info 00000020  00000000  00000000  000437b0  2**2
                  CONTENTS, READONLY, DEBUGGING
 16 .debug_ranges 00000618  00000000  00000000  000437d0  2**3
                  CONTENTS, READONLY, DEBUGGING
 17 .thread_model 00000003  00000000  00000000  000468f2  2**0
                  CONTENTS, READONLY
 18 .cpu          00000003  00000000  00000000  000468f5  2**0
                  CONTENTS, READONLY
 19 .qsys         00000001  00000000  00000000  000468f8  2**0
                  CONTENTS, READONLY
 20 .simulation_enabled 00000001  00000000  00000000  000468f9  2**0
                  CONTENTS, READONLY
 21 .sysid_hash   00000004  00000000  00000000  000468fa  2**0
                  CONTENTS, READONLY
 22 .sysid_base   00000004  00000000  00000000  000468fe  2**0
                  CONTENTS, READONLY
 23 .sysid_time   00000004  00000000  00000000  00046902  2**0
                  CONTENTS, READONLY
 24 .stderr_dev   00000009  00000000  00000000  00046906  2**0
                  CONTENTS, READONLY
 25 .stdin_dev    00000009  00000000  00000000  0004690f  2**0
                  CONTENTS, READONLY
 26 .stdout_dev   00000009  00000000  00000000  00046918  2**0
                  CONTENTS, READONLY
 27 .sopc_system_name 00000012  00000000  00000000  00046921  2**0
                  CONTENTS, READONLY
 28 .quartus_project_dir 00000014  00000000  00000000  00046933  2**0
                  CONTENTS, READONLY
 29 .jdi          00005134  00000000  00000000  00046947  2**0
                  CONTENTS, READONLY
 30 .sopcinfo     0003347d  00000000  00000000  0004ba7b  2**0
                  CONTENTS, READONLY
SYMBOL TABLE:
00800000 l    d  .entry	00000000 .entry
00800020 l    d  .exceptions	00000000 .exceptions
00800184 l    d  .text	00000000 .text
008098dc l    d  .rodata	00000000 .rodata
00809b9c l    d  .rwdata	00000000 .rwdata
0080afc4 l    d  .bss	00000000 .bss
00000000 l    d  .comment	00000000 .comment
00000000 l    d  .debug_aranges	00000000 .debug_aranges
00000000 l    d  .debug_pubnames	00000000 .debug_pubnames
00000000 l    d  .debug_info	00000000 .debug_info
00000000 l    d  .debug_abbrev	00000000 .debug_abbrev
00000000 l    d  .debug_line	00000000 .debug_line
00000000 l    d  .debug_frame	00000000 .debug_frame
00000000 l    d  .debug_str	00000000 .debug_str
00000000 l    d  .debug_loc	00000000 .debug_loc
00000000 l    d  .debug_alt_sim_info	00000000 .debug_alt_sim_info
00000000 l    d  .debug_ranges	00000000 .debug_ranges
008001bc l       .text	00000000 alt_after_alt_main
00000000 l    df *ABS*	00000000 alt_irq_handler.c
00000000 l    df *ABS*	00000000 hello_world.c
00000000 l    df *ABS*	00000000 fp-bit.c
0080066c l     F .text	000001e4 _fpadd_parts
00000000 l    df *ABS*	00000000 fp-bit.c
00000000 l    df *ABS*	00000000 fp-bit.c
00000000 l    df *ABS*	00000000 fp-bit.c
00000000 l    df *ABS*	00000000 fp-bit.c
00000000 l    df *ABS*	00000000 dp-bit.c
00800b84 l     F .text	00000410 _fpadd_parts
00000000 l    df *ABS*	00000000 dp-bit.c
00000000 l    df *ABS*	00000000 dp-bit.c
00000000 l    df *ABS*	00000000 dp-bit.c
00000000 l    df *ABS*	00000000 dp-bit.c
00000000 l    df *ABS*	00000000 libgcc2.c
00000000 l    df *ABS*	00000000 fp-bit.c
00000000 l    df *ABS*	00000000 fp-bit.c
00000000 l    df *ABS*	00000000 dp-bit.c
00000000 l    df *ABS*	00000000 dp-bit.c
00000000 l    df *ABS*	00000000 libgcc2.c
00000000 l    df *ABS*	00000000 efgcvt.c
00000000 l    df *ABS*	00000000 impure.c
00809b9c l     O .rwdata	00000400 impure_data
00000000 l    df *ABS*	00000000 malloc.c
00000000 l    df *ABS*	00000000 mallocr.c
00000000 l    df *ABS*	00000000 memcpy.c
00000000 l    df *ABS*	00000000 rand.c
00000000 l    df *ABS*	00000000 sbrkr.c
00000000 l    df *ABS*	00000000 ecvtbuf.c
008026a8 l     F .text	000001f0 print_e
00000000 l    df *ABS*	00000000 mallocr.c
00000000 l    df *ABS*	00000000 int_errno.c
00000000 l    df *ABS*	00000000 mprec.c
00809b60 l     O .rodata	0000000c p05.2458
00000000 l    df *ABS*	00000000 mallocr.c
00000000 l    df *ABS*	00000000 strcpy.c
00000000 l    df *ABS*	00000000 mallocr.c
00000000 l    df *ABS*	00000000 dtoa.c
00804cc8 l     F .text	00000218 quorem
00000000 l    df *ABS*	00000000 memmove.c
00000000 l    df *ABS*	00000000 memset.c
00000000 l    df *ABS*	00000000 libgcc2.c
00000000 l    df *ABS*	00000000 dp-bit.c
00000000 l    df *ABS*	00000000 dp-bit.c
00000000 l    df *ABS*	00000000 dp-bit.c
00000000 l    df *ABS*	00000000 dp-bit.c
00000000 l    df *ABS*	00000000 dp-bit.c
00000000 l    df *ABS*	00000000 dp-bit.c
00000000 l    df *ABS*	00000000 dp-bit.c
00000000 l    df *ABS*	00000000 dp-bit.c
00000000 l    df *ABS*	00000000 dp-bit.c
00000000 l    df *ABS*	00000000 lib2-divmod.c
00806f68 l     F .text	0000007c udivmodsi4
00000000 l    df *ABS*	00000000 dp-bit.c
00000000 l    df *ABS*	00000000 alt_load.c
00000000 l    df *ABS*	00000000 alt_main.c
00000000 l    df *ABS*	00000000 alt_malloc_lock.c
00000000 l    df *ABS*	00000000 alt_putstr.c
00000000 l    df *ABS*	00000000 alt_sbrk.c
0080a588 l     O .rwdata	00000004 heap_end
00000000 l    df *ABS*	00000000 alt_tick.c
00000000 l    df *ABS*	00000000 alt_times.c
00000000 l    df *ABS*	00000000 alt_sys_init.c
0080a3a4 l     O .rwdata	0000002c jtag_uart
00000000 l    df *ABS*	00000000 altera_avalon_jtag_uart_fd.c
00000000 l    df *ABS*	00000000 altera_avalon_jtag_uart_read.c
00000000 l    df *ABS*	00000000 altera_avalon_jtag_uart_write.c
00000000 l    df *ABS*	00000000 altera_avalon_timer_sc.c
00807620 l     F .text	0000003c alt_avalon_timer_sc_irq
00000000 l    df *ABS*	00000000 alt_close.c
00000000 l    df *ABS*	00000000 alt_dcache_flush_all.c
00000000 l    df *ABS*	00000000 alt_dev.c
00807750 l     F .text	00000008 alt_dev_null_write
00000000 l    df *ABS*	00000000 alt_dev_llist_insert.c
00000000 l    df *ABS*	00000000 alt_errno.c
00000000 l    df *ABS*	00000000 alt_icache_flush_all.c
00000000 l    df *ABS*	00000000 alt_iic.c
00000000 l    df *ABS*	00000000 alt_iic_isr_register.c
00000000 l    df *ABS*	00000000 alt_io_redirect.c
00000000 l    df *ABS*	00000000 alt_irq_vars.c
00000000 l    df *ABS*	00000000 alt_open.c
00000000 l    df *ABS*	00000000 alt_release_fd.c
00000000 l    df *ABS*	00000000 altera_nios2_qsys_irq.c
00000000 l    df *ABS*	00000000 alt_find_dev.c
00000000 l    df *ABS*	00000000 alt_find_file.c
00000000 l    df *ABS*	00000000 alt_get_fd.c
00000000 l    df *ABS*	00000000 alt_icache_flush.c
00000000 l    df *ABS*	00000000 exit.c
00000000 l    df *ABS*	00000000 fputs.c
00000000 l    df *ABS*	00000000 fvwrite.c
00000000 l    df *ABS*	00000000 memchr.c
00000000 l    df *ABS*	00000000 memcmp.c
00000000 l    df *ABS*	00000000 strlen.c
00000000 l    df *ABS*	00000000 wsetup.c
00000000 l    df *ABS*	00000000 __call_atexit.c
008085fc l     F .text	00000004 register_fini
00000000 l    df *ABS*	00000000 fflush.c
00000000 l    df *ABS*	00000000 findfp.c
008089e0 l     F .text	00000058 std
00808aec l     F .text	00000008 __fp_lock
00808af4 l     F .text	00000008 __fp_unlock
00000000 l    df *ABS*	00000000 fwalk.c
00000000 l    df *ABS*	00000000 makebuf.c
00000000 l    df *ABS*	00000000 stdio.c
00000000 l    df *ABS*	00000000 writer.c
00000000 l    df *ABS*	00000000 closer.c
00000000 l    df *ABS*	00000000 fclose.c
00000000 l    df *ABS*	00000000 fstatr.c
00000000 l    df *ABS*	00000000 isattyr.c
00000000 l    df *ABS*	00000000 lseekr.c
00000000 l    df *ABS*	00000000 readr.c
00000000 l    df *ABS*	00000000 alt_exit.c
00000000 l    df *ABS*	00000000 alt_fstat.c
00000000 l    df *ABS*	00000000 alt_isatty.c
00000000 l    df *ABS*	00000000 alt_lseek.c
00000000 l    df *ABS*	00000000 alt_read.c
00000000 l    df *ABS*	00000000 alt_write.c
008039ac g     F .text	00000094 _mprec_log10
00803a98 g     F .text	00000088 __any_on
00809380 g     F .text	00000070 _isatty_r
00809b38 g     O .rodata	00000028 __mprec_tinytens
00807230 g     F .text	00000050 alt_main
00804b88 g     F .text	0000008c strcpy
0080b014 g     O .bss	00000100 alt_irq
008093f0 g     F .text	00000078 _lseek_r
0080a5b0 g       *ABS*	00000000 __flash_rwdata_start
00806a68 g     F .text	00000088 __eqdf2
0080b114 g       *ABS*	00000000 __alt_heap_start
00808fbc g     F .text	00000068 __sseek
00808a48 g     F .text	000000a4 __sinit
00802fb8 g     F .text	000001a8 fcvtbuf
00808b48 g     F .text	00000068 __sfmoreglue
00807284 g     F .text	00000004 __malloc_unlock
00800924 g     F .text	00000174 __divsf3
00800304 g     F .text	00000238 determinant
00806494 g     F .text	000000e0 memmove
00808b38 g     F .text	00000010 _cleanup
00803b20 g     F .text	000000bc _Balloc
00807288 g     F .text	00000014 alt_putstr
00806b78 g     F .text	00000088 __gtdf2
00000000  w      *UND*	00000000 __errno
00800000 g     F .entry	0000001c __reset
0080740c g     F .text	00000080 times
00800020 g       *ABS*	00000000 __flash_exceptions_start
008001c0 g     F .text	0000001c getAt
0080930c g     F .text	00000074 _fstat_r
0080afd0 g     O .bss	00000004 errno
008012e0 g     F .text	00000038 __make_dp
0080afd8 g     O .bss	00000004 alt_argv
00812578 g       *ABS*	00000000 _gp
00800850 g     F .text	00000070 __subsf3
0080a3f8 g     O .rwdata	00000180 alt_fd_list
00807bb4 g     F .text	00000094 alt_find_dev
00802504 g     F .text	000000a0 memcpy
00808b2c g     F .text	0000000c _cleanup_r
00806d98 g     F .text	000000f8 __floatsidf
00807904 g     F .text	00000104 alt_io_redirect
00806c88 g     F .text	00000088 __ltdf2
008038fc g     F .text	000000b0 __ratio
00807508 g     F .text	0000008c altera_avalon_jtag_uart_read
00801db0 g     F .text	00000014 malloc
008070a4 g     F .text	00000008 __udivsi3
00809584 g     F .text	00000084 isatty
00809a48 g     O .rodata	000000c8 __mprec_tens
00801c6c g     F .text	00000040 gcvtf
00807d58 g     F .text	00000038 alt_icache_flush
0080afc4 g     O .bss	00000004 __malloc_top_pad
00807e58 g     F .text	0000049c __sfvwrite_r
00804218 g     F .text	0000003c __i2b
00802638 g     F .text	00000070 _sbrk_r
00809468 g     F .text	00000078 _read_r
0080a5a4 g     O .rwdata	00000004 alt_max_fd
00801a68 g     F .text	00000138 __unpack_d
008091e8 g     F .text	00000110 _fclose_r
008089ac g     F .text	00000034 fflush
0080afc8 g     O .bss	00000004 __malloc_max_sbrked_mem
00800b30 g     F .text	00000054 __extendsfdf2
00801014 g     F .text	00000074 __adddf3
008037dc g     F .text	00000120 __b2d
00809608 g     F .text	0000009c lseek
0080a57c g     O .rwdata	00000004 _global_impure_ptr
00804594 g     F .text	000005f4 _realloc_r
0080b114 g       *ABS*	00000000 __bss_end
0080787c g     F .text	00000088 alt_iic_isr_register
00807324 g     F .text	000000e8 alt_tick
00809b10 g     O .rodata	00000028 __mprec_bigtens
00804474 g     F .text	00000120 __s2b
00801318 g     F .text	00000194 __floatunsidf
008036fc g     F .text	00000060 __mcmp
00808b14 g     F .text	00000018 __fp_lock_all
008077e0 g     F .text	00000018 alt_ic_irq_enabled
008072f0 g     F .text	00000034 alt_alarm_stop
0080afe8 g     O .bss	00000004 alt_irq_active
008000ec g     F .exceptions	00000098 alt_irq_handler
0080a3d0 g     O .rwdata	00000028 alt_dev_null
0080168c g     F .text	000000c8 __unpack_f
008001dc g     F .text	00000020 putAt
0080774c g     F .text	00000004 alt_dcache_flush_all
008035c8 g     F .text	00000070 __hi0bits
00806e90 g     F .text	000000d8 __fixdfsi
0080a5b0 g       *ABS*	00000000 __ram_rwdata_end
0080a59c g     O .rwdata	00000008 alt_dev_list
008097c0 g     F .text	00000118 write
00809b9c g       *ABS*	00000000 __ram_rodata_end
008094f4 g     F .text	00000090 fstat
00806d10 g     F .text	00000088 __ledf2
00804354 g     F .text	00000120 __pow5mult
008070ac g     F .text	00000008 __umodsi3
0080b114 g       *ABS*	00000000 end
0080152c g     F .text	00000160 __pack_f
01000000 g       *ABS*	00000000 __alt_stack_pointer
00802b78 g     F .text	000002f8 _dcvt
008075d0 g     F .text	00000050 alt_avalon_timer_sc_init
008014ac g     F .text	00000080 __clzsi2
00807594 g     F .text	0000003c altera_avalon_jtag_uart_write
00808a38 g     F .text	00000004 __sfp_lock_acquire
008082f4 g     F .text	000000e4 memchr
0080328c g     F .text	00000314 _free_r
00808600 g     F .text	000001b0 __call_exitprocs
0080a584 g     O .rwdata	00000004 __malloc_sbrk_base
00800184 g     F .text	0000003c _start
0080afe0 g     O .bss	00000004 _alt_tick_rate
008025c0 g     F .text	00000078 rand
00802898 g     F .text	000002e0 _gcvt
00803ee4 g     F .text	0000014c __lshift
0080afe4 g     O .bss	00000004 _alt_nticks
008096a4 g     F .text	0000011c read
0080748c g     F .text	0000003c alt_sys_init
00800a98 g     F .text	00000098 __floatsisf
00804030 g     F .text	000001e8 __multiply
00809b9c g       *ABS*	00000000 __ram_rwdata_start
008098dc g       *ABS*	00000000 __ram_rodata_start
0080afec g     O .bss	00000028 __malloc_current_mallinfo
00803bdc g     F .text	0000017c __d2b
008001fc g     F .text	00000108 randomMatrix
008074f8 g     F .text	00000010 altera_avalon_jtag_uart_read_fd
00807cf8 g     F .text	00000060 alt_get_fd
008070b4 g     F .text	000000c8 __fpcmp_parts_d
00809178 g     F .text	00000070 _close_r
008083d8 g     F .text	00000074 memcmp
0080b114 g       *ABS*	00000000 __alt_stack_base
008084c0 g     F .text	0000013c __swsetup_r
00801088 g     F .text	00000258 __divdf3
00808bb0 g     F .text	000000f0 __sfp
00803a40 g     F .text	00000058 __copybits
00809f9c g     O .rwdata	00000408 __malloc_av_
00808a44 g     F .text	00000004 __sinit_lock_release
008066a4 g     F .text	000003c4 __muldf3
008090a0 g     F .text	00000060 __sread
00809920 g     O .rodata	00000010 __thenan_sf
00807c48 g     F .text	000000b0 alt_find_file
00807758 g     F .text	0000007c alt_dev_llist_insert
00807280 g     F .text	00000004 __malloc_lock
0080729c g     F .text	00000054 sbrk
008087b0 g     F .text	000001fc _fflush_r
00804c14 g     F .text	000000b4 _calloc_r
0080afc4 g       *ABS*	00000000 __bss_start
00806574 g     F .text	00000098 memset
0080053c g     F .text	00000130 main
00801d24 g     F .text	00000024 fcvt
0080afdc g     O .bss	00000004 alt_envp
0080afcc g     O .bss	00000004 __malloc_max_total_mem
008074e8 g     F .text	00000010 altera_avalon_jtag_uart_write_fd
008025a4 g     F .text	0000001c srand
00802e70 g     F .text	00000148 ecvtbuf
00808fb4 g     F .text	00000008 __sclose
01000000 g       *ABS*	00000000 __alt_heap_limit
008092f8 g     F .text	00000014 fclose
00804ee0 g     F .text	000015b4 _dtoa_r
00801dc4 g     F .text	00000740 _malloc_r
0080a5a8 g     O .rwdata	00000004 alt_errno
00801cd0 g     F .text	00000054 ecvtf
00808d68 g     F .text	000000b8 _fwalk
00806fe4 g     F .text	00000060 __divsi3
00809930 g     O .rodata	00000014 __thenan_df
00803160 g     F .text	0000012c _malloc_trim_r
008098dc g       *ABS*	00000000 __flash_rodata_start
00806af0 g     F .text	00000088 __nedf2
008074c8 g     F .text	00000020 alt_irq_init
00807b88 g     F .text	00000024 alt_release_fd
00809944 g     O .rodata	00000100 __clz_tab
00809100 g     F .text	00000078 _write_r
0080a578 g     O .rwdata	00000004 _impure_ptr
0080afd4 g     O .bss	00000004 alt_argc
00800020 g       .exceptions	00000000 alt_irq_entry
0080375c g     F .text	00000080 __ulp
00808afc g     F .text	00000018 __fp_unlock_all
00801cac g     F .text	00000024 ecvt
0080a594 g     O .rwdata	00000008 alt_fs_list
00800020 g       *ABS*	00000000 __ram_exceptions_start
00807878 g     F .text	00000004 alt_ic_isr_register
0080a5b0 g       *ABS*	00000000 _edata
0080b114 g       *ABS*	00000000 _end
00800184 g       *ABS*	00000000 __ram_exceptions_end
00807dc8 g     F .text	00000074 _fputs_r
00807838 g     F .text	00000040 alt_ic_irq_disable
00809024 g     F .text	0000007c __swrite
0080a580 g     O .rwdata	00000004 __malloc_trim_threshold
00801d48 g     F .text	00000054 fcvtf
00807bac g     F .text	00000008 altera_nios2_qsys_irq_init
00807d90 g     F .text	00000038 exit
00808ca0 g     F .text	000000c8 _fwalk_reent
00803d58 g     F .text	0000018c __mdiff
00807044 g     F .text	00000060 __modsi3
01000000 g       *ABS*	00000000 __alt_data_end
00800020 g     F .exceptions	00000000 alt_exception
00808a3c g     F .text	00000004 __sfp_lock_release
00800000 g       *ABS*	00000000 __alt_mem_sdram
00801ba0 g     F .text	000000cc gcvt
008094e0 g     F .text	00000014 _exit
0080660c g     F .text	00000098 __muldi3
00808e20 g     F .text	00000194 __smakebuf_r
0080844c g     F .text	00000074 strlen
00807a08 g     F .text	00000180 open
00806c00 g     F .text	00000088 __gedf2
008077d4 g     F .text	0000000c alt_icache_flush_all
00807e3c g     F .text	0000001c fputs
0080a5ac g     O .rwdata	00000004 alt_priority_mask
008077f8 g     F .text	00000040 alt_ic_irq_enable
00800f94 g     F .text	00000080 __subdf3
00803638 g     F .text	000000c4 __lo0bits
0080a58c g     O .rwdata	00000008 alt_alarm_list
0080765c g     F .text	000000f0 close
008008c0 g     F .text	00000064 __addsf3
0080717c g     F .text	000000b4 alt_load
00801754 g     F .text	00000314 __pack_d
00801d9c g     F .text	00000014 free
00808a40 g     F .text	00000004 __sinit_lock_acquire
00804254 g     F .text	00000100 __multadd
008035a0 g     F .text	00000028 _Bfree



Disassembly of section .entry:

00800000 <__reset>:
#if NIOS2_ICACHE_SIZE > 0 && defined(ALT_ALLOW_CODE_AT_RESET) && !defined(ALT_SIM_OPTIMIZE)
    /* Assume the instruction cache size is always a power of two. */
#if NIOS2_ICACHE_SIZE > 0x8000
    movhi r2, %hi(NIOS2_ICACHE_SIZE)
#else
    movui r2, NIOS2_ICACHE_SIZE
  800000:	00820014 	movui	r2,2048
#endif

0:
    initi r2
  800004:	1001483a 	initi	r2
    addi r2, r2, -NIOS2_ICACHE_LINE_SIZE
  800008:	10bff804 	addi	r2,r2,-32
    bgt r2, zero, 0b
  80000c:	00bffd16 	blt	zero,r2,800004 <__reset+0x4>
 * Jump to the _start entry point in the .text section if reset code
 * is allowed or if optimizing for RTL simulation.
 */
#if defined(ALT_ALLOW_CODE_AT_RESET) || defined(ALT_SIM_OPTIMIZE)
    /* Jump to the _start entry point in the .text section. */
    movhi r1, %hi(_start)
  800010:	00402034 	movhi	at,128
    ori r1, r1, %lo(_start)
  800014:	08406114 	ori	at,at,388
    jmp r1
  800018:	0800683a 	jmp	at
  80001c:	00000000 	call	0 <__alt_mem_sdram-0x800000>

Disassembly of section .exceptions:

00800020 <alt_exception>:
         * Process an exception.  For all exceptions we must preserve all
         * caller saved registers on the stack (See the Nios2 ABI
         * documentation for details).
         */

        addi  sp, sp, -76
  800020:	deffed04 	addi	sp,sp,-76

#endif

#endif

        stw   ra,  0(sp)
  800024:	dfc00015 	stw	ra,0(sp)
        /*
         * Leave a gap in the stack frame at 4(sp) for the muldiv handler to
         * store zero into.
         */

        stw   r1,   8(sp)
  800028:	d8400215 	stw	at,8(sp)
        stw   r2,  12(sp)
  80002c:	d8800315 	stw	r2,12(sp)
        stw   r3,  16(sp)
  800030:	d8c00415 	stw	r3,16(sp)
        stw   r4,  20(sp)
  800034:	d9000515 	stw	r4,20(sp)
        stw   r5,  24(sp)
  800038:	d9400615 	stw	r5,24(sp)
        stw   r6,  28(sp)
  80003c:	d9800715 	stw	r6,28(sp)
        stw   r7,  32(sp)
  800040:	d9c00815 	stw	r7,32(sp)

        rdctl r5, estatus
  800044:	000b307a 	rdctl	r5,estatus

        stw   r8,  36(sp)
  800048:	da000915 	stw	r8,36(sp)
        stw   r9,  40(sp)
  80004c:	da400a15 	stw	r9,40(sp)
        stw   r10, 44(sp)
  800050:	da800b15 	stw	r10,44(sp)
        stw   r11, 48(sp)
  800054:	dac00c15 	stw	r11,48(sp)
        stw   r12, 52(sp)
  800058:	db000d15 	stw	r12,52(sp)
        stw   r13, 56(sp)
  80005c:	db400e15 	stw	r13,56(sp)
        stw   r14, 60(sp)
  800060:	db800f15 	stw	r14,60(sp)
        stw   r15, 64(sp)
  800064:	dbc01015 	stw	r15,64(sp)
        /*
         * ea-4 contains the address of the instruction being executed
         * when the exception occured. For interrupt exceptions, we will
         * will be re-issue the isntruction. Store it in 72(sp)
         */
        stw   r5,  68(sp)  /* estatus */
  800068:	d9401115 	stw	r5,68(sp)
        addi  r15, ea, -4  /* instruction that caused exception */
  80006c:	ebffff04 	addi	r15,ea,-4
        stw   r15,  72(sp)
  800070:	dbc01215 	stw	r15,72(sp)
#else
        /*
         * Test to see if the exception was a software exception or caused 
         * by an external interrupt, and vector accordingly.
         */
        rdctl r4, ipending
  800074:	0009313a 	rdctl	r4,ipending
        andi  r2, r5, 1
  800078:	2880004c 	andi	r2,r5,1
        beq   r2, zero, .Lnot_irq
  80007c:	10000326 	beq	r2,zero,80008c <alt_exception+0x6c>
        beq   r4, zero, .Lnot_irq
  800080:	20000226 	beq	r4,zero,80008c <alt_exception+0x6c>
        /*
         * Now that all necessary registers have been preserved, call 
         * alt_irq_handler() to process the interrupts.
         */

        call alt_irq_handler
  800084:	08000ec0 	call	8000ec <alt_irq_handler>

        .section .exceptions.irqreturn, "xa"

        br    .Lexception_exit
  800088:	00000306 	br	800098 <alt_exception+0x78>
         * upon completion, so we write ea (address of instruction *after*
         * the one where the exception occured) into 72(sp). The actual
         * instruction that caused the exception is written in r2, which these
         * handlers will utilize.
         */
        stw   ea,  72(sp)  /* Don't re-issue */
  80008c:	df401215 	stw	ea,72(sp)
        ldw   r2, -4(ea)   /* Instruction that caused exception */
  800090:	e8bfff17 	ldw	r2,-4(ea)
#ifdef NIOS2_HAS_DEBUG_STUB
       /*
        *  Either tell the user now (if there is a debugger attached) or go into
        *  the debug monitor which will loop until a debugger is attached.
        */
        break
  800094:	003da03a 	break	0
        /* 
         * Restore the saved registers, so that all general purpose registers 
         * have been restored to their state at the time the interrupt occured.
         */

        ldw   r5,  68(sp)
  800098:	d9401117 	ldw	r5,68(sp)
        ldw   ea,  72(sp)  /* This becomes the PC once eret is executed */
  80009c:	df401217 	ldw	ea,72(sp)
        ldw   ra,   0(sp)
  8000a0:	dfc00017 	ldw	ra,0(sp)

        wrctl estatus, r5
  8000a4:	2801707a 	wrctl	estatus,r5

        ldw   r1,   8(sp)
  8000a8:	d8400217 	ldw	at,8(sp)
        ldw   r2,  12(sp)
  8000ac:	d8800317 	ldw	r2,12(sp)
        ldw   r3,  16(sp)
  8000b0:	d8c00417 	ldw	r3,16(sp)
        ldw   r4,  20(sp)
  8000b4:	d9000517 	ldw	r4,20(sp)
        ldw   r5,  24(sp)
  8000b8:	d9400617 	ldw	r5,24(sp)
        ldw   r6,  28(sp)
  8000bc:	d9800717 	ldw	r6,28(sp)
        ldw   r7,  32(sp)
  8000c0:	d9c00817 	ldw	r7,32(sp)
#ifdef ALT_STACK_CHECK
        ldw   et, %gprel(alt_exception_old_stack_limit)(gp)
#endif
#endif

        ldw   r8,  36(sp)
  8000c4:	da000917 	ldw	r8,36(sp)
        ldw   r9,  40(sp)
  8000c8:	da400a17 	ldw	r9,40(sp)
        ldw   r10, 44(sp)
  8000cc:	da800b17 	ldw	r10,44(sp)
        ldw   r11, 48(sp)
  8000d0:	dac00c17 	ldw	r11,48(sp)
        ldw   r12, 52(sp)
  8000d4:	db000d17 	ldw	r12,52(sp)
        ldw   r13, 56(sp)
  8000d8:	db400e17 	ldw	r13,56(sp)
        ldw   r14, 60(sp)
  8000dc:	db800f17 	ldw	r14,60(sp)
        ldw   r15, 64(sp)
  8000e0:	dbc01017 	ldw	r15,64(sp)
#endif

        ldw   sp,  76(sp)

#else
        addi  sp, sp, 76
  8000e4:	dec01304 	addi	sp,sp,76

        /*
         * Return to the interrupted instruction.
         */

        eret
  8000e8:	ef80083a 	eret

008000ec <alt_irq_handler>:
  8000ec:	defffe04 	addi	sp,sp,-8
  8000f0:	dfc00115 	stw	ra,4(sp)
  8000f4:	dc000015 	stw	r16,0(sp)
  8000f8:	000b313a 	rdctl	r5,ipending
  8000fc:	2880004c 	andi	r2,r5,1
  800100:	1005003a 	cmpeq	r2,r2,zero
  800104:	04002074 	movhi	r16,129
  800108:	842c0504 	addi	r16,r16,-20460
  80010c:	10001126 	beq	r2,zero,800154 <alt_irq_handler+0x68>
  800110:	00c00044 	movi	r3,1
  800114:	0009883a 	mov	r4,zero
  800118:	18c7883a 	add	r3,r3,r3
  80011c:	28c4703a 	and	r2,r5,r3
  800120:	21000044 	addi	r4,r4,1
  800124:	103ffc26 	beq	r2,zero,800118 <alt_irq_handler+0x2c>
  800128:	200490fa 	slli	r2,r4,3
  80012c:	1405883a 	add	r2,r2,r16
  800130:	11000117 	ldw	r4,4(r2)
  800134:	10c00017 	ldw	r3,0(r2)
  800138:	183ee83a 	callr	r3
  80013c:	0005313a 	rdctl	r2,ipending
  800140:	10000c26 	beq	r2,zero,800174 <alt_irq_handler+0x88>
  800144:	100b883a 	mov	r5,r2
  800148:	2880004c 	andi	r2,r5,1
  80014c:	1005003a 	cmpeq	r2,r2,zero
  800150:	103fef1e 	bne	r2,zero,800110 <alt_irq_handler+0x24>
  800154:	0009883a 	mov	r4,zero
  800158:	200490fa 	slli	r2,r4,3
  80015c:	1405883a 	add	r2,r2,r16
  800160:	11000117 	ldw	r4,4(r2)
  800164:	10c00017 	ldw	r3,0(r2)
  800168:	183ee83a 	callr	r3
  80016c:	0005313a 	rdctl	r2,ipending
  800170:	103ff41e 	bne	r2,zero,800144 <alt_irq_handler+0x58>
  800174:	dfc00117 	ldw	ra,4(sp)
  800178:	dc000017 	ldw	r16,0(sp)
  80017c:	dec00204 	addi	sp,sp,8
  800180:	f800283a 	ret

Disassembly of section .text:

00800184 <_start>:
#if (NIOS2_NUM_OF_SHADOW_REG_SETS == 0)    
    /*
     * Now that the caches are initialized, set up the stack pointer.
     * The value provided by the linker is assumed to be correctly aligned.
     */
    movhi sp, %hi(__alt_stack_pointer)
  800184:	06c04034 	movhi	sp,256
    ori sp, sp, %lo(__alt_stack_pointer)
  800188:	dec00014 	ori	sp,sp,0

    /* Set up the global pointer. */
    movhi gp, %hi(_gp)
  80018c:	06802074 	movhi	gp,129
    ori gp, gp, %lo(_gp)
  800190:	d6895e14 	ori	gp,gp,9592
 */
#ifndef ALT_SIM_OPTIMIZE
    /* Log that the BSS is about to be cleared. */
    ALT_LOG_PUTS(alt_log_msg_bss)

    movhi r2, %hi(__bss_start)
  800194:	00802034 	movhi	r2,128
    ori r2, r2, %lo(__bss_start)
  800198:	10abf114 	ori	r2,r2,44996

    movhi r3, %hi(__bss_end)
  80019c:	00c02034 	movhi	r3,128
    ori r3, r3, %lo(__bss_end)
  8001a0:	18ec4514 	ori	r3,r3,45332

    beq r2, r3, 1f
  8001a4:	10c00326 	beq	r2,r3,8001b4 <_start+0x30>

0:
    stw zero, (r2)
  8001a8:	10000015 	stw	zero,0(r2)
    addi r2, r2, 4
  8001ac:	10800104 	addi	r2,r2,4
    bltu r2, r3, 0b
  8001b0:	10fffd36 	bltu	r2,r3,8001a8 <_start+0x24>
     * section aren't defined until alt_load() has been called).
     */
    mov   et, zero
#endif

    call alt_load
  8001b4:	080717c0 	call	80717c <alt_load>

    /* Log that alt_main is about to be called. */
    ALT_LOG_PUTS(alt_log_msg_alt_main)

    /* Call the C entry point. It should never return. */
    call alt_main
  8001b8:	08072300 	call	807230 <alt_main>

008001bc <alt_after_alt_main>:

    /* Wait in infinite loop in case alt_main does return. */
alt_after_alt_main:
    br alt_after_alt_main
  8001bc:	003fff06 	br	8001bc <alt_after_alt_main>

008001c0 <getAt>:
  8001c0:	29cb383a 	mul	r5,r5,r7
  8001c4:	298b883a 	add	r5,r5,r6
  8001c8:	294b883a 	add	r5,r5,r5
  8001cc:	294b883a 	add	r5,r5,r5
  8001d0:	290b883a 	add	r5,r5,r4
  8001d4:	28800017 	ldw	r2,0(r5)
  8001d8:	f800283a 	ret

008001dc <putAt>:
  8001dc:	29cb383a 	mul	r5,r5,r7
  8001e0:	d8800017 	ldw	r2,0(sp)
  8001e4:	298b883a 	add	r5,r5,r6
  8001e8:	294b883a 	add	r5,r5,r5
  8001ec:	294b883a 	add	r5,r5,r5
  8001f0:	290b883a 	add	r5,r5,r4
  8001f4:	28800015 	stw	r2,0(r5)
  8001f8:	f800283a 	ret

008001fc <randomMatrix>:
  8001fc:	defff604 	addi	sp,sp,-40
  800200:	dc800515 	stw	r18,20(sp)
  800204:	dc000315 	stw	r16,12(sp)
  800208:	2825883a 	mov	r18,r5
  80020c:	2021883a 	mov	r16,r4
  800210:	01002074 	movhi	r4,129
  800214:	21263704 	addi	r4,r4,-26404
  800218:	dfc00915 	stw	ra,36(sp)
  80021c:	dd400815 	stw	r21,32(sp)
  800220:	dd000715 	stw	r20,28(sp)
  800224:	dcc00615 	stw	r19,24(sp)
  800228:	dc400415 	stw	r17,16(sp)
  80022c:	08072880 	call	807288 <alt_putstr>
  800230:	0480280e 	bge	zero,r18,8002d4 <randomMatrix+0xd8>
  800234:	9485883a 	add	r2,r18,r18
  800238:	10ab883a 	add	r21,r2,r2
  80023c:	8027883a 	mov	r19,r16
  800240:	0029883a 	mov	r20,zero
  800244:	9821883a 	mov	r16,r19
  800248:	0023883a 	mov	r17,zero
  80024c:	08025c00 	call	8025c0 <rand>
  800250:	01000504 	movi	r4,20
  800254:	1109283a 	div	r4,r2,r4
  800258:	21000524 	muli	r4,r4,20
  80025c:	8c400044 	addi	r17,r17,1
  800260:	1109c83a 	sub	r4,r2,r4
  800264:	0800a980 	call	800a98 <__floatsisf>
  800268:	1009883a 	mov	r4,r2
  80026c:	01504834 	movhi	r5,16672
  800270:	08009240 	call	800924 <__divsf3>
  800274:	1009883a 	mov	r4,r2
  800278:	014fe034 	movhi	r5,16256
  80027c:	08008500 	call	800850 <__subsf3>
  800280:	80800015 	stw	r2,0(r16)
  800284:	1009883a 	mov	r4,r2
  800288:	0800b300 	call	800b30 <__extendsfdf2>
  80028c:	180b883a 	mov	r5,r3
  800290:	01800284 	movi	r6,10
  800294:	d80f883a 	mov	r7,sp
  800298:	1009883a 	mov	r4,r2
  80029c:	0801ba00 	call	801ba0 <gcvt>
  8002a0:	d809883a 	mov	r4,sp
  8002a4:	08072880 	call	807288 <alt_putstr>
  8002a8:	01002074 	movhi	r4,129
  8002ac:	21264404 	addi	r4,r4,-26352
  8002b0:	08072880 	call	807288 <alt_putstr>
  8002b4:	84000104 	addi	r16,r16,4
  8002b8:	947fe41e 	bne	r18,r17,80024c <randomMatrix+0x50>
  8002bc:	01002074 	movhi	r4,129
  8002c0:	21263804 	addi	r4,r4,-26400
  8002c4:	a5000044 	addi	r20,r20,1
  8002c8:	08072880 	call	807288 <alt_putstr>
  8002cc:	9d67883a 	add	r19,r19,r21
  8002d0:	8d3fdc1e 	bne	r17,r20,800244 <randomMatrix+0x48>
  8002d4:	01002074 	movhi	r4,129
  8002d8:	21263904 	addi	r4,r4,-26396
  8002dc:	08072880 	call	807288 <alt_putstr>
  8002e0:	dfc00917 	ldw	ra,36(sp)
  8002e4:	dd400817 	ldw	r21,32(sp)
  8002e8:	dd000717 	ldw	r20,28(sp)
  8002ec:	dcc00617 	ldw	r19,24(sp)
  8002f0:	dc800517 	ldw	r18,20(sp)
  8002f4:	dc400417 	ldw	r17,16(sp)
  8002f8:	dc000317 	ldw	r16,12(sp)
  8002fc:	dec00a04 	addi	sp,sp,40
  800300:	f800283a 	ret

00800304 <determinant>:
  800304:	defff104 	addi	sp,sp,-60
  800308:	dd800b15 	stw	r22,44(sp)
  80030c:	296d883a 	add	r22,r5,r5
  800310:	b585883a 	add	r2,r22,r22
  800314:	dc400615 	stw	r17,24(sp)
  800318:	28a3383a 	mul	r17,r5,r2
  80031c:	dcc00815 	stw	r19,32(sp)
  800320:	2027883a 	mov	r19,r4
  800324:	8809883a 	mov	r4,r17
  800328:	df000d15 	stw	fp,52(sp)
  80032c:	ddc00c15 	stw	r23,48(sp)
  800330:	dfc00e15 	stw	ra,56(sp)
  800334:	282f883a 	mov	r23,r5
  800338:	dd400a15 	stw	r21,40(sp)
  80033c:	dd000915 	stw	r20,36(sp)
  800340:	dc800715 	stw	r18,28(sp)
  800344:	dc000515 	stw	r16,20(sp)
  800348:	d8800215 	stw	r2,8(sp)
  80034c:	0801db00 	call	801db0 <malloc>
  800350:	980b883a 	mov	r5,r19
  800354:	880d883a 	mov	r6,r17
  800358:	1009883a 	mov	r4,r2
  80035c:	1039883a 	mov	fp,r2
  800360:	d8800115 	stw	r2,4(sp)
  800364:	08025040 	call	802504 <memcpy>
  800368:	05c0720e 	bge	zero,r23,800534 <determinant+0x230>
  80036c:	e01b883a 	mov	r13,fp
  800370:	df000015 	stw	fp,0(sp)
  800374:	0027883a 	mov	r19,zero
  800378:	001d883a 	mov	r14,zero
  80037c:	04c02f0e 	bge	zero,r19,80043c <determinant+0x138>
  800380:	69000017 	ldw	r4,0(r13)
  800384:	682b883a 	mov	r21,r13
  800388:	0023883a 	mov	r17,zero
  80038c:	0013883a 	mov	r9,zero
  800390:	8b85883a 	add	r2,r17,r14
  800394:	1085883a 	add	r2,r2,r2
  800398:	8c47883a 	add	r3,r17,r17
  80039c:	1085883a 	add	r2,r2,r2
  8003a0:	18c7883a 	add	r3,r3,r3
  8003a4:	bc69383a 	mul	r20,r23,r17
  8003a8:	e085883a 	add	r2,fp,r2
  8003ac:	e0c7883a 	add	r3,fp,r3
  8003b0:	14800104 	addi	r18,r2,4
  8003b4:	1c000104 	addi	r16,r3,4
  8003b8:	4d05883a 	add	r2,r9,r20
  8003bc:	1085883a 	add	r2,r2,r2
  8003c0:	1085883a 	add	r2,r2,r2
  8003c4:	1705883a 	add	r2,r2,fp
  8003c8:	11400017 	ldw	r5,0(r2)
  8003cc:	db400315 	stw	r13,12(sp)
  8003d0:	db800415 	stw	r14,16(sp)
  8003d4:	8c400044 	addi	r17,r17,1
  8003d8:	08009240 	call	800924 <__divsf3>
  8003dc:	a8800015 	stw	r2,0(r21)
  8003e0:	db400317 	ldw	r13,12(sp)
  8003e4:	db800417 	ldw	r14,16(sp)
  8003e8:	8cc0140e 	bge	r17,r19,80043c <determinant+0x138>
  8003ec:	902b883a 	mov	r21,r18
  8003f0:	8813883a 	mov	r9,r17
  8003f4:	91000017 	ldw	r4,0(r18)
  8003f8:	047fe50e 	bge	zero,r17,800390 <determinant+0x8c>
  8003fc:	680d883a 	mov	r6,r13
  800400:	b591883a 	add	r8,r22,r22
  800404:	800b883a 	mov	r5,r16
  800408:	000f883a 	mov	r7,zero
  80040c:	30800017 	ldw	r2,0(r6)
  800410:	28c00017 	ldw	r3,0(r5)
  800414:	10c5c0b2 	custom	2,r2,r2,r3
  800418:	2089c072 	custom	1,r4,r4,r2
  80041c:	39c00044 	addi	r7,r7,1
  800420:	31800104 	addi	r6,r6,4
  800424:	2a0b883a 	add	r5,r5,r8
  800428:	89fff81e 	bne	r17,r7,80040c <determinant+0x108>
  80042c:	94800104 	addi	r18,r18,4
  800430:	a5e9883a 	add	r20,r20,r23
  800434:	84000104 	addi	r16,r16,4
  800438:	003fdf06 	br	8003b8 <determinant+0xb4>
  80043c:	74c5883a 	add	r2,r14,r19
  800440:	1085883a 	add	r2,r2,r2
  800444:	dac00017 	ldw	r11,0(sp)
  800448:	1085883a 	add	r2,r2,r2
  80044c:	e093883a 	add	r9,fp,r2
  800450:	9815883a 	mov	r10,r19
  800454:	9b000050 	cmplti	r12,r19,1
  800458:	49c00017 	ldw	r7,0(r9)
  80045c:	60000e1e 	bne	r12,zero,800498 <determinant+0x194>
  800460:	7385883a 	add	r2,r14,r14
  800464:	1085883a 	add	r2,r2,r2
  800468:	e08b883a 	add	r5,fp,r2
  80046c:	b591883a 	add	r8,r22,r22
  800470:	5809883a 	mov	r4,r11
  800474:	000d883a 	mov	r6,zero
  800478:	28800017 	ldw	r2,0(r5)
  80047c:	20c00017 	ldw	r3,0(r4)
  800480:	10c5c0b2 	custom	2,r2,r2,r3
  800484:	388fc072 	custom	1,r7,r7,r2
  800488:	31800044 	addi	r6,r6,1
  80048c:	29400104 	addi	r5,r5,4
  800490:	2209883a 	add	r4,r4,r8
  800494:	99bff81e 	bne	r19,r6,800478 <determinant+0x174>
  800498:	52800044 	addi	r10,r10,1
  80049c:	49c00015 	stw	r7,0(r9)
  8004a0:	5ac00104 	addi	r11,r11,4
  8004a4:	4a400104 	addi	r9,r9,4
  8004a8:	55ffeb16 	blt	r10,r23,800458 <determinant+0x154>
  8004ac:	d9400017 	ldw	r5,0(sp)
  8004b0:	d8800217 	ldw	r2,8(sp)
  8004b4:	9cc00044 	addi	r19,r19,1
  8004b8:	29400104 	addi	r5,r5,4
  8004bc:	d9400015 	stw	r5,0(sp)
  8004c0:	75dd883a 	add	r14,r14,r23
  8004c4:	689b883a 	add	r13,r13,r2
  8004c8:	bcffac1e 	bne	r23,r19,80037c <determinant+0x78>
  8004cc:	d9400117 	ldw	r5,4(sp)
  8004d0:	b585883a 	add	r2,r22,r22
  8004d4:	11000104 	addi	r4,r2,4
  8004d8:	0007883a 	mov	r3,zero
  8004dc:	040fe034 	movhi	r16,16256
  8004e0:	28800017 	ldw	r2,0(r5)
  8004e4:	80a1c0b2 	custom	2,r16,r16,r2
  8004e8:	290b883a 	add	r5,r5,r4
  8004ec:	18c00044 	addi	r3,r3,1
  8004f0:	d9400115 	stw	r5,4(sp)
  8004f4:	b8fffa1e 	bne	r23,r3,8004e0 <determinant+0x1dc>
  8004f8:	e009883a 	mov	r4,fp
  8004fc:	0801d9c0 	call	801d9c <free>
  800500:	8005883a 	mov	r2,r16
  800504:	dfc00e17 	ldw	ra,56(sp)
  800508:	df000d17 	ldw	fp,52(sp)
  80050c:	ddc00c17 	ldw	r23,48(sp)
  800510:	dd800b17 	ldw	r22,44(sp)
  800514:	dd400a17 	ldw	r21,40(sp)
  800518:	dd000917 	ldw	r20,36(sp)
  80051c:	dcc00817 	ldw	r19,32(sp)
  800520:	dc800717 	ldw	r18,28(sp)
  800524:	dc400617 	ldw	r17,24(sp)
  800528:	dc000517 	ldw	r16,20(sp)
  80052c:	dec00f04 	addi	sp,sp,60
  800530:	f800283a 	ret
  800534:	040fe034 	movhi	r16,16256
  800538:	003fef06 	br	8004f8 <determinant+0x1f4>

0080053c <main>:
  80053c:	defe6404 	addi	sp,sp,-1648
  800540:	01002074 	movhi	r4,129
  800544:	21263a04 	addi	r4,r4,-26392
  800548:	dfc19b15 	stw	ra,1644(sp)
  80054c:	dd019a15 	stw	r20,1640(sp)
  800550:	dc819815 	stw	r18,1632(sp)
  800554:	dc419715 	stw	r17,1628(sp)
  800558:	dc019615 	stw	r16,1624(sp)
  80055c:	dcc19915 	stw	r19,1636(sp)
  800560:	dc800604 	addi	r18,sp,24
  800564:	08072880 	call	807288 <alt_putstr>
  800568:	01400504 	movi	r5,20
  80056c:	9009883a 	mov	r4,r18
  800570:	08001fc0 	call	8001fc <randomMatrix>
  800574:	0009883a 	mov	r4,zero
  800578:	080740c0 	call	80740c <times>
  80057c:	1029883a 	mov	r20,r2
  800580:	0021883a 	mov	r16,zero
  800584:	04401904 	movi	r17,100
  800588:	9009883a 	mov	r4,r18
  80058c:	01400504 	movi	r5,20
  800590:	08003040 	call	800304 <determinant>
  800594:	84000044 	addi	r16,r16,1
  800598:	1027883a 	mov	r19,r2
  80059c:	847ffa1e 	bne	r16,r17,800588 <main+0x4c>
  8005a0:	0009883a 	mov	r4,zero
  8005a4:	080740c0 	call	80740c <times>
  8005a8:	1009883a 	mov	r4,r2
  8005ac:	08013180 	call	801318 <__floatunsidf>
  8005b0:	a009883a 	mov	r4,r20
  8005b4:	1021883a 	mov	r16,r2
  8005b8:	1823883a 	mov	r17,r3
  8005bc:	08013180 	call	801318 <__floatunsidf>
  8005c0:	880b883a 	mov	r5,r17
  8005c4:	180f883a 	mov	r7,r3
  8005c8:	100d883a 	mov	r6,r2
  8005cc:	8009883a 	mov	r4,r16
  8005d0:	0800f940 	call	800f94 <__subdf3>
  8005d4:	01402074 	movhi	r5,129
  8005d8:	296bf804 	addi	r5,r5,-20512
  8005dc:	29000017 	ldw	r4,0(r5)
  8005e0:	1823883a 	mov	r17,r3
  8005e4:	1021883a 	mov	r16,r2
  8005e8:	08013180 	call	801318 <__floatunsidf>
  8005ec:	880b883a 	mov	r5,r17
  8005f0:	180f883a 	mov	r7,r3
  8005f4:	8009883a 	mov	r4,r16
  8005f8:	100d883a 	mov	r6,r2
  8005fc:	08010880 	call	801088 <__divdf3>
  800600:	180b883a 	mov	r5,r3
  800604:	01800284 	movi	r6,10
  800608:	d80f883a 	mov	r7,sp
  80060c:	1009883a 	mov	r4,r2
  800610:	0801ba00 	call	801ba0 <gcvt>
  800614:	9809883a 	mov	r4,r19
  800618:	0800b300 	call	800b30 <__extendsfdf2>
  80061c:	dc4002c4 	addi	r17,sp,11
  800620:	180b883a 	mov	r5,r3
  800624:	01800284 	movi	r6,10
  800628:	880f883a 	mov	r7,r17
  80062c:	1009883a 	mov	r4,r2
  800630:	0801ba00 	call	801ba0 <gcvt>
  800634:	8809883a 	mov	r4,r17
  800638:	08072880 	call	807288 <alt_putstr>
  80063c:	01002074 	movhi	r4,129
  800640:	21264004 	addi	r4,r4,-26368
  800644:	08072880 	call	807288 <alt_putstr>
  800648:	01002074 	movhi	r4,129
  80064c:	21264104 	addi	r4,r4,-26364
  800650:	08072880 	call	807288 <alt_putstr>
  800654:	d809883a 	mov	r4,sp
  800658:	08072880 	call	807288 <alt_putstr>
  80065c:	01002074 	movhi	r4,129
  800660:	21264504 	addi	r4,r4,-26348
  800664:	08072880 	call	807288 <alt_putstr>
  800668:	003fff06 	br	800668 <main+0x12c>

0080066c <_fpadd_parts>:
  80066c:	21c00017 	ldw	r7,0(r4)
  800670:	02000044 	movi	r8,1
  800674:	41c0332e 	bgeu	r8,r7,800744 <_fpadd_parts+0xd8>
  800678:	28800017 	ldw	r2,0(r5)
  80067c:	4080462e 	bgeu	r8,r2,800798 <_fpadd_parts+0x12c>
  800680:	00c00104 	movi	r3,4
  800684:	38c06b26 	beq	r7,r3,800834 <_fpadd_parts+0x1c8>
  800688:	10c04326 	beq	r2,r3,800798 <_fpadd_parts+0x12c>
  80068c:	00c00084 	movi	r3,2
  800690:	10c02e26 	beq	r2,r3,80074c <_fpadd_parts+0xe0>
  800694:	38c04026 	beq	r7,r3,800798 <_fpadd_parts+0x12c>
  800698:	22800217 	ldw	r10,8(r4)
  80069c:	28c00217 	ldw	r3,8(r5)
  8006a0:	23000317 	ldw	r12,12(r4)
  8006a4:	2a400317 	ldw	r9,12(r5)
  8006a8:	50cfc83a 	sub	r7,r10,r3
  8006ac:	3817883a 	mov	r11,r7
  8006b0:	38004f16 	blt	r7,zero,8007f0 <_fpadd_parts+0x184>
  8006b4:	008007c4 	movi	r2,31
  8006b8:	11c03316 	blt	r2,r7,800788 <_fpadd_parts+0x11c>
  8006bc:	02c0540e 	bge	zero,r11,800810 <_fpadd_parts+0x1a4>
  8006c0:	41c4983a 	sll	r2,r8,r7
  8006c4:	49c6d83a 	srl	r3,r9,r7
  8006c8:	10bfffc4 	addi	r2,r2,-1
  8006cc:	4884703a 	and	r2,r9,r2
  8006d0:	1004c03a 	cmpne	r2,r2,zero
  8006d4:	1892b03a 	or	r9,r3,r2
  8006d8:	20c00117 	ldw	r3,4(r4)
  8006dc:	28800117 	ldw	r2,4(r5)
  8006e0:	18803c26 	beq	r3,r2,8007d4 <_fpadd_parts+0x168>
  8006e4:	18002f26 	beq	r3,zero,8007a4 <_fpadd_parts+0x138>
  8006e8:	4b05c83a 	sub	r2,r9,r12
  8006ec:	10004216 	blt	r2,zero,8007f8 <_fpadd_parts+0x18c>
  8006f0:	32800215 	stw	r10,8(r6)
  8006f4:	30800315 	stw	r2,12(r6)
  8006f8:	30000115 	stw	zero,4(r6)
  8006fc:	31000317 	ldw	r4,12(r6)
  800700:	01d00034 	movhi	r7,16384
  800704:	39ffff84 	addi	r7,r7,-2
  800708:	20bfffc4 	addi	r2,r4,-1
  80070c:	2007883a 	mov	r3,r4
  800710:	38800836 	bltu	r7,r2,800734 <_fpadd_parts+0xc8>
  800714:	31400217 	ldw	r5,8(r6)
  800718:	18c9883a 	add	r4,r3,r3
  80071c:	20bfffc4 	addi	r2,r4,-1
  800720:	297fffc4 	addi	r5,r5,-1
  800724:	2007883a 	mov	r3,r4
  800728:	38bffb2e 	bgeu	r7,r2,800718 <_fpadd_parts+0xac>
  80072c:	31400215 	stw	r5,8(r6)
  800730:	31000315 	stw	r4,12(r6)
  800734:	008000c4 	movi	r2,3
  800738:	30800015 	stw	r2,0(r6)
  80073c:	20001b16 	blt	r4,zero,8007ac <_fpadd_parts+0x140>
  800740:	3009883a 	mov	r4,r6
  800744:	2005883a 	mov	r2,r4
  800748:	f800283a 	ret
  80074c:	38fffd1e 	bne	r7,r3,800744 <_fpadd_parts+0xd8>
  800750:	31c00015 	stw	r7,0(r6)
  800754:	20800117 	ldw	r2,4(r4)
  800758:	30800115 	stw	r2,4(r6)
  80075c:	20c00217 	ldw	r3,8(r4)
  800760:	30c00215 	stw	r3,8(r6)
  800764:	20800317 	ldw	r2,12(r4)
  800768:	30800315 	stw	r2,12(r6)
  80076c:	20c00117 	ldw	r3,4(r4)
  800770:	28800117 	ldw	r2,4(r5)
  800774:	3009883a 	mov	r4,r6
  800778:	1886703a 	and	r3,r3,r2
  80077c:	2005883a 	mov	r2,r4
  800780:	30c00115 	stw	r3,4(r6)
  800784:	f800283a 	ret
  800788:	1a801716 	blt	r3,r10,8007e8 <_fpadd_parts+0x17c>
  80078c:	1815883a 	mov	r10,r3
  800790:	0019883a 	mov	r12,zero
  800794:	003fd006 	br	8006d8 <_fpadd_parts+0x6c>
  800798:	2809883a 	mov	r4,r5
  80079c:	2005883a 	mov	r2,r4
  8007a0:	f800283a 	ret
  8007a4:	6245c83a 	sub	r2,r12,r9
  8007a8:	003fd006 	br	8006ec <_fpadd_parts+0x80>
  8007ac:	30800217 	ldw	r2,8(r6)
  8007b0:	2006d07a 	srli	r3,r4,1
  8007b4:	2100004c 	andi	r4,r4,1
  8007b8:	10800044 	addi	r2,r2,1
  8007bc:	1906b03a 	or	r3,r3,r4
  8007c0:	3009883a 	mov	r4,r6
  8007c4:	30800215 	stw	r2,8(r6)
  8007c8:	2005883a 	mov	r2,r4
  8007cc:	30c00315 	stw	r3,12(r6)
  8007d0:	f800283a 	ret
  8007d4:	4b09883a 	add	r4,r9,r12
  8007d8:	30c00115 	stw	r3,4(r6)
  8007dc:	32800215 	stw	r10,8(r6)
  8007e0:	31000315 	stw	r4,12(r6)
  8007e4:	003fd306 	br	800734 <_fpadd_parts+0xc8>
  8007e8:	0013883a 	mov	r9,zero
  8007ec:	003fba06 	br	8006d8 <_fpadd_parts+0x6c>
  8007f0:	01cfc83a 	sub	r7,zero,r7
  8007f4:	003faf06 	br	8006b4 <_fpadd_parts+0x48>
  8007f8:	0089c83a 	sub	r4,zero,r2
  8007fc:	00800044 	movi	r2,1
  800800:	30800115 	stw	r2,4(r6)
  800804:	32800215 	stw	r10,8(r6)
  800808:	31000315 	stw	r4,12(r6)
  80080c:	003fbb06 	br	8006fc <_fpadd_parts+0x90>
  800810:	583fb126 	beq	r11,zero,8006d8 <_fpadd_parts+0x6c>
  800814:	41c4983a 	sll	r2,r8,r7
  800818:	61c6d83a 	srl	r3,r12,r7
  80081c:	51d5883a 	add	r10,r10,r7
  800820:	10bfffc4 	addi	r2,r2,-1
  800824:	6084703a 	and	r2,r12,r2
  800828:	1004c03a 	cmpne	r2,r2,zero
  80082c:	1898b03a 	or	r12,r3,r2
  800830:	003fa906 	br	8006d8 <_fpadd_parts+0x6c>
  800834:	11ffc31e 	bne	r2,r7,800744 <_fpadd_parts+0xd8>
  800838:	28c00117 	ldw	r3,4(r5)
  80083c:	20800117 	ldw	r2,4(r4)
  800840:	10ffc026 	beq	r2,r3,800744 <_fpadd_parts+0xd8>
  800844:	01002074 	movhi	r4,129
  800848:	21264804 	addi	r4,r4,-26336
  80084c:	003fbd06 	br	800744 <_fpadd_parts+0xd8>

00800850 <__subsf3>:
  800850:	deffef04 	addi	sp,sp,-68
  800854:	dcc00f15 	stw	r19,60(sp)
  800858:	dcc00204 	addi	r19,sp,8
  80085c:	dc400e15 	stw	r17,56(sp)
  800860:	d9000015 	stw	r4,0(sp)
  800864:	d9400115 	stw	r5,4(sp)
  800868:	d809883a 	mov	r4,sp
  80086c:	980b883a 	mov	r5,r19
  800870:	dc400604 	addi	r17,sp,24
  800874:	dfc01015 	stw	ra,64(sp)
  800878:	080168c0 	call	80168c <__unpack_f>
  80087c:	d9000104 	addi	r4,sp,4
  800880:	880b883a 	mov	r5,r17
  800884:	080168c0 	call	80168c <__unpack_f>
  800888:	d8800717 	ldw	r2,28(sp)
  80088c:	9809883a 	mov	r4,r19
  800890:	880b883a 	mov	r5,r17
  800894:	d9800a04 	addi	r6,sp,40
  800898:	1080005c 	xori	r2,r2,1
  80089c:	d8800715 	stw	r2,28(sp)
  8008a0:	080066c0 	call	80066c <_fpadd_parts>
  8008a4:	1009883a 	mov	r4,r2
  8008a8:	080152c0 	call	80152c <__pack_f>
  8008ac:	dfc01017 	ldw	ra,64(sp)
  8008b0:	dcc00f17 	ldw	r19,60(sp)
  8008b4:	dc400e17 	ldw	r17,56(sp)
  8008b8:	dec01104 	addi	sp,sp,68
  8008bc:	f800283a 	ret

008008c0 <__addsf3>:
  8008c0:	deffef04 	addi	sp,sp,-68
  8008c4:	dcc00f15 	stw	r19,60(sp)
  8008c8:	dcc00204 	addi	r19,sp,8
  8008cc:	dc400e15 	stw	r17,56(sp)
  8008d0:	d9000015 	stw	r4,0(sp)
  8008d4:	d9400115 	stw	r5,4(sp)
  8008d8:	d809883a 	mov	r4,sp
  8008dc:	980b883a 	mov	r5,r19
  8008e0:	dc400604 	addi	r17,sp,24
  8008e4:	dfc01015 	stw	ra,64(sp)
  8008e8:	080168c0 	call	80168c <__unpack_f>
  8008ec:	d9000104 	addi	r4,sp,4
  8008f0:	880b883a 	mov	r5,r17
  8008f4:	080168c0 	call	80168c <__unpack_f>
  8008f8:	d9800a04 	addi	r6,sp,40
  8008fc:	9809883a 	mov	r4,r19
  800900:	880b883a 	mov	r5,r17
  800904:	080066c0 	call	80066c <_fpadd_parts>
  800908:	1009883a 	mov	r4,r2
  80090c:	080152c0 	call	80152c <__pack_f>
  800910:	dfc01017 	ldw	ra,64(sp)
  800914:	dcc00f17 	ldw	r19,60(sp)
  800918:	dc400e17 	ldw	r17,56(sp)
  80091c:	dec01104 	addi	sp,sp,68
  800920:	f800283a 	ret

00800924 <__divsf3>:
  800924:	defff304 	addi	sp,sp,-52
  800928:	dc400b15 	stw	r17,44(sp)
  80092c:	dc400204 	addi	r17,sp,8
  800930:	dc000a15 	stw	r16,40(sp)
  800934:	d9000015 	stw	r4,0(sp)
  800938:	d9400115 	stw	r5,4(sp)
  80093c:	d809883a 	mov	r4,sp
  800940:	880b883a 	mov	r5,r17
  800944:	dc000604 	addi	r16,sp,24
  800948:	dfc00c15 	stw	ra,48(sp)
  80094c:	080168c0 	call	80168c <__unpack_f>
  800950:	d9000104 	addi	r4,sp,4
  800954:	800b883a 	mov	r5,r16
  800958:	080168c0 	call	80168c <__unpack_f>
  80095c:	d9000217 	ldw	r4,8(sp)
  800960:	00800044 	movi	r2,1
  800964:	01800104 	movi	r6,4
  800968:	11000a2e 	bgeu	r2,r4,800994 <__divsf3+0x70>
  80096c:	d9400617 	ldw	r5,24(sp)
  800970:	1140432e 	bgeu	r2,r5,800a80 <__divsf3+0x15c>
  800974:	d8800317 	ldw	r2,12(sp)
  800978:	d8c00717 	ldw	r3,28(sp)
  80097c:	10c4f03a 	xor	r2,r2,r3
  800980:	d8800315 	stw	r2,12(sp)
  800984:	21800226 	beq	r4,r6,800990 <__divsf3+0x6c>
  800988:	00800084 	movi	r2,2
  80098c:	2080101e 	bne	r4,r2,8009d0 <__divsf3+0xac>
  800990:	29000726 	beq	r5,r4,8009b0 <__divsf3+0x8c>
  800994:	8809883a 	mov	r4,r17
  800998:	080152c0 	call	80152c <__pack_f>
  80099c:	dfc00c17 	ldw	ra,48(sp)
  8009a0:	dc400b17 	ldw	r17,44(sp)
  8009a4:	dc000a17 	ldw	r16,40(sp)
  8009a8:	dec00d04 	addi	sp,sp,52
  8009ac:	f800283a 	ret
  8009b0:	01002074 	movhi	r4,129
  8009b4:	21264804 	addi	r4,r4,-26336
  8009b8:	080152c0 	call	80152c <__pack_f>
  8009bc:	dfc00c17 	ldw	ra,48(sp)
  8009c0:	dc400b17 	ldw	r17,44(sp)
  8009c4:	dc000a17 	ldw	r16,40(sp)
  8009c8:	dec00d04 	addi	sp,sp,52
  8009cc:	f800283a 	ret
  8009d0:	29802d26 	beq	r5,r6,800a88 <__divsf3+0x164>
  8009d4:	28801a26 	beq	r5,r2,800a40 <__divsf3+0x11c>
  8009d8:	d8c00417 	ldw	r3,16(sp)
  8009dc:	d8800817 	ldw	r2,32(sp)
  8009e0:	d9000517 	ldw	r4,20(sp)
  8009e4:	d9800917 	ldw	r6,36(sp)
  8009e8:	1885c83a 	sub	r2,r3,r2
  8009ec:	d8800415 	stw	r2,16(sp)
  8009f0:	2180032e 	bgeu	r4,r6,800a00 <__divsf3+0xdc>
  8009f4:	10bfffc4 	addi	r2,r2,-1
  8009f8:	d8800415 	stw	r2,16(sp)
  8009fc:	2109883a 	add	r4,r4,r4
  800a00:	01500034 	movhi	r5,16384
  800a04:	0007883a 	mov	r3,zero
  800a08:	0005883a 	mov	r2,zero
  800a0c:	01c007c4 	movi	r7,31
  800a10:	10800044 	addi	r2,r2,1
  800a14:	21800236 	bltu	r4,r6,800a20 <__divsf3+0xfc>
  800a18:	1946b03a 	or	r3,r3,r5
  800a1c:	2189c83a 	sub	r4,r4,r6
  800a20:	280ad07a 	srli	r5,r5,1
  800a24:	2109883a 	add	r4,r4,r4
  800a28:	11fff91e 	bne	r2,r7,800a10 <__divsf3+0xec>
  800a2c:	19401fcc 	andi	r5,r3,127
  800a30:	00801004 	movi	r2,64
  800a34:	28800a26 	beq	r5,r2,800a60 <__divsf3+0x13c>
  800a38:	d8c00515 	stw	r3,20(sp)
  800a3c:	003fd506 	br	800994 <__divsf3+0x70>
  800a40:	8809883a 	mov	r4,r17
  800a44:	d9800215 	stw	r6,8(sp)
  800a48:	080152c0 	call	80152c <__pack_f>
  800a4c:	dfc00c17 	ldw	ra,48(sp)
  800a50:	dc400b17 	ldw	r17,44(sp)
  800a54:	dc000a17 	ldw	r16,40(sp)
  800a58:	dec00d04 	addi	sp,sp,52
  800a5c:	f800283a 	ret
  800a60:	1880200c 	andi	r2,r3,128
  800a64:	103ff41e 	bne	r2,zero,800a38 <__divsf3+0x114>
  800a68:	203ff326 	beq	r4,zero,800a38 <__divsf3+0x114>
  800a6c:	1947883a 	add	r3,r3,r5
  800a70:	00bfe004 	movi	r2,-128
  800a74:	1886703a 	and	r3,r3,r2
  800a78:	d8c00515 	stw	r3,20(sp)
  800a7c:	003fc506 	br	800994 <__divsf3+0x70>
  800a80:	8009883a 	mov	r4,r16
  800a84:	003fc406 	br	800998 <__divsf3+0x74>
  800a88:	8809883a 	mov	r4,r17
  800a8c:	d8000515 	stw	zero,20(sp)
  800a90:	d8000415 	stw	zero,16(sp)
  800a94:	003fc006 	br	800998 <__divsf3+0x74>

00800a98 <__floatsisf>:
  800a98:	2006d7fa 	srli	r3,r4,31
  800a9c:	defffa04 	addi	sp,sp,-24
  800aa0:	008000c4 	movi	r2,3
  800aa4:	dfc00515 	stw	ra,20(sp)
  800aa8:	dc000415 	stw	r16,16(sp)
  800aac:	d8800015 	stw	r2,0(sp)
  800ab0:	d8c00115 	stw	r3,4(sp)
  800ab4:	2000081e 	bne	r4,zero,800ad8 <__floatsisf+0x40>
  800ab8:	00800084 	movi	r2,2
  800abc:	d8800015 	stw	r2,0(sp)
  800ac0:	d809883a 	mov	r4,sp
  800ac4:	080152c0 	call	80152c <__pack_f>
  800ac8:	dfc00517 	ldw	ra,20(sp)
  800acc:	dc000417 	ldw	r16,16(sp)
  800ad0:	dec00604 	addi	sp,sp,24
  800ad4:	f800283a 	ret
  800ad8:	00800784 	movi	r2,30
  800adc:	1807003a 	cmpeq	r3,r3,zero
  800ae0:	d8800215 	stw	r2,8(sp)
  800ae4:	18000e1e 	bne	r3,zero,800b20 <__floatsisf+0x88>
  800ae8:	00a00034 	movhi	r2,32768
  800aec:	20800e26 	beq	r4,r2,800b28 <__floatsisf+0x90>
  800af0:	0121c83a 	sub	r16,zero,r4
  800af4:	8009883a 	mov	r4,r16
  800af8:	dc000315 	stw	r16,12(sp)
  800afc:	08014ac0 	call	8014ac <__clzsi2>
  800b00:	117fffc4 	addi	r5,r2,-1
  800b04:	017fee0e 	bge	zero,r5,800ac0 <__floatsisf+0x28>
  800b08:	d8800217 	ldw	r2,8(sp)
  800b0c:	8146983a 	sll	r3,r16,r5
  800b10:	1145c83a 	sub	r2,r2,r5
  800b14:	d8c00315 	stw	r3,12(sp)
  800b18:	d8800215 	stw	r2,8(sp)
  800b1c:	003fe806 	br	800ac0 <__floatsisf+0x28>
  800b20:	2021883a 	mov	r16,r4
  800b24:	003ff306 	br	800af4 <__floatsisf+0x5c>
  800b28:	00b3c034 	movhi	r2,52992
  800b2c:	003fe606 	br	800ac8 <__floatsisf+0x30>

00800b30 <__extendsfdf2>:
  800b30:	defff904 	addi	sp,sp,-28
  800b34:	d9000115 	stw	r4,4(sp)
  800b38:	d9400204 	addi	r5,sp,8
  800b3c:	d9000104 	addi	r4,sp,4
  800b40:	dfc00615 	stw	ra,24(sp)
  800b44:	080168c0 	call	80168c <__unpack_f>
  800b48:	d9c00517 	ldw	r7,20(sp)
  800b4c:	0011883a 	mov	r8,zero
  800b50:	400697ba 	slli	r3,r8,30
  800b54:	3812d0ba 	srli	r9,r7,2
  800b58:	380497ba 	slli	r2,r7,30
  800b5c:	d9000217 	ldw	r4,8(sp)
  800b60:	d9400317 	ldw	r5,12(sp)
  800b64:	d9800417 	ldw	r6,16(sp)
  800b68:	48c6b03a 	or	r3,r9,r3
  800b6c:	100f883a 	mov	r7,r2
  800b70:	d8c00015 	stw	r3,0(sp)
  800b74:	08012e00 	call	8012e0 <__make_dp>
  800b78:	dfc00617 	ldw	ra,24(sp)
  800b7c:	dec00704 	addi	sp,sp,28
  800b80:	f800283a 	ret

00800b84 <_fpadd_parts>:
  800b84:	defff804 	addi	sp,sp,-32
  800b88:	dcc00315 	stw	r19,12(sp)
  800b8c:	2027883a 	mov	r19,r4
  800b90:	21000017 	ldw	r4,0(r4)
  800b94:	00c00044 	movi	r3,1
  800b98:	dd400515 	stw	r21,20(sp)
  800b9c:	dd000415 	stw	r20,16(sp)
  800ba0:	ddc00715 	stw	r23,28(sp)
  800ba4:	dd800615 	stw	r22,24(sp)
  800ba8:	dc800215 	stw	r18,8(sp)
  800bac:	dc400115 	stw	r17,4(sp)
  800bb0:	dc000015 	stw	r16,0(sp)
  800bb4:	282b883a 	mov	r21,r5
  800bb8:	3029883a 	mov	r20,r6
  800bbc:	1900632e 	bgeu	r3,r4,800d4c <_fpadd_parts+0x1c8>
  800bc0:	28800017 	ldw	r2,0(r5)
  800bc4:	1880812e 	bgeu	r3,r2,800dcc <_fpadd_parts+0x248>
  800bc8:	00c00104 	movi	r3,4
  800bcc:	20c0dc26 	beq	r4,r3,800f40 <_fpadd_parts+0x3bc>
  800bd0:	10c07e26 	beq	r2,r3,800dcc <_fpadd_parts+0x248>
  800bd4:	00c00084 	movi	r3,2
  800bd8:	10c06726 	beq	r2,r3,800d78 <_fpadd_parts+0x1f4>
  800bdc:	20c07b26 	beq	r4,r3,800dcc <_fpadd_parts+0x248>
  800be0:	9dc00217 	ldw	r23,8(r19)
  800be4:	28c00217 	ldw	r3,8(r5)
  800be8:	9c400317 	ldw	r17,12(r19)
  800bec:	2bc00317 	ldw	r15,12(r5)
  800bf0:	b8cdc83a 	sub	r6,r23,r3
  800bf4:	9c800417 	ldw	r18,16(r19)
  800bf8:	2c000417 	ldw	r16,16(r5)
  800bfc:	3009883a 	mov	r4,r6
  800c00:	30009716 	blt	r6,zero,800e60 <_fpadd_parts+0x2dc>
  800c04:	00800fc4 	movi	r2,63
  800c08:	11806b16 	blt	r2,r6,800db8 <_fpadd_parts+0x234>
  800c0c:	0100a40e 	bge	zero,r4,800ea0 <_fpadd_parts+0x31c>
  800c10:	35bff804 	addi	r22,r6,-32
  800c14:	b000bc16 	blt	r22,zero,800f08 <_fpadd_parts+0x384>
  800c18:	8596d83a 	srl	r11,r16,r22
  800c1c:	0019883a 	mov	r12,zero
  800c20:	0013883a 	mov	r9,zero
  800c24:	01000044 	movi	r4,1
  800c28:	0015883a 	mov	r10,zero
  800c2c:	b000be16 	blt	r22,zero,800f28 <_fpadd_parts+0x3a4>
  800c30:	2590983a 	sll	r8,r4,r22
  800c34:	000f883a 	mov	r7,zero
  800c38:	00bfffc4 	movi	r2,-1
  800c3c:	3889883a 	add	r4,r7,r2
  800c40:	408b883a 	add	r5,r8,r2
  800c44:	21cd803a 	cmpltu	r6,r4,r7
  800c48:	314b883a 	add	r5,r6,r5
  800c4c:	7904703a 	and	r2,r15,r4
  800c50:	8146703a 	and	r3,r16,r5
  800c54:	10c4b03a 	or	r2,r2,r3
  800c58:	10000226 	beq	r2,zero,800c64 <_fpadd_parts+0xe0>
  800c5c:	02400044 	movi	r9,1
  800c60:	0015883a 	mov	r10,zero
  800c64:	5a5eb03a 	or	r15,r11,r9
  800c68:	62a0b03a 	or	r16,r12,r10
  800c6c:	99400117 	ldw	r5,4(r19)
  800c70:	a8800117 	ldw	r2,4(r21)
  800c74:	28806e26 	beq	r5,r2,800e30 <_fpadd_parts+0x2ac>
  800c78:	28006626 	beq	r5,zero,800e14 <_fpadd_parts+0x290>
  800c7c:	7c45c83a 	sub	r2,r15,r17
  800c80:	7889803a 	cmpltu	r4,r15,r2
  800c84:	8487c83a 	sub	r3,r16,r18
  800c88:	1909c83a 	sub	r4,r3,r4
  800c8c:	100d883a 	mov	r6,r2
  800c90:	200f883a 	mov	r7,r4
  800c94:	38007716 	blt	r7,zero,800e74 <_fpadd_parts+0x2f0>
  800c98:	a5c00215 	stw	r23,8(r20)
  800c9c:	a1c00415 	stw	r7,16(r20)
  800ca0:	a0000115 	stw	zero,4(r20)
  800ca4:	a1800315 	stw	r6,12(r20)
  800ca8:	a2000317 	ldw	r8,12(r20)
  800cac:	a2400417 	ldw	r9,16(r20)
  800cb0:	00bfffc4 	movi	r2,-1
  800cb4:	408b883a 	add	r5,r8,r2
  800cb8:	2a09803a 	cmpltu	r4,r5,r8
  800cbc:	488d883a 	add	r6,r9,r2
  800cc0:	01c40034 	movhi	r7,4096
  800cc4:	39ffffc4 	addi	r7,r7,-1
  800cc8:	218d883a 	add	r6,r4,r6
  800ccc:	39801736 	bltu	r7,r6,800d2c <_fpadd_parts+0x1a8>
  800cd0:	31c06526 	beq	r6,r7,800e68 <_fpadd_parts+0x2e4>
  800cd4:	a3000217 	ldw	r12,8(r20)
  800cd8:	4209883a 	add	r4,r8,r8
  800cdc:	00bfffc4 	movi	r2,-1
  800ce0:	220f803a 	cmpltu	r7,r4,r8
  800ce4:	4a4b883a 	add	r5,r9,r9
  800ce8:	394f883a 	add	r7,r7,r5
  800cec:	2095883a 	add	r10,r4,r2
  800cf0:	3897883a 	add	r11,r7,r2
  800cf4:	510d803a 	cmpltu	r6,r10,r4
  800cf8:	6099883a 	add	r12,r12,r2
  800cfc:	32d7883a 	add	r11,r6,r11
  800d00:	00840034 	movhi	r2,4096
  800d04:	10bfffc4 	addi	r2,r2,-1
  800d08:	2011883a 	mov	r8,r4
  800d0c:	3813883a 	mov	r9,r7
  800d10:	a1000315 	stw	r4,12(r20)
  800d14:	a1c00415 	stw	r7,16(r20)
  800d18:	a3000215 	stw	r12,8(r20)
  800d1c:	12c00336 	bltu	r2,r11,800d2c <_fpadd_parts+0x1a8>
  800d20:	58bfed1e 	bne	r11,r2,800cd8 <_fpadd_parts+0x154>
  800d24:	00bfff84 	movi	r2,-2
  800d28:	12bfeb2e 	bgeu	r2,r10,800cd8 <_fpadd_parts+0x154>
  800d2c:	a2800417 	ldw	r10,16(r20)
  800d30:	008000c4 	movi	r2,3
  800d34:	00c80034 	movhi	r3,8192
  800d38:	18ffffc4 	addi	r3,r3,-1
  800d3c:	a2400317 	ldw	r9,12(r20)
  800d40:	a0800015 	stw	r2,0(r20)
  800d44:	1a802336 	bltu	r3,r10,800dd4 <_fpadd_parts+0x250>
  800d48:	a027883a 	mov	r19,r20
  800d4c:	9805883a 	mov	r2,r19
  800d50:	ddc00717 	ldw	r23,28(sp)
  800d54:	dd800617 	ldw	r22,24(sp)
  800d58:	dd400517 	ldw	r21,20(sp)
  800d5c:	dd000417 	ldw	r20,16(sp)
  800d60:	dcc00317 	ldw	r19,12(sp)
  800d64:	dc800217 	ldw	r18,8(sp)
  800d68:	dc400117 	ldw	r17,4(sp)
  800d6c:	dc000017 	ldw	r16,0(sp)
  800d70:	dec00804 	addi	sp,sp,32
  800d74:	f800283a 	ret
  800d78:	20fff41e 	bne	r4,r3,800d4c <_fpadd_parts+0x1c8>
  800d7c:	31000015 	stw	r4,0(r6)
  800d80:	98800117 	ldw	r2,4(r19)
  800d84:	30800115 	stw	r2,4(r6)
  800d88:	98c00217 	ldw	r3,8(r19)
  800d8c:	30c00215 	stw	r3,8(r6)
  800d90:	98800317 	ldw	r2,12(r19)
  800d94:	30800315 	stw	r2,12(r6)
  800d98:	98c00417 	ldw	r3,16(r19)
  800d9c:	30c00415 	stw	r3,16(r6)
  800da0:	98800117 	ldw	r2,4(r19)
  800da4:	28c00117 	ldw	r3,4(r5)
  800da8:	3027883a 	mov	r19,r6
  800dac:	10c4703a 	and	r2,r2,r3
  800db0:	30800115 	stw	r2,4(r6)
  800db4:	003fe506 	br	800d4c <_fpadd_parts+0x1c8>
  800db8:	1dc02616 	blt	r3,r23,800e54 <_fpadd_parts+0x2d0>
  800dbc:	0023883a 	mov	r17,zero
  800dc0:	182f883a 	mov	r23,r3
  800dc4:	0025883a 	mov	r18,zero
  800dc8:	003fa806 	br	800c6c <_fpadd_parts+0xe8>
  800dcc:	a827883a 	mov	r19,r21
  800dd0:	003fde06 	br	800d4c <_fpadd_parts+0x1c8>
  800dd4:	01800044 	movi	r6,1
  800dd8:	500497fa 	slli	r2,r10,31
  800ddc:	4808d07a 	srli	r4,r9,1
  800de0:	518ad83a 	srl	r5,r10,r6
  800de4:	a2000217 	ldw	r8,8(r20)
  800de8:	1108b03a 	or	r4,r2,r4
  800dec:	0007883a 	mov	r3,zero
  800df0:	4984703a 	and	r2,r9,r6
  800df4:	208cb03a 	or	r6,r4,r2
  800df8:	28ceb03a 	or	r7,r5,r3
  800dfc:	42000044 	addi	r8,r8,1
  800e00:	a027883a 	mov	r19,r20
  800e04:	a1c00415 	stw	r7,16(r20)
  800e08:	a2000215 	stw	r8,8(r20)
  800e0c:	a1800315 	stw	r6,12(r20)
  800e10:	003fce06 	br	800d4c <_fpadd_parts+0x1c8>
  800e14:	8bc5c83a 	sub	r2,r17,r15
  800e18:	8889803a 	cmpltu	r4,r17,r2
  800e1c:	9407c83a 	sub	r3,r18,r16
  800e20:	1909c83a 	sub	r4,r3,r4
  800e24:	100d883a 	mov	r6,r2
  800e28:	200f883a 	mov	r7,r4
  800e2c:	003f9906 	br	800c94 <_fpadd_parts+0x110>
  800e30:	7c45883a 	add	r2,r15,r17
  800e34:	13c9803a 	cmpltu	r4,r2,r15
  800e38:	8487883a 	add	r3,r16,r18
  800e3c:	20c9883a 	add	r4,r4,r3
  800e40:	a1400115 	stw	r5,4(r20)
  800e44:	a5c00215 	stw	r23,8(r20)
  800e48:	a0800315 	stw	r2,12(r20)
  800e4c:	a1000415 	stw	r4,16(r20)
  800e50:	003fb606 	br	800d2c <_fpadd_parts+0x1a8>
  800e54:	001f883a 	mov	r15,zero
  800e58:	0021883a 	mov	r16,zero
  800e5c:	003f8306 	br	800c6c <_fpadd_parts+0xe8>
  800e60:	018dc83a 	sub	r6,zero,r6
  800e64:	003f6706 	br	800c04 <_fpadd_parts+0x80>
  800e68:	00bfff84 	movi	r2,-2
  800e6c:	117faf36 	bltu	r2,r5,800d2c <_fpadd_parts+0x1a8>
  800e70:	003f9806 	br	800cd4 <_fpadd_parts+0x150>
  800e74:	0005883a 	mov	r2,zero
  800e78:	1189c83a 	sub	r4,r2,r6
  800e7c:	1105803a 	cmpltu	r2,r2,r4
  800e80:	01cbc83a 	sub	r5,zero,r7
  800e84:	2885c83a 	sub	r2,r5,r2
  800e88:	01800044 	movi	r6,1
  800e8c:	a1800115 	stw	r6,4(r20)
  800e90:	a5c00215 	stw	r23,8(r20)
  800e94:	a1000315 	stw	r4,12(r20)
  800e98:	a0800415 	stw	r2,16(r20)
  800e9c:	003f8206 	br	800ca8 <_fpadd_parts+0x124>
  800ea0:	203f7226 	beq	r4,zero,800c6c <_fpadd_parts+0xe8>
  800ea4:	35bff804 	addi	r22,r6,-32
  800ea8:	b9af883a 	add	r23,r23,r6
  800eac:	b0003116 	blt	r22,zero,800f74 <_fpadd_parts+0x3f0>
  800eb0:	959ad83a 	srl	r13,r18,r22
  800eb4:	001d883a 	mov	r14,zero
  800eb8:	000f883a 	mov	r7,zero
  800ebc:	01000044 	movi	r4,1
  800ec0:	0011883a 	mov	r8,zero
  800ec4:	b0002516 	blt	r22,zero,800f5c <_fpadd_parts+0x3d8>
  800ec8:	2594983a 	sll	r10,r4,r22
  800ecc:	0013883a 	mov	r9,zero
  800ed0:	00bfffc4 	movi	r2,-1
  800ed4:	4889883a 	add	r4,r9,r2
  800ed8:	508b883a 	add	r5,r10,r2
  800edc:	224d803a 	cmpltu	r6,r4,r9
  800ee0:	314b883a 	add	r5,r6,r5
  800ee4:	8904703a 	and	r2,r17,r4
  800ee8:	9146703a 	and	r3,r18,r5
  800eec:	10c4b03a 	or	r2,r2,r3
  800ef0:	10000226 	beq	r2,zero,800efc <_fpadd_parts+0x378>
  800ef4:	01c00044 	movi	r7,1
  800ef8:	0011883a 	mov	r8,zero
  800efc:	69e2b03a 	or	r17,r13,r7
  800f00:	7224b03a 	or	r18,r14,r8
  800f04:	003f5906 	br	800c6c <_fpadd_parts+0xe8>
  800f08:	8407883a 	add	r3,r16,r16
  800f0c:	008007c4 	movi	r2,31
  800f10:	1185c83a 	sub	r2,r2,r6
  800f14:	1886983a 	sll	r3,r3,r2
  800f18:	7996d83a 	srl	r11,r15,r6
  800f1c:	8198d83a 	srl	r12,r16,r6
  800f20:	1ad6b03a 	or	r11,r3,r11
  800f24:	003f3e06 	br	800c20 <_fpadd_parts+0x9c>
  800f28:	2006d07a 	srli	r3,r4,1
  800f2c:	008007c4 	movi	r2,31
  800f30:	1185c83a 	sub	r2,r2,r6
  800f34:	1890d83a 	srl	r8,r3,r2
  800f38:	218e983a 	sll	r7,r4,r6
  800f3c:	003f3e06 	br	800c38 <_fpadd_parts+0xb4>
  800f40:	113f821e 	bne	r2,r4,800d4c <_fpadd_parts+0x1c8>
  800f44:	28c00117 	ldw	r3,4(r5)
  800f48:	98800117 	ldw	r2,4(r19)
  800f4c:	10ff7f26 	beq	r2,r3,800d4c <_fpadd_parts+0x1c8>
  800f50:	04c02074 	movhi	r19,129
  800f54:	9ce64c04 	addi	r19,r19,-26320
  800f58:	003f7c06 	br	800d4c <_fpadd_parts+0x1c8>
  800f5c:	2006d07a 	srli	r3,r4,1
  800f60:	008007c4 	movi	r2,31
  800f64:	1185c83a 	sub	r2,r2,r6
  800f68:	1894d83a 	srl	r10,r3,r2
  800f6c:	2192983a 	sll	r9,r4,r6
  800f70:	003fd706 	br	800ed0 <_fpadd_parts+0x34c>
  800f74:	9487883a 	add	r3,r18,r18
  800f78:	008007c4 	movi	r2,31
  800f7c:	1185c83a 	sub	r2,r2,r6
  800f80:	1886983a 	sll	r3,r3,r2
  800f84:	899ad83a 	srl	r13,r17,r6
  800f88:	919cd83a 	srl	r14,r18,r6
  800f8c:	1b5ab03a 	or	r13,r3,r13
  800f90:	003fc906 	br	800eb8 <_fpadd_parts+0x334>

00800f94 <__subdf3>:
  800f94:	deffea04 	addi	sp,sp,-88
  800f98:	dcc01415 	stw	r19,80(sp)
  800f9c:	dcc00404 	addi	r19,sp,16
  800fa0:	2011883a 	mov	r8,r4
  800fa4:	2813883a 	mov	r9,r5
  800fa8:	dc401315 	stw	r17,76(sp)
  800fac:	d809883a 	mov	r4,sp
  800fb0:	980b883a 	mov	r5,r19
  800fb4:	dc400904 	addi	r17,sp,36
  800fb8:	dfc01515 	stw	ra,84(sp)
  800fbc:	da400115 	stw	r9,4(sp)
  800fc0:	d9c00315 	stw	r7,12(sp)
  800fc4:	da000015 	stw	r8,0(sp)
  800fc8:	d9800215 	stw	r6,8(sp)
  800fcc:	0801a680 	call	801a68 <__unpack_d>
  800fd0:	d9000204 	addi	r4,sp,8
  800fd4:	880b883a 	mov	r5,r17
  800fd8:	0801a680 	call	801a68 <__unpack_d>
  800fdc:	d8800a17 	ldw	r2,40(sp)
  800fe0:	880b883a 	mov	r5,r17
  800fe4:	9809883a 	mov	r4,r19
  800fe8:	d9800e04 	addi	r6,sp,56
  800fec:	1080005c 	xori	r2,r2,1
  800ff0:	d8800a15 	stw	r2,40(sp)
  800ff4:	0800b840 	call	800b84 <_fpadd_parts>
  800ff8:	1009883a 	mov	r4,r2
  800ffc:	08017540 	call	801754 <__pack_d>
  801000:	dfc01517 	ldw	ra,84(sp)
  801004:	dcc01417 	ldw	r19,80(sp)
  801008:	dc401317 	ldw	r17,76(sp)
  80100c:	dec01604 	addi	sp,sp,88
  801010:	f800283a 	ret

00801014 <__adddf3>:
  801014:	deffea04 	addi	sp,sp,-88
  801018:	dcc01415 	stw	r19,80(sp)
  80101c:	dcc00404 	addi	r19,sp,16
  801020:	2011883a 	mov	r8,r4
  801024:	2813883a 	mov	r9,r5
  801028:	dc401315 	stw	r17,76(sp)
  80102c:	d809883a 	mov	r4,sp
  801030:	980b883a 	mov	r5,r19
  801034:	dc400904 	addi	r17,sp,36
  801038:	dfc01515 	stw	ra,84(sp)
  80103c:	da400115 	stw	r9,4(sp)
  801040:	d9c00315 	stw	r7,12(sp)
  801044:	da000015 	stw	r8,0(sp)
  801048:	d9800215 	stw	r6,8(sp)
  80104c:	0801a680 	call	801a68 <__unpack_d>
  801050:	d9000204 	addi	r4,sp,8
  801054:	880b883a 	mov	r5,r17
  801058:	0801a680 	call	801a68 <__unpack_d>
  80105c:	d9800e04 	addi	r6,sp,56
  801060:	9809883a 	mov	r4,r19
  801064:	880b883a 	mov	r5,r17
  801068:	0800b840 	call	800b84 <_fpadd_parts>
  80106c:	1009883a 	mov	r4,r2
  801070:	08017540 	call	801754 <__pack_d>
  801074:	dfc01517 	ldw	ra,84(sp)
  801078:	dcc01417 	ldw	r19,80(sp)
  80107c:	dc401317 	ldw	r17,76(sp)
  801080:	dec01604 	addi	sp,sp,88
  801084:	f800283a 	ret

00801088 <__divdf3>:
  801088:	deffed04 	addi	sp,sp,-76
  80108c:	dcc01115 	stw	r19,68(sp)
  801090:	dcc00404 	addi	r19,sp,16
  801094:	2011883a 	mov	r8,r4
  801098:	2813883a 	mov	r9,r5
  80109c:	dc000e15 	stw	r16,56(sp)
  8010a0:	d809883a 	mov	r4,sp
  8010a4:	980b883a 	mov	r5,r19
  8010a8:	dc000904 	addi	r16,sp,36
  8010ac:	dfc01215 	stw	ra,72(sp)
  8010b0:	da400115 	stw	r9,4(sp)
  8010b4:	d9c00315 	stw	r7,12(sp)
  8010b8:	da000015 	stw	r8,0(sp)
  8010bc:	d9800215 	stw	r6,8(sp)
  8010c0:	dc801015 	stw	r18,64(sp)
  8010c4:	dc400f15 	stw	r17,60(sp)
  8010c8:	0801a680 	call	801a68 <__unpack_d>
  8010cc:	d9000204 	addi	r4,sp,8
  8010d0:	800b883a 	mov	r5,r16
  8010d4:	0801a680 	call	801a68 <__unpack_d>
  8010d8:	d9000417 	ldw	r4,16(sp)
  8010dc:	00800044 	movi	r2,1
  8010e0:	11000b2e 	bgeu	r2,r4,801110 <__divdf3+0x88>
  8010e4:	d9400917 	ldw	r5,36(sp)
  8010e8:	1140762e 	bgeu	r2,r5,8012c4 <__divdf3+0x23c>
  8010ec:	d8800517 	ldw	r2,20(sp)
  8010f0:	d8c00a17 	ldw	r3,40(sp)
  8010f4:	01800104 	movi	r6,4
  8010f8:	10c4f03a 	xor	r2,r2,r3
  8010fc:	d8800515 	stw	r2,20(sp)
  801100:	21800226 	beq	r4,r6,80110c <__divdf3+0x84>
  801104:	00800084 	movi	r2,2
  801108:	2080141e 	bne	r4,r2,80115c <__divdf3+0xd4>
  80110c:	29000926 	beq	r5,r4,801134 <__divdf3+0xac>
  801110:	9809883a 	mov	r4,r19
  801114:	08017540 	call	801754 <__pack_d>
  801118:	dfc01217 	ldw	ra,72(sp)
  80111c:	dcc01117 	ldw	r19,68(sp)
  801120:	dc801017 	ldw	r18,64(sp)
  801124:	dc400f17 	ldw	r17,60(sp)
  801128:	dc000e17 	ldw	r16,56(sp)
  80112c:	dec01304 	addi	sp,sp,76
  801130:	f800283a 	ret
  801134:	01002074 	movhi	r4,129
  801138:	21264c04 	addi	r4,r4,-26320
  80113c:	08017540 	call	801754 <__pack_d>
  801140:	dfc01217 	ldw	ra,72(sp)
  801144:	dcc01117 	ldw	r19,68(sp)
  801148:	dc801017 	ldw	r18,64(sp)
  80114c:	dc400f17 	ldw	r17,60(sp)
  801150:	dc000e17 	ldw	r16,56(sp)
  801154:	dec01304 	addi	sp,sp,76
  801158:	f800283a 	ret
  80115c:	29805b26 	beq	r5,r6,8012cc <__divdf3+0x244>
  801160:	28802d26 	beq	r5,r2,801218 <__divdf3+0x190>
  801164:	d8c00617 	ldw	r3,24(sp)
  801168:	d8800b17 	ldw	r2,44(sp)
  80116c:	d9c00817 	ldw	r7,32(sp)
  801170:	dc400d17 	ldw	r17,52(sp)
  801174:	188bc83a 	sub	r5,r3,r2
  801178:	d9800717 	ldw	r6,28(sp)
  80117c:	dc000c17 	ldw	r16,48(sp)
  801180:	d9400615 	stw	r5,24(sp)
  801184:	3c403836 	bltu	r7,r17,801268 <__divdf3+0x1e0>
  801188:	89c03626 	beq	r17,r7,801264 <__divdf3+0x1dc>
  80118c:	0015883a 	mov	r10,zero
  801190:	001d883a 	mov	r14,zero
  801194:	02c40034 	movhi	r11,4096
  801198:	001f883a 	mov	r15,zero
  80119c:	003f883a 	mov	ra,zero
  8011a0:	04800f44 	movi	r18,61
  8011a4:	00000f06 	br	8011e4 <__divdf3+0x15c>
  8011a8:	601d883a 	mov	r14,r12
  8011ac:	681f883a 	mov	r15,r13
  8011b0:	400d883a 	mov	r6,r8
  8011b4:	100f883a 	mov	r7,r2
  8011b8:	3191883a 	add	r8,r6,r6
  8011bc:	5808d07a 	srli	r4,r11,1
  8011c0:	4185803a 	cmpltu	r2,r8,r6
  8011c4:	39d3883a 	add	r9,r7,r7
  8011c8:	28c6b03a 	or	r3,r5,r3
  8011cc:	1245883a 	add	r2,r2,r9
  8011d0:	1815883a 	mov	r10,r3
  8011d4:	2017883a 	mov	r11,r4
  8011d8:	400d883a 	mov	r6,r8
  8011dc:	100f883a 	mov	r7,r2
  8011e0:	fc801726 	beq	ra,r18,801240 <__divdf3+0x1b8>
  8011e4:	580a97fa 	slli	r5,r11,31
  8011e8:	5006d07a 	srli	r3,r10,1
  8011ec:	ffc00044 	addi	ra,ra,1
  8011f0:	3c7ff136 	bltu	r7,r17,8011b8 <__divdf3+0x130>
  8011f4:	3411c83a 	sub	r8,r6,r16
  8011f8:	3205803a 	cmpltu	r2,r6,r8
  8011fc:	3c53c83a 	sub	r9,r7,r17
  801200:	7298b03a 	or	r12,r14,r10
  801204:	7adab03a 	or	r13,r15,r11
  801208:	4885c83a 	sub	r2,r9,r2
  80120c:	89ffe61e 	bne	r17,r7,8011a8 <__divdf3+0x120>
  801210:	343fe936 	bltu	r6,r16,8011b8 <__divdf3+0x130>
  801214:	003fe406 	br	8011a8 <__divdf3+0x120>
  801218:	9809883a 	mov	r4,r19
  80121c:	d9800415 	stw	r6,16(sp)
  801220:	08017540 	call	801754 <__pack_d>
  801224:	dfc01217 	ldw	ra,72(sp)
  801228:	dcc01117 	ldw	r19,68(sp)
  80122c:	dc801017 	ldw	r18,64(sp)
  801230:	dc400f17 	ldw	r17,60(sp)
  801234:	dc000e17 	ldw	r16,56(sp)
  801238:	dec01304 	addi	sp,sp,76
  80123c:	f800283a 	ret
  801240:	00803fc4 	movi	r2,255
  801244:	7090703a 	and	r8,r14,r2
  801248:	00802004 	movi	r2,128
  80124c:	0007883a 	mov	r3,zero
  801250:	0013883a 	mov	r9,zero
  801254:	40800d26 	beq	r8,r2,80128c <__divdf3+0x204>
  801258:	dbc00815 	stw	r15,32(sp)
  80125c:	db800715 	stw	r14,28(sp)
  801260:	003fab06 	br	801110 <__divdf3+0x88>
  801264:	343fc92e 	bgeu	r6,r16,80118c <__divdf3+0x104>
  801268:	3185883a 	add	r2,r6,r6
  80126c:	1189803a 	cmpltu	r4,r2,r6
  801270:	39c7883a 	add	r3,r7,r7
  801274:	20c9883a 	add	r4,r4,r3
  801278:	297fffc4 	addi	r5,r5,-1
  80127c:	100d883a 	mov	r6,r2
  801280:	200f883a 	mov	r7,r4
  801284:	d9400615 	stw	r5,24(sp)
  801288:	003fc006 	br	80118c <__divdf3+0x104>
  80128c:	483ff21e 	bne	r9,zero,801258 <__divdf3+0x1d0>
  801290:	01004004 	movi	r4,256
  801294:	7104703a 	and	r2,r14,r4
  801298:	10c4b03a 	or	r2,r2,r3
  80129c:	103fee1e 	bne	r2,zero,801258 <__divdf3+0x1d0>
  8012a0:	31c4b03a 	or	r2,r6,r7
  8012a4:	103fec26 	beq	r2,zero,801258 <__divdf3+0x1d0>
  8012a8:	7205883a 	add	r2,r14,r8
  8012ac:	1391803a 	cmpltu	r8,r2,r14
  8012b0:	43d1883a 	add	r8,r8,r15
  8012b4:	013fc004 	movi	r4,-256
  8012b8:	111c703a 	and	r14,r2,r4
  8012bc:	401f883a 	mov	r15,r8
  8012c0:	003fe506 	br	801258 <__divdf3+0x1d0>
  8012c4:	8009883a 	mov	r4,r16
  8012c8:	003f9206 	br	801114 <__divdf3+0x8c>
  8012cc:	9809883a 	mov	r4,r19
  8012d0:	d8000715 	stw	zero,28(sp)
  8012d4:	d8000815 	stw	zero,32(sp)
  8012d8:	d8000615 	stw	zero,24(sp)
  8012dc:	003f8d06 	br	801114 <__divdf3+0x8c>

008012e0 <__make_dp>:
  8012e0:	defff904 	addi	sp,sp,-28
  8012e4:	d8c00717 	ldw	r3,28(sp)
  8012e8:	d9000015 	stw	r4,0(sp)
  8012ec:	d809883a 	mov	r4,sp
  8012f0:	dfc00515 	stw	ra,20(sp)
  8012f4:	d9c00615 	stw	r7,24(sp)
  8012f8:	d9400115 	stw	r5,4(sp)
  8012fc:	d9800215 	stw	r6,8(sp)
  801300:	d8c00415 	stw	r3,16(sp)
  801304:	d9c00315 	stw	r7,12(sp)
  801308:	08017540 	call	801754 <__pack_d>
  80130c:	dfc00517 	ldw	ra,20(sp)
  801310:	dec00704 	addi	sp,sp,28
  801314:	f800283a 	ret

00801318 <__floatunsidf>:
  801318:	defff204 	addi	sp,sp,-56
  80131c:	dfc00d15 	stw	ra,52(sp)
  801320:	ddc00c15 	stw	r23,48(sp)
  801324:	dd800b15 	stw	r22,44(sp)
  801328:	dd400a15 	stw	r21,40(sp)
  80132c:	dd000915 	stw	r20,36(sp)
  801330:	dcc00815 	stw	r19,32(sp)
  801334:	dc800715 	stw	r18,28(sp)
  801338:	dc400615 	stw	r17,24(sp)
  80133c:	dc000515 	stw	r16,20(sp)
  801340:	d8000115 	stw	zero,4(sp)
  801344:	20000f1e 	bne	r4,zero,801384 <__floatunsidf+0x6c>
  801348:	00800084 	movi	r2,2
  80134c:	d8800015 	stw	r2,0(sp)
  801350:	d809883a 	mov	r4,sp
  801354:	08017540 	call	801754 <__pack_d>
  801358:	dfc00d17 	ldw	ra,52(sp)
  80135c:	ddc00c17 	ldw	r23,48(sp)
  801360:	dd800b17 	ldw	r22,44(sp)
  801364:	dd400a17 	ldw	r21,40(sp)
  801368:	dd000917 	ldw	r20,36(sp)
  80136c:	dcc00817 	ldw	r19,32(sp)
  801370:	dc800717 	ldw	r18,28(sp)
  801374:	dc400617 	ldw	r17,24(sp)
  801378:	dc000517 	ldw	r16,20(sp)
  80137c:	dec00e04 	addi	sp,sp,56
  801380:	f800283a 	ret
  801384:	008000c4 	movi	r2,3
  801388:	00c00f04 	movi	r3,60
  80138c:	002f883a 	mov	r23,zero
  801390:	202d883a 	mov	r22,r4
  801394:	d8800015 	stw	r2,0(sp)
  801398:	d8c00215 	stw	r3,8(sp)
  80139c:	d9000315 	stw	r4,12(sp)
  8013a0:	ddc00415 	stw	r23,16(sp)
  8013a4:	08014ac0 	call	8014ac <__clzsi2>
  8013a8:	12400744 	addi	r9,r2,29
  8013ac:	48000b16 	blt	r9,zero,8013dc <__floatunsidf+0xc4>
  8013b0:	483fe726 	beq	r9,zero,801350 <__floatunsidf+0x38>
  8013b4:	10bfff44 	addi	r2,r2,-3
  8013b8:	10002e16 	blt	r2,zero,801474 <__floatunsidf+0x15c>
  8013bc:	b0a2983a 	sll	r17,r22,r2
  8013c0:	0021883a 	mov	r16,zero
  8013c4:	d8800217 	ldw	r2,8(sp)
  8013c8:	dc400415 	stw	r17,16(sp)
  8013cc:	dc000315 	stw	r16,12(sp)
  8013d0:	1245c83a 	sub	r2,r2,r9
  8013d4:	d8800215 	stw	r2,8(sp)
  8013d8:	003fdd06 	br	801350 <__floatunsidf+0x38>
  8013dc:	0255c83a 	sub	r10,zero,r9
  8013e0:	51bff804 	addi	r6,r10,-32
  8013e4:	30001b16 	blt	r6,zero,801454 <__floatunsidf+0x13c>
  8013e8:	b9a8d83a 	srl	r20,r23,r6
  8013ec:	002b883a 	mov	r21,zero
  8013f0:	000f883a 	mov	r7,zero
  8013f4:	01000044 	movi	r4,1
  8013f8:	0011883a 	mov	r8,zero
  8013fc:	30002516 	blt	r6,zero,801494 <__floatunsidf+0x17c>
  801400:	21a6983a 	sll	r19,r4,r6
  801404:	0025883a 	mov	r18,zero
  801408:	00bfffc4 	movi	r2,-1
  80140c:	9089883a 	add	r4,r18,r2
  801410:	988b883a 	add	r5,r19,r2
  801414:	248d803a 	cmpltu	r6,r4,r18
  801418:	314b883a 	add	r5,r6,r5
  80141c:	b104703a 	and	r2,r22,r4
  801420:	b946703a 	and	r3,r23,r5
  801424:	10c4b03a 	or	r2,r2,r3
  801428:	10000226 	beq	r2,zero,801434 <__floatunsidf+0x11c>
  80142c:	01c00044 	movi	r7,1
  801430:	0011883a 	mov	r8,zero
  801434:	d9000217 	ldw	r4,8(sp)
  801438:	a1c4b03a 	or	r2,r20,r7
  80143c:	aa06b03a 	or	r3,r21,r8
  801440:	2249c83a 	sub	r4,r4,r9
  801444:	d8c00415 	stw	r3,16(sp)
  801448:	d9000215 	stw	r4,8(sp)
  80144c:	d8800315 	stw	r2,12(sp)
  801450:	003fbf06 	br	801350 <__floatunsidf+0x38>
  801454:	bdc7883a 	add	r3,r23,r23
  801458:	008007c4 	movi	r2,31
  80145c:	1285c83a 	sub	r2,r2,r10
  801460:	1886983a 	sll	r3,r3,r2
  801464:	b2a8d83a 	srl	r20,r22,r10
  801468:	baaad83a 	srl	r21,r23,r10
  80146c:	1d28b03a 	or	r20,r3,r20
  801470:	003fdf06 	br	8013f0 <__floatunsidf+0xd8>
  801474:	b006d07a 	srli	r3,r22,1
  801478:	008007c4 	movi	r2,31
  80147c:	1245c83a 	sub	r2,r2,r9
  801480:	1886d83a 	srl	r3,r3,r2
  801484:	ba62983a 	sll	r17,r23,r9
  801488:	b260983a 	sll	r16,r22,r9
  80148c:	1c62b03a 	or	r17,r3,r17
  801490:	003fcc06 	br	8013c4 <__floatunsidf+0xac>
  801494:	2006d07a 	srli	r3,r4,1
  801498:	008007c4 	movi	r2,31
  80149c:	1285c83a 	sub	r2,r2,r10
  8014a0:	18a6d83a 	srl	r19,r3,r2
  8014a4:	22a4983a 	sll	r18,r4,r10
  8014a8:	003fd706 	br	801408 <__floatunsidf+0xf0>

008014ac <__clzsi2>:
  8014ac:	00bfffd4 	movui	r2,65535
  8014b0:	11000e36 	bltu	r2,r4,8014ec <__clzsi2+0x40>
  8014b4:	00803fc4 	movi	r2,255
  8014b8:	01400204 	movi	r5,8
  8014bc:	0007883a 	mov	r3,zero
  8014c0:	11001036 	bltu	r2,r4,801504 <__clzsi2+0x58>
  8014c4:	000b883a 	mov	r5,zero
  8014c8:	20c6d83a 	srl	r3,r4,r3
  8014cc:	00802074 	movhi	r2,129
  8014d0:	10a65104 	addi	r2,r2,-26300
  8014d4:	1887883a 	add	r3,r3,r2
  8014d8:	18800003 	ldbu	r2,0(r3)
  8014dc:	00c00804 	movi	r3,32
  8014e0:	2885883a 	add	r2,r5,r2
  8014e4:	1885c83a 	sub	r2,r3,r2
  8014e8:	f800283a 	ret
  8014ec:	01400404 	movi	r5,16
  8014f0:	00804034 	movhi	r2,256
  8014f4:	10bfffc4 	addi	r2,r2,-1
  8014f8:	2807883a 	mov	r3,r5
  8014fc:	113ff22e 	bgeu	r2,r4,8014c8 <__clzsi2+0x1c>
  801500:	01400604 	movi	r5,24
  801504:	2807883a 	mov	r3,r5
  801508:	20c6d83a 	srl	r3,r4,r3
  80150c:	00802074 	movhi	r2,129
  801510:	10a65104 	addi	r2,r2,-26300
  801514:	1887883a 	add	r3,r3,r2
  801518:	18800003 	ldbu	r2,0(r3)
  80151c:	00c00804 	movi	r3,32
  801520:	2885883a 	add	r2,r5,r2
  801524:	1885c83a 	sub	r2,r3,r2
  801528:	f800283a 	ret

0080152c <__pack_f>:
  80152c:	20c00017 	ldw	r3,0(r4)
  801530:	01c00044 	movi	r7,1
  801534:	21800317 	ldw	r6,12(r4)
  801538:	21400117 	ldw	r5,4(r4)
  80153c:	38c02d2e 	bgeu	r7,r3,8015f4 <__pack_f+0xc8>
  801540:	00800104 	movi	r2,4
  801544:	18802826 	beq	r3,r2,8015e8 <__pack_f+0xbc>
  801548:	00800084 	movi	r2,2
  80154c:	18800126 	beq	r3,r2,801554 <__pack_f+0x28>
  801550:	3000101e 	bne	r6,zero,801594 <__pack_f+0x68>
  801554:	000d883a 	mov	r6,zero
  801558:	0007883a 	mov	r3,zero
  80155c:	19003fcc 	andi	r4,r3,255
  801560:	200895fa 	slli	r4,r4,23
  801564:	00c02034 	movhi	r3,128
  801568:	18ffffc4 	addi	r3,r3,-1
  80156c:	30c6703a 	and	r3,r6,r3
  801570:	10a0002c 	andhi	r2,r2,32768
  801574:	10c4b03a 	or	r2,r2,r3
  801578:	280a97fa 	slli	r5,r5,31
  80157c:	1104b03a 	or	r2,r2,r4
  801580:	00e00034 	movhi	r3,32768
  801584:	18ffffc4 	addi	r3,r3,-1
  801588:	10c4703a 	and	r2,r2,r3
  80158c:	1144b03a 	or	r2,r2,r5
  801590:	f800283a 	ret
  801594:	21000217 	ldw	r4,8(r4)
  801598:	00bfe084 	movi	r2,-126
  80159c:	20801b16 	blt	r4,r2,80160c <__pack_f+0xe0>
  8015a0:	00801fc4 	movi	r2,127
  8015a4:	11001016 	blt	r2,r4,8015e8 <__pack_f+0xbc>
  8015a8:	308e703a 	and	r7,r6,r2
  8015ac:	2087883a 	add	r3,r4,r2
  8015b0:	00801004 	movi	r2,64
  8015b4:	38800526 	beq	r7,r2,8015cc <__pack_f+0xa0>
  8015b8:	31800fc4 	addi	r6,r6,63
  8015bc:	30000716 	blt	r6,zero,8015dc <__pack_f+0xb0>
  8015c0:	300490ba 	slli	r2,r6,2
  8015c4:	100cd27a 	srli	r6,r2,9
  8015c8:	003fe406 	br	80155c <__pack_f+0x30>
  8015cc:	3080200c 	andi	r2,r6,128
  8015d0:	103ffa26 	beq	r2,zero,8015bc <__pack_f+0x90>
  8015d4:	31cd883a 	add	r6,r6,r7
  8015d8:	003ff806 	br	8015bc <__pack_f+0x90>
  8015dc:	300cd07a 	srli	r6,r6,1
  8015e0:	18c00044 	addi	r3,r3,1
  8015e4:	003ff606 	br	8015c0 <__pack_f+0x94>
  8015e8:	000d883a 	mov	r6,zero
  8015ec:	00ffffc4 	movi	r3,-1
  8015f0:	003fda06 	br	80155c <__pack_f+0x30>
  8015f4:	31800434 	orhi	r6,r6,16
  8015f8:	00802034 	movhi	r2,128
  8015fc:	10bfffc4 	addi	r2,r2,-1
  801600:	308c703a 	and	r6,r6,r2
  801604:	00ffffc4 	movi	r3,-1
  801608:	003fd406 	br	80155c <__pack_f+0x30>
  80160c:	1109c83a 	sub	r4,r2,r4
  801610:	00800644 	movi	r2,25
  801614:	11001216 	blt	r2,r4,801660 <__pack_f+0x134>
  801618:	3904983a 	sll	r2,r7,r4
  80161c:	3106d83a 	srl	r3,r6,r4
  801620:	10bfffc4 	addi	r2,r2,-1
  801624:	3084703a 	and	r2,r6,r2
  801628:	1004c03a 	cmpne	r2,r2,zero
  80162c:	1886b03a 	or	r3,r3,r2
  801630:	19001fcc 	andi	r4,r3,127
  801634:	00801004 	movi	r2,64
  801638:	20800c26 	beq	r4,r2,80166c <__pack_f+0x140>
  80163c:	18c00fc4 	addi	r3,r3,63
  801640:	00900034 	movhi	r2,16384
  801644:	10bfffc4 	addi	r2,r2,-1
  801648:	180cd1fa 	srli	r6,r3,7
  80164c:	10c7803a 	cmpltu	r3,r2,r3
  801650:	00802034 	movhi	r2,128
  801654:	10bfffc4 	addi	r2,r2,-1
  801658:	308c703a 	and	r6,r6,r2
  80165c:	003fbf06 	br	80155c <__pack_f+0x30>
  801660:	0007883a 	mov	r3,zero
  801664:	000d883a 	mov	r6,zero
  801668:	003ff906 	br	801650 <__pack_f+0x124>
  80166c:	1880200c 	andi	r2,r3,128
  801670:	10000126 	beq	r2,zero,801678 <__pack_f+0x14c>
  801674:	1907883a 	add	r3,r3,r4
  801678:	180cd1fa 	srli	r6,r3,7
  80167c:	00900034 	movhi	r2,16384
  801680:	10bfffc4 	addi	r2,r2,-1
  801684:	10c7803a 	cmpltu	r3,r2,r3
  801688:	003ff106 	br	801650 <__pack_f+0x124>

0080168c <__unpack_f>:
  80168c:	21800017 	ldw	r6,0(r4)
  801690:	00c02034 	movhi	r3,128
  801694:	18ffffc4 	addi	r3,r3,-1
  801698:	3004d5fa 	srli	r2,r6,23
  80169c:	3008d7fa 	srli	r4,r6,31
  8016a0:	30ce703a 	and	r7,r6,r3
  8016a4:	10c03fcc 	andi	r3,r2,255
  8016a8:	29000115 	stw	r4,4(r5)
  8016ac:	1800131e 	bne	r3,zero,8016fc <__unpack_f+0x70>
  8016b0:	38000f26 	beq	r7,zero,8016f0 <__unpack_f+0x64>
  8016b4:	380691fa 	slli	r3,r7,7
  8016b8:	01bfe084 	movi	r6,-126
  8016bc:	008000c4 	movi	r2,3
  8016c0:	01100034 	movhi	r4,16384
  8016c4:	213fffc4 	addi	r4,r4,-1
  8016c8:	28800015 	stw	r2,0(r5)
  8016cc:	29800215 	stw	r6,8(r5)
  8016d0:	20c00536 	bltu	r4,r3,8016e8 <__unpack_f+0x5c>
  8016d4:	3005883a 	mov	r2,r6
  8016d8:	18c7883a 	add	r3,r3,r3
  8016dc:	10bfffc4 	addi	r2,r2,-1
  8016e0:	20fffd2e 	bgeu	r4,r3,8016d8 <__unpack_f+0x4c>
  8016e4:	28800215 	stw	r2,8(r5)
  8016e8:	28c00315 	stw	r3,12(r5)
  8016ec:	f800283a 	ret
  8016f0:	00800084 	movi	r2,2
  8016f4:	28800015 	stw	r2,0(r5)
  8016f8:	f800283a 	ret
  8016fc:	00803fc4 	movi	r2,255
  801700:	18800826 	beq	r3,r2,801724 <__unpack_f+0x98>
  801704:	380491fa 	slli	r2,r7,7
  801708:	18ffe044 	addi	r3,r3,-127
  80170c:	28c00215 	stw	r3,8(r5)
  801710:	10900034 	orhi	r2,r2,16384
  801714:	28800315 	stw	r2,12(r5)
  801718:	008000c4 	movi	r2,3
  80171c:	28800015 	stw	r2,0(r5)
  801720:	f800283a 	ret
  801724:	3800031e 	bne	r7,zero,801734 <__unpack_f+0xa8>
  801728:	00800104 	movi	r2,4
  80172c:	28800015 	stw	r2,0(r5)
  801730:	f800283a 	ret
  801734:	3080042c 	andhi	r2,r6,16
  801738:	10000426 	beq	r2,zero,80174c <__unpack_f+0xc0>
  80173c:	00800044 	movi	r2,1
  801740:	28800015 	stw	r2,0(r5)
  801744:	29c00315 	stw	r7,12(r5)
  801748:	f800283a 	ret
  80174c:	28000015 	stw	zero,0(r5)
  801750:	003ffc06 	br	801744 <__unpack_f+0xb8>

00801754 <__pack_d>:
  801754:	20c00017 	ldw	r3,0(r4)
  801758:	defffd04 	addi	sp,sp,-12
  80175c:	dc000015 	stw	r16,0(sp)
  801760:	dc800215 	stw	r18,8(sp)
  801764:	dc400115 	stw	r17,4(sp)
  801768:	00800044 	movi	r2,1
  80176c:	22000317 	ldw	r8,12(r4)
  801770:	001f883a 	mov	r15,zero
  801774:	22400417 	ldw	r9,16(r4)
  801778:	24000117 	ldw	r16,4(r4)
  80177c:	10c0552e 	bgeu	r2,r3,8018d4 <__pack_d+0x180>
  801780:	00800104 	movi	r2,4
  801784:	18804f26 	beq	r3,r2,8018c4 <__pack_d+0x170>
  801788:	00800084 	movi	r2,2
  80178c:	18800226 	beq	r3,r2,801798 <__pack_d+0x44>
  801790:	4244b03a 	or	r2,r8,r9
  801794:	10001a1e 	bne	r2,zero,801800 <__pack_d+0xac>
  801798:	000d883a 	mov	r6,zero
  80179c:	000f883a 	mov	r7,zero
  8017a0:	0011883a 	mov	r8,zero
  8017a4:	00800434 	movhi	r2,16
  8017a8:	10bfffc4 	addi	r2,r2,-1
  8017ac:	301d883a 	mov	r14,r6
  8017b0:	3884703a 	and	r2,r7,r2
  8017b4:	400a953a 	slli	r5,r8,20
  8017b8:	79bffc2c 	andhi	r6,r15,65520
  8017bc:	308cb03a 	or	r6,r6,r2
  8017c0:	00e00434 	movhi	r3,32784
  8017c4:	18ffffc4 	addi	r3,r3,-1
  8017c8:	800497fa 	slli	r2,r16,31
  8017cc:	30c6703a 	and	r3,r6,r3
  8017d0:	1946b03a 	or	r3,r3,r5
  8017d4:	01600034 	movhi	r5,32768
  8017d8:	297fffc4 	addi	r5,r5,-1
  8017dc:	194a703a 	and	r5,r3,r5
  8017e0:	288ab03a 	or	r5,r5,r2
  8017e4:	2807883a 	mov	r3,r5
  8017e8:	7005883a 	mov	r2,r14
  8017ec:	dc800217 	ldw	r18,8(sp)
  8017f0:	dc400117 	ldw	r17,4(sp)
  8017f4:	dc000017 	ldw	r16,0(sp)
  8017f8:	dec00304 	addi	sp,sp,12
  8017fc:	f800283a 	ret
  801800:	21000217 	ldw	r4,8(r4)
  801804:	00bf0084 	movi	r2,-1022
  801808:	20803f16 	blt	r4,r2,801908 <__pack_d+0x1b4>
  80180c:	0080ffc4 	movi	r2,1023
  801810:	11002c16 	blt	r2,r4,8018c4 <__pack_d+0x170>
  801814:	00803fc4 	movi	r2,255
  801818:	408c703a 	and	r6,r8,r2
  80181c:	00802004 	movi	r2,128
  801820:	0007883a 	mov	r3,zero
  801824:	000f883a 	mov	r7,zero
  801828:	2280ffc4 	addi	r10,r4,1023
  80182c:	30801e26 	beq	r6,r2,8018a8 <__pack_d+0x154>
  801830:	00801fc4 	movi	r2,127
  801834:	4089883a 	add	r4,r8,r2
  801838:	220d803a 	cmpltu	r6,r4,r8
  80183c:	324d883a 	add	r6,r6,r9
  801840:	2011883a 	mov	r8,r4
  801844:	3013883a 	mov	r9,r6
  801848:	00880034 	movhi	r2,8192
  80184c:	10bfffc4 	addi	r2,r2,-1
  801850:	12400d36 	bltu	r2,r9,801888 <__pack_d+0x134>
  801854:	4804963a 	slli	r2,r9,24
  801858:	400cd23a 	srli	r6,r8,8
  80185c:	480ed23a 	srli	r7,r9,8
  801860:	013fffc4 	movi	r4,-1
  801864:	118cb03a 	or	r6,r2,r6
  801868:	01400434 	movhi	r5,16
  80186c:	297fffc4 	addi	r5,r5,-1
  801870:	3104703a 	and	r2,r6,r4
  801874:	3946703a 	and	r3,r7,r5
  801878:	5201ffcc 	andi	r8,r10,2047
  80187c:	100d883a 	mov	r6,r2
  801880:	180f883a 	mov	r7,r3
  801884:	003fc706 	br	8017a4 <__pack_d+0x50>
  801888:	480897fa 	slli	r4,r9,31
  80188c:	4004d07a 	srli	r2,r8,1
  801890:	4806d07a 	srli	r3,r9,1
  801894:	52800044 	addi	r10,r10,1
  801898:	2084b03a 	or	r2,r4,r2
  80189c:	1011883a 	mov	r8,r2
  8018a0:	1813883a 	mov	r9,r3
  8018a4:	003feb06 	br	801854 <__pack_d+0x100>
  8018a8:	383fe11e 	bne	r7,zero,801830 <__pack_d+0xdc>
  8018ac:	01004004 	movi	r4,256
  8018b0:	4104703a 	and	r2,r8,r4
  8018b4:	10c4b03a 	or	r2,r2,r3
  8018b8:	103fe326 	beq	r2,zero,801848 <__pack_d+0xf4>
  8018bc:	3005883a 	mov	r2,r6
  8018c0:	003fdc06 	br	801834 <__pack_d+0xe0>
  8018c4:	000d883a 	mov	r6,zero
  8018c8:	000f883a 	mov	r7,zero
  8018cc:	0201ffc4 	movi	r8,2047
  8018d0:	003fb406 	br	8017a4 <__pack_d+0x50>
  8018d4:	0005883a 	mov	r2,zero
  8018d8:	00c00234 	movhi	r3,8
  8018dc:	408cb03a 	or	r6,r8,r2
  8018e0:	48ceb03a 	or	r7,r9,r3
  8018e4:	013fffc4 	movi	r4,-1
  8018e8:	01400434 	movhi	r5,16
  8018ec:	297fffc4 	addi	r5,r5,-1
  8018f0:	3104703a 	and	r2,r6,r4
  8018f4:	3946703a 	and	r3,r7,r5
  8018f8:	100d883a 	mov	r6,r2
  8018fc:	180f883a 	mov	r7,r3
  801900:	0201ffc4 	movi	r8,2047
  801904:	003fa706 	br	8017a4 <__pack_d+0x50>
  801908:	1109c83a 	sub	r4,r2,r4
  80190c:	00800e04 	movi	r2,56
  801910:	11004316 	blt	r2,r4,801a20 <__pack_d+0x2cc>
  801914:	21fff804 	addi	r7,r4,-32
  801918:	38004516 	blt	r7,zero,801a30 <__pack_d+0x2dc>
  80191c:	49d8d83a 	srl	r12,r9,r7
  801920:	001b883a 	mov	r13,zero
  801924:	0023883a 	mov	r17,zero
  801928:	01400044 	movi	r5,1
  80192c:	0025883a 	mov	r18,zero
  801930:	38004716 	blt	r7,zero,801a50 <__pack_d+0x2fc>
  801934:	29d6983a 	sll	r11,r5,r7
  801938:	0015883a 	mov	r10,zero
  80193c:	00bfffc4 	movi	r2,-1
  801940:	5089883a 	add	r4,r10,r2
  801944:	588b883a 	add	r5,r11,r2
  801948:	228d803a 	cmpltu	r6,r4,r10
  80194c:	314b883a 	add	r5,r6,r5
  801950:	4104703a 	and	r2,r8,r4
  801954:	4946703a 	and	r3,r9,r5
  801958:	10c4b03a 	or	r2,r2,r3
  80195c:	10000226 	beq	r2,zero,801968 <__pack_d+0x214>
  801960:	04400044 	movi	r17,1
  801964:	0025883a 	mov	r18,zero
  801968:	00803fc4 	movi	r2,255
  80196c:	644eb03a 	or	r7,r12,r17
  801970:	3892703a 	and	r9,r7,r2
  801974:	00802004 	movi	r2,128
  801978:	6c90b03a 	or	r8,r13,r18
  80197c:	0015883a 	mov	r10,zero
  801980:	48801626 	beq	r9,r2,8019dc <__pack_d+0x288>
  801984:	01001fc4 	movi	r4,127
  801988:	3905883a 	add	r2,r7,r4
  80198c:	11cd803a 	cmpltu	r6,r2,r7
  801990:	320d883a 	add	r6,r6,r8
  801994:	100f883a 	mov	r7,r2
  801998:	00840034 	movhi	r2,4096
  80199c:	10bfffc4 	addi	r2,r2,-1
  8019a0:	3011883a 	mov	r8,r6
  8019a4:	0007883a 	mov	r3,zero
  8019a8:	11801b36 	bltu	r2,r6,801a18 <__pack_d+0x2c4>
  8019ac:	4004963a 	slli	r2,r8,24
  8019b0:	3808d23a 	srli	r4,r7,8
  8019b4:	400ad23a 	srli	r5,r8,8
  8019b8:	1813883a 	mov	r9,r3
  8019bc:	1108b03a 	or	r4,r2,r4
  8019c0:	00bfffc4 	movi	r2,-1
  8019c4:	00c00434 	movhi	r3,16
  8019c8:	18ffffc4 	addi	r3,r3,-1
  8019cc:	208c703a 	and	r6,r4,r2
  8019d0:	28ce703a 	and	r7,r5,r3
  8019d4:	4a01ffcc 	andi	r8,r9,2047
  8019d8:	003f7206 	br	8017a4 <__pack_d+0x50>
  8019dc:	503fe91e 	bne	r10,zero,801984 <__pack_d+0x230>
  8019e0:	01004004 	movi	r4,256
  8019e4:	3904703a 	and	r2,r7,r4
  8019e8:	0007883a 	mov	r3,zero
  8019ec:	10c4b03a 	or	r2,r2,r3
  8019f0:	10000626 	beq	r2,zero,801a0c <__pack_d+0x2b8>
  8019f4:	3a45883a 	add	r2,r7,r9
  8019f8:	11cd803a 	cmpltu	r6,r2,r7
  8019fc:	320d883a 	add	r6,r6,r8
  801a00:	100f883a 	mov	r7,r2
  801a04:	3011883a 	mov	r8,r6
  801a08:	0007883a 	mov	r3,zero
  801a0c:	00840034 	movhi	r2,4096
  801a10:	10bfffc4 	addi	r2,r2,-1
  801a14:	123fe52e 	bgeu	r2,r8,8019ac <__pack_d+0x258>
  801a18:	00c00044 	movi	r3,1
  801a1c:	003fe306 	br	8019ac <__pack_d+0x258>
  801a20:	0009883a 	mov	r4,zero
  801a24:	0013883a 	mov	r9,zero
  801a28:	000b883a 	mov	r5,zero
  801a2c:	003fe406 	br	8019c0 <__pack_d+0x26c>
  801a30:	4a47883a 	add	r3,r9,r9
  801a34:	008007c4 	movi	r2,31
  801a38:	1105c83a 	sub	r2,r2,r4
  801a3c:	1886983a 	sll	r3,r3,r2
  801a40:	4118d83a 	srl	r12,r8,r4
  801a44:	491ad83a 	srl	r13,r9,r4
  801a48:	1b18b03a 	or	r12,r3,r12
  801a4c:	003fb506 	br	801924 <__pack_d+0x1d0>
  801a50:	2806d07a 	srli	r3,r5,1
  801a54:	008007c4 	movi	r2,31
  801a58:	1105c83a 	sub	r2,r2,r4
  801a5c:	1896d83a 	srl	r11,r3,r2
  801a60:	2914983a 	sll	r10,r5,r4
  801a64:	003fb506 	br	80193c <__pack_d+0x1e8>

00801a68 <__unpack_d>:
  801a68:	20c00117 	ldw	r3,4(r4)
  801a6c:	22400017 	ldw	r9,0(r4)
  801a70:	00800434 	movhi	r2,16
  801a74:	10bfffc4 	addi	r2,r2,-1
  801a78:	1808d53a 	srli	r4,r3,20
  801a7c:	180cd7fa 	srli	r6,r3,31
  801a80:	1894703a 	and	r10,r3,r2
  801a84:	2201ffcc 	andi	r8,r4,2047
  801a88:	281b883a 	mov	r13,r5
  801a8c:	4817883a 	mov	r11,r9
  801a90:	29800115 	stw	r6,4(r5)
  801a94:	5019883a 	mov	r12,r10
  801a98:	40001e1e 	bne	r8,zero,801b14 <__unpack_d+0xac>
  801a9c:	4a84b03a 	or	r2,r9,r10
  801aa0:	10001926 	beq	r2,zero,801b08 <__unpack_d+0xa0>
  801aa4:	4804d63a 	srli	r2,r9,24
  801aa8:	500c923a 	slli	r6,r10,8
  801aac:	013f0084 	movi	r4,-1022
  801ab0:	00c40034 	movhi	r3,4096
  801ab4:	18ffffc4 	addi	r3,r3,-1
  801ab8:	118cb03a 	or	r6,r2,r6
  801abc:	008000c4 	movi	r2,3
  801ac0:	480a923a 	slli	r5,r9,8
  801ac4:	68800015 	stw	r2,0(r13)
  801ac8:	69000215 	stw	r4,8(r13)
  801acc:	19800b36 	bltu	r3,r6,801afc <__unpack_d+0x94>
  801ad0:	200f883a 	mov	r7,r4
  801ad4:	1811883a 	mov	r8,r3
  801ad8:	2945883a 	add	r2,r5,r5
  801adc:	1149803a 	cmpltu	r4,r2,r5
  801ae0:	3187883a 	add	r3,r6,r6
  801ae4:	20c9883a 	add	r4,r4,r3
  801ae8:	100b883a 	mov	r5,r2
  801aec:	200d883a 	mov	r6,r4
  801af0:	39ffffc4 	addi	r7,r7,-1
  801af4:	413ff82e 	bgeu	r8,r4,801ad8 <__unpack_d+0x70>
  801af8:	69c00215 	stw	r7,8(r13)
  801afc:	69800415 	stw	r6,16(r13)
  801b00:	69400315 	stw	r5,12(r13)
  801b04:	f800283a 	ret
  801b08:	00800084 	movi	r2,2
  801b0c:	28800015 	stw	r2,0(r5)
  801b10:	f800283a 	ret
  801b14:	0081ffc4 	movi	r2,2047
  801b18:	40800f26 	beq	r8,r2,801b58 <__unpack_d+0xf0>
  801b1c:	480cd63a 	srli	r6,r9,24
  801b20:	5006923a 	slli	r3,r10,8
  801b24:	4804923a 	slli	r2,r9,8
  801b28:	0009883a 	mov	r4,zero
  801b2c:	30c6b03a 	or	r3,r6,r3
  801b30:	01440034 	movhi	r5,4096
  801b34:	110cb03a 	or	r6,r2,r4
  801b38:	423f0044 	addi	r8,r8,-1023
  801b3c:	194eb03a 	or	r7,r3,r5
  801b40:	008000c4 	movi	r2,3
  801b44:	69c00415 	stw	r7,16(r13)
  801b48:	6a000215 	stw	r8,8(r13)
  801b4c:	68800015 	stw	r2,0(r13)
  801b50:	69800315 	stw	r6,12(r13)
  801b54:	f800283a 	ret
  801b58:	4a84b03a 	or	r2,r9,r10
  801b5c:	1000031e 	bne	r2,zero,801b6c <__unpack_d+0x104>
  801b60:	00800104 	movi	r2,4
  801b64:	28800015 	stw	r2,0(r5)
  801b68:	f800283a 	ret
  801b6c:	0009883a 	mov	r4,zero
  801b70:	01400234 	movhi	r5,8
  801b74:	4904703a 	and	r2,r9,r4
  801b78:	5146703a 	and	r3,r10,r5
  801b7c:	10c4b03a 	or	r2,r2,r3
  801b80:	10000526 	beq	r2,zero,801b98 <__unpack_d+0x130>
  801b84:	00800044 	movi	r2,1
  801b88:	68800015 	stw	r2,0(r13)
  801b8c:	6b000415 	stw	r12,16(r13)
  801b90:	6ac00315 	stw	r11,12(r13)
  801b94:	f800283a 	ret
  801b98:	68000015 	stw	zero,0(r13)
  801b9c:	003ffb06 	br	801b8c <__unpack_d+0x124>

00801ba0 <gcvt>:
  801ba0:	defff804 	addi	sp,sp,-32
  801ba4:	0005883a 	mov	r2,zero
  801ba8:	dcc00615 	stw	r19,24(sp)
  801bac:	dc800515 	stw	r18,20(sp)
  801bb0:	3027883a 	mov	r19,r6
  801bb4:	3825883a 	mov	r18,r7
  801bb8:	100d883a 	mov	r6,r2
  801bbc:	000f883a 	mov	r7,zero
  801bc0:	dc400415 	stw	r17,16(sp)
  801bc4:	dc000315 	stw	r16,12(sp)
  801bc8:	dfc00715 	stw	ra,28(sp)
  801bcc:	2021883a 	mov	r16,r4
  801bd0:	2823883a 	mov	r17,r5
  801bd4:	0806c880 	call	806c88 <__ltdf2>
  801bd8:	9007883a 	mov	r3,r18
  801bdc:	10001516 	blt	r2,zero,801c34 <gcvt+0x94>
  801be0:	00802074 	movhi	r2,129
  801be4:	10a95e04 	addi	r2,r2,-23176
  801be8:	11000017 	ldw	r4,0(r2)
  801bec:	980f883a 	mov	r7,r19
  801bf0:	008019c4 	movi	r2,103
  801bf4:	880d883a 	mov	r6,r17
  801bf8:	800b883a 	mov	r5,r16
  801bfc:	d8c00015 	stw	r3,0(sp)
  801c00:	d8800115 	stw	r2,4(sp)
  801c04:	d8000215 	stw	zero,8(sp)
  801c08:	08028980 	call	802898 <_gcvt>
  801c0c:	900f883a 	mov	r7,r18
  801c10:	10000d26 	beq	r2,zero,801c48 <gcvt+0xa8>
  801c14:	3805883a 	mov	r2,r7
  801c18:	dfc00717 	ldw	ra,28(sp)
  801c1c:	dcc00617 	ldw	r19,24(sp)
  801c20:	dc800517 	ldw	r18,20(sp)
  801c24:	dc400417 	ldw	r17,16(sp)
  801c28:	dc000317 	ldw	r16,12(sp)
  801c2c:	dec00804 	addi	sp,sp,32
  801c30:	f800283a 	ret
  801c34:	00800b44 	movi	r2,45
  801c38:	9cffffc4 	addi	r19,r19,-1
  801c3c:	90c00044 	addi	r3,r18,1
  801c40:	90800005 	stb	r2,0(r18)
  801c44:	003fe606 	br	801be0 <gcvt+0x40>
  801c48:	000f883a 	mov	r7,zero
  801c4c:	3805883a 	mov	r2,r7
  801c50:	dfc00717 	ldw	ra,28(sp)
  801c54:	dcc00617 	ldw	r19,24(sp)
  801c58:	dc800517 	ldw	r18,20(sp)
  801c5c:	dc400417 	ldw	r17,16(sp)
  801c60:	dc000317 	ldw	r16,12(sp)
  801c64:	dec00804 	addi	sp,sp,32
  801c68:	f800283a 	ret

00801c6c <gcvtf>:
  801c6c:	defffd04 	addi	sp,sp,-12
  801c70:	dcc00115 	stw	r19,4(sp)
  801c74:	dc400015 	stw	r17,0(sp)
  801c78:	3027883a 	mov	r19,r6
  801c7c:	2823883a 	mov	r17,r5
  801c80:	dfc00215 	stw	ra,8(sp)
  801c84:	0800b300 	call	800b30 <__extendsfdf2>
  801c88:	180b883a 	mov	r5,r3
  801c8c:	880d883a 	mov	r6,r17
  801c90:	980f883a 	mov	r7,r19
  801c94:	1009883a 	mov	r4,r2
  801c98:	dfc00217 	ldw	ra,8(sp)
  801c9c:	dcc00117 	ldw	r19,4(sp)
  801ca0:	dc400017 	ldw	r17,0(sp)
  801ca4:	dec00304 	addi	sp,sp,12
  801ca8:	0801ba01 	jmpi	801ba0 <gcvt>

00801cac <ecvt>:
  801cac:	defffd04 	addi	sp,sp,-12
  801cb0:	da000317 	ldw	r8,12(sp)
  801cb4:	dfc00215 	stw	ra,8(sp)
  801cb8:	d8000115 	stw	zero,4(sp)
  801cbc:	da000015 	stw	r8,0(sp)
  801cc0:	0802e700 	call	802e70 <ecvtbuf>
  801cc4:	dfc00217 	ldw	ra,8(sp)
  801cc8:	dec00304 	addi	sp,sp,12
  801ccc:	f800283a 	ret

00801cd0 <ecvtf>:
  801cd0:	defffb04 	addi	sp,sp,-20
  801cd4:	dfc00415 	stw	ra,16(sp)
  801cd8:	dd400315 	stw	r21,12(sp)
  801cdc:	dcc00215 	stw	r19,8(sp)
  801ce0:	382b883a 	mov	r21,r7
  801ce4:	3027883a 	mov	r19,r6
  801ce8:	dc400115 	stw	r17,4(sp)
  801cec:	2823883a 	mov	r17,r5
  801cf0:	0800b300 	call	800b30 <__extendsfdf2>
  801cf4:	180b883a 	mov	r5,r3
  801cf8:	880d883a 	mov	r6,r17
  801cfc:	980f883a 	mov	r7,r19
  801d00:	1009883a 	mov	r4,r2
  801d04:	dd400015 	stw	r21,0(sp)
  801d08:	0801cac0 	call	801cac <ecvt>
  801d0c:	dfc00417 	ldw	ra,16(sp)
  801d10:	dd400317 	ldw	r21,12(sp)
  801d14:	dcc00217 	ldw	r19,8(sp)
  801d18:	dc400117 	ldw	r17,4(sp)
  801d1c:	dec00504 	addi	sp,sp,20
  801d20:	f800283a 	ret

00801d24 <fcvt>:
  801d24:	defffd04 	addi	sp,sp,-12
  801d28:	da000317 	ldw	r8,12(sp)
  801d2c:	dfc00215 	stw	ra,8(sp)
  801d30:	d8000115 	stw	zero,4(sp)
  801d34:	da000015 	stw	r8,0(sp)
  801d38:	0802fb80 	call	802fb8 <fcvtbuf>
  801d3c:	dfc00217 	ldw	ra,8(sp)
  801d40:	dec00304 	addi	sp,sp,12
  801d44:	f800283a 	ret

00801d48 <fcvtf>:
  801d48:	defffb04 	addi	sp,sp,-20
  801d4c:	dfc00415 	stw	ra,16(sp)
  801d50:	dd400315 	stw	r21,12(sp)
  801d54:	dcc00215 	stw	r19,8(sp)
  801d58:	382b883a 	mov	r21,r7
  801d5c:	3027883a 	mov	r19,r6
  801d60:	dc400115 	stw	r17,4(sp)
  801d64:	2823883a 	mov	r17,r5
  801d68:	0800b300 	call	800b30 <__extendsfdf2>
  801d6c:	180b883a 	mov	r5,r3
  801d70:	880d883a 	mov	r6,r17
  801d74:	980f883a 	mov	r7,r19
  801d78:	1009883a 	mov	r4,r2
  801d7c:	dd400015 	stw	r21,0(sp)
  801d80:	0801d240 	call	801d24 <fcvt>
  801d84:	dfc00417 	ldw	ra,16(sp)
  801d88:	dd400317 	ldw	r21,12(sp)
  801d8c:	dcc00217 	ldw	r19,8(sp)
  801d90:	dc400117 	ldw	r17,4(sp)
  801d94:	dec00504 	addi	sp,sp,20
  801d98:	f800283a 	ret

00801d9c <free>:
  801d9c:	00802074 	movhi	r2,129
  801da0:	10a95e04 	addi	r2,r2,-23176
  801da4:	200b883a 	mov	r5,r4
  801da8:	11000017 	ldw	r4,0(r2)
  801dac:	080328c1 	jmpi	80328c <_free_r>

00801db0 <malloc>:
  801db0:	00802074 	movhi	r2,129
  801db4:	10a95e04 	addi	r2,r2,-23176
  801db8:	200b883a 	mov	r5,r4
  801dbc:	11000017 	ldw	r4,0(r2)
  801dc0:	0801dc41 	jmpi	801dc4 <_malloc_r>

00801dc4 <_malloc_r>:
  801dc4:	defff604 	addi	sp,sp,-40
  801dc8:	28c002c4 	addi	r3,r5,11
  801dcc:	00800584 	movi	r2,22
  801dd0:	dc800215 	stw	r18,8(sp)
  801dd4:	dfc00915 	stw	ra,36(sp)
  801dd8:	df000815 	stw	fp,32(sp)
  801ddc:	ddc00715 	stw	r23,28(sp)
  801de0:	dd800615 	stw	r22,24(sp)
  801de4:	dd400515 	stw	r21,20(sp)
  801de8:	dd000415 	stw	r20,16(sp)
  801dec:	dcc00315 	stw	r19,12(sp)
  801df0:	dc400115 	stw	r17,4(sp)
  801df4:	dc000015 	stw	r16,0(sp)
  801df8:	2025883a 	mov	r18,r4
  801dfc:	10c01236 	bltu	r2,r3,801e48 <_malloc_r+0x84>
  801e00:	04400404 	movi	r17,16
  801e04:	8940142e 	bgeu	r17,r5,801e58 <_malloc_r+0x94>
  801e08:	00800304 	movi	r2,12
  801e0c:	0007883a 	mov	r3,zero
  801e10:	90800015 	stw	r2,0(r18)
  801e14:	1805883a 	mov	r2,r3
  801e18:	dfc00917 	ldw	ra,36(sp)
  801e1c:	df000817 	ldw	fp,32(sp)
  801e20:	ddc00717 	ldw	r23,28(sp)
  801e24:	dd800617 	ldw	r22,24(sp)
  801e28:	dd400517 	ldw	r21,20(sp)
  801e2c:	dd000417 	ldw	r20,16(sp)
  801e30:	dcc00317 	ldw	r19,12(sp)
  801e34:	dc800217 	ldw	r18,8(sp)
  801e38:	dc400117 	ldw	r17,4(sp)
  801e3c:	dc000017 	ldw	r16,0(sp)
  801e40:	dec00a04 	addi	sp,sp,40
  801e44:	f800283a 	ret
  801e48:	00bffe04 	movi	r2,-8
  801e4c:	18a2703a 	and	r17,r3,r2
  801e50:	883fed16 	blt	r17,zero,801e08 <_malloc_r+0x44>
  801e54:	897fec36 	bltu	r17,r5,801e08 <_malloc_r+0x44>
  801e58:	9009883a 	mov	r4,r18
  801e5c:	08072800 	call	807280 <__malloc_lock>
  801e60:	00807dc4 	movi	r2,503
  801e64:	14402b2e 	bgeu	r2,r17,801f14 <_malloc_r+0x150>
  801e68:	8806d27a 	srli	r3,r17,9
  801e6c:	18003f1e 	bne	r3,zero,801f6c <_malloc_r+0x1a8>
  801e70:	880cd0fa 	srli	r6,r17,3
  801e74:	300490fa 	slli	r2,r6,3
  801e78:	02c02074 	movhi	r11,129
  801e7c:	5ae7e704 	addi	r11,r11,-24676
  801e80:	12cb883a 	add	r5,r2,r11
  801e84:	2c000317 	ldw	r16,12(r5)
  801e88:	580f883a 	mov	r7,r11
  801e8c:	2c00041e 	bne	r5,r16,801ea0 <_malloc_r+0xdc>
  801e90:	00000a06 	br	801ebc <_malloc_r+0xf8>
  801e94:	1800860e 	bge	r3,zero,8020b0 <_malloc_r+0x2ec>
  801e98:	84000317 	ldw	r16,12(r16)
  801e9c:	2c000726 	beq	r5,r16,801ebc <_malloc_r+0xf8>
  801ea0:	80800117 	ldw	r2,4(r16)
  801ea4:	00ffff04 	movi	r3,-4
  801ea8:	10c8703a 	and	r4,r2,r3
  801eac:	2447c83a 	sub	r3,r4,r17
  801eb0:	008003c4 	movi	r2,15
  801eb4:	10fff70e 	bge	r2,r3,801e94 <_malloc_r+0xd0>
  801eb8:	31bfffc4 	addi	r6,r6,-1
  801ebc:	32400044 	addi	r9,r6,1
  801ec0:	02802074 	movhi	r10,129
  801ec4:	52a7e904 	addi	r10,r10,-24668
  801ec8:	54000217 	ldw	r16,8(r10)
  801ecc:	8280a026 	beq	r16,r10,802150 <_malloc_r+0x38c>
  801ed0:	80800117 	ldw	r2,4(r16)
  801ed4:	00ffff04 	movi	r3,-4
  801ed8:	10ca703a 	and	r5,r2,r3
  801edc:	2c4dc83a 	sub	r6,r5,r17
  801ee0:	008003c4 	movi	r2,15
  801ee4:	11808316 	blt	r2,r6,8020f4 <_malloc_r+0x330>
  801ee8:	52800315 	stw	r10,12(r10)
  801eec:	52800215 	stw	r10,8(r10)
  801ef0:	30002916 	blt	r6,zero,801f98 <_malloc_r+0x1d4>
  801ef4:	8147883a 	add	r3,r16,r5
  801ef8:	18800117 	ldw	r2,4(r3)
  801efc:	9009883a 	mov	r4,r18
  801f00:	10800054 	ori	r2,r2,1
  801f04:	18800115 	stw	r2,4(r3)
  801f08:	08072840 	call	807284 <__malloc_unlock>
  801f0c:	80c00204 	addi	r3,r16,8
  801f10:	003fc006 	br	801e14 <_malloc_r+0x50>
  801f14:	02c02074 	movhi	r11,129
  801f18:	5ae7e704 	addi	r11,r11,-24676
  801f1c:	8ac5883a 	add	r2,r17,r11
  801f20:	14000317 	ldw	r16,12(r2)
  801f24:	580f883a 	mov	r7,r11
  801f28:	8806d0fa 	srli	r3,r17,3
  801f2c:	14006c26 	beq	r2,r16,8020e0 <_malloc_r+0x31c>
  801f30:	80c00117 	ldw	r3,4(r16)
  801f34:	00bfff04 	movi	r2,-4
  801f38:	81800317 	ldw	r6,12(r16)
  801f3c:	1886703a 	and	r3,r3,r2
  801f40:	80c7883a 	add	r3,r16,r3
  801f44:	18800117 	ldw	r2,4(r3)
  801f48:	81400217 	ldw	r5,8(r16)
  801f4c:	9009883a 	mov	r4,r18
  801f50:	10800054 	ori	r2,r2,1
  801f54:	18800115 	stw	r2,4(r3)
  801f58:	31400215 	stw	r5,8(r6)
  801f5c:	29800315 	stw	r6,12(r5)
  801f60:	08072840 	call	807284 <__malloc_unlock>
  801f64:	80c00204 	addi	r3,r16,8
  801f68:	003faa06 	br	801e14 <_malloc_r+0x50>
  801f6c:	00800104 	movi	r2,4
  801f70:	10c0052e 	bgeu	r2,r3,801f88 <_malloc_r+0x1c4>
  801f74:	00800504 	movi	r2,20
  801f78:	10c07836 	bltu	r2,r3,80215c <_malloc_r+0x398>
  801f7c:	198016c4 	addi	r6,r3,91
  801f80:	300490fa 	slli	r2,r6,3
  801f84:	003fbc06 	br	801e78 <_malloc_r+0xb4>
  801f88:	8804d1ba 	srli	r2,r17,6
  801f8c:	11800e04 	addi	r6,r2,56
  801f90:	300490fa 	slli	r2,r6,3
  801f94:	003fb806 	br	801e78 <_malloc_r+0xb4>
  801f98:	00807fc4 	movi	r2,511
  801f9c:	1140bb36 	bltu	r2,r5,80228c <_malloc_r+0x4c8>
  801fa0:	2806d0fa 	srli	r3,r5,3
  801fa4:	573ffe04 	addi	fp,r10,-8
  801fa8:	00800044 	movi	r2,1
  801fac:	180890fa 	slli	r4,r3,3
  801fb0:	1807d0ba 	srai	r3,r3,2
  801fb4:	e1c00117 	ldw	r7,4(fp)
  801fb8:	5909883a 	add	r4,r11,r4
  801fbc:	21400217 	ldw	r5,8(r4)
  801fc0:	10c4983a 	sll	r2,r2,r3
  801fc4:	81000315 	stw	r4,12(r16)
  801fc8:	81400215 	stw	r5,8(r16)
  801fcc:	388eb03a 	or	r7,r7,r2
  801fd0:	2c000315 	stw	r16,12(r5)
  801fd4:	24000215 	stw	r16,8(r4)
  801fd8:	e1c00115 	stw	r7,4(fp)
  801fdc:	4807883a 	mov	r3,r9
  801fe0:	4800cd16 	blt	r9,zero,802318 <_malloc_r+0x554>
  801fe4:	1807d0ba 	srai	r3,r3,2
  801fe8:	00800044 	movi	r2,1
  801fec:	10c8983a 	sll	r4,r2,r3
  801ff0:	39004436 	bltu	r7,r4,802104 <_malloc_r+0x340>
  801ff4:	21c4703a 	and	r2,r4,r7
  801ff8:	10000a1e 	bne	r2,zero,802024 <_malloc_r+0x260>
  801ffc:	2109883a 	add	r4,r4,r4
  802000:	00bfff04 	movi	r2,-4
  802004:	4884703a 	and	r2,r9,r2
  802008:	3906703a 	and	r3,r7,r4
  80200c:	12400104 	addi	r9,r2,4
  802010:	1800041e 	bne	r3,zero,802024 <_malloc_r+0x260>
  802014:	2109883a 	add	r4,r4,r4
  802018:	3904703a 	and	r2,r7,r4
  80201c:	4a400104 	addi	r9,r9,4
  802020:	103ffc26 	beq	r2,zero,802014 <_malloc_r+0x250>
  802024:	480490fa 	slli	r2,r9,3
  802028:	4819883a 	mov	r12,r9
  80202c:	023fff04 	movi	r8,-4
  802030:	589b883a 	add	r13,r11,r2
  802034:	6807883a 	mov	r3,r13
  802038:	014003c4 	movi	r5,15
  80203c:	1c000317 	ldw	r16,12(r3)
  802040:	1c00041e 	bne	r3,r16,802054 <_malloc_r+0x290>
  802044:	0000a706 	br	8022e4 <_malloc_r+0x520>
  802048:	3000ab0e 	bge	r6,zero,8022f8 <_malloc_r+0x534>
  80204c:	84000317 	ldw	r16,12(r16)
  802050:	1c00a426 	beq	r3,r16,8022e4 <_malloc_r+0x520>
  802054:	80800117 	ldw	r2,4(r16)
  802058:	1204703a 	and	r2,r2,r8
  80205c:	144dc83a 	sub	r6,r2,r17
  802060:	29bff90e 	bge	r5,r6,802048 <_malloc_r+0x284>
  802064:	81000317 	ldw	r4,12(r16)
  802068:	80c00217 	ldw	r3,8(r16)
  80206c:	89400054 	ori	r5,r17,1
  802070:	8445883a 	add	r2,r16,r17
  802074:	20c00215 	stw	r3,8(r4)
  802078:	19000315 	stw	r4,12(r3)
  80207c:	81400115 	stw	r5,4(r16)
  802080:	1187883a 	add	r3,r2,r6
  802084:	31000054 	ori	r4,r6,1
  802088:	50800315 	stw	r2,12(r10)
  80208c:	50800215 	stw	r2,8(r10)
  802090:	19800015 	stw	r6,0(r3)
  802094:	11000115 	stw	r4,4(r2)
  802098:	12800215 	stw	r10,8(r2)
  80209c:	12800315 	stw	r10,12(r2)
  8020a0:	9009883a 	mov	r4,r18
  8020a4:	08072840 	call	807284 <__malloc_unlock>
  8020a8:	80c00204 	addi	r3,r16,8
  8020ac:	003f5906 	br	801e14 <_malloc_r+0x50>
  8020b0:	8109883a 	add	r4,r16,r4
  8020b4:	20800117 	ldw	r2,4(r4)
  8020b8:	80c00217 	ldw	r3,8(r16)
  8020bc:	81400317 	ldw	r5,12(r16)
  8020c0:	10800054 	ori	r2,r2,1
  8020c4:	20800115 	stw	r2,4(r4)
  8020c8:	28c00215 	stw	r3,8(r5)
  8020cc:	19400315 	stw	r5,12(r3)
  8020d0:	9009883a 	mov	r4,r18
  8020d4:	08072840 	call	807284 <__malloc_unlock>
  8020d8:	80c00204 	addi	r3,r16,8
  8020dc:	003f4d06 	br	801e14 <_malloc_r+0x50>
  8020e0:	80800204 	addi	r2,r16,8
  8020e4:	14000317 	ldw	r16,12(r2)
  8020e8:	143f911e 	bne	r2,r16,801f30 <_malloc_r+0x16c>
  8020ec:	1a400084 	addi	r9,r3,2
  8020f0:	003f7306 	br	801ec0 <_malloc_r+0xfc>
  8020f4:	88c00054 	ori	r3,r17,1
  8020f8:	8445883a 	add	r2,r16,r17
  8020fc:	80c00115 	stw	r3,4(r16)
  802100:	003fdf06 	br	802080 <_malloc_r+0x2bc>
  802104:	e4000217 	ldw	r16,8(fp)
  802108:	00bfff04 	movi	r2,-4
  80210c:	80c00117 	ldw	r3,4(r16)
  802110:	802d883a 	mov	r22,r16
  802114:	18aa703a 	and	r21,r3,r2
  802118:	ac401636 	bltu	r21,r17,802174 <_malloc_r+0x3b0>
  80211c:	ac49c83a 	sub	r4,r21,r17
  802120:	008003c4 	movi	r2,15
  802124:	1100130e 	bge	r2,r4,802174 <_malloc_r+0x3b0>
  802128:	88800054 	ori	r2,r17,1
  80212c:	8447883a 	add	r3,r16,r17
  802130:	80800115 	stw	r2,4(r16)
  802134:	20800054 	ori	r2,r4,1
  802138:	18800115 	stw	r2,4(r3)
  80213c:	e0c00215 	stw	r3,8(fp)
  802140:	9009883a 	mov	r4,r18
  802144:	08072840 	call	807284 <__malloc_unlock>
  802148:	80c00204 	addi	r3,r16,8
  80214c:	003f3106 	br	801e14 <_malloc_r+0x50>
  802150:	39c00117 	ldw	r7,4(r7)
  802154:	573ffe04 	addi	fp,r10,-8
  802158:	003fa006 	br	801fdc <_malloc_r+0x218>
  80215c:	00801504 	movi	r2,84
  802160:	10c06736 	bltu	r2,r3,802300 <_malloc_r+0x53c>
  802164:	8804d33a 	srli	r2,r17,12
  802168:	11801b84 	addi	r6,r2,110
  80216c:	300490fa 	slli	r2,r6,3
  802170:	003f4106 	br	801e78 <_malloc_r+0xb4>
  802174:	d0a29317 	ldw	r2,-30132(gp)
  802178:	d0e00317 	ldw	r3,-32756(gp)
  80217c:	053fffc4 	movi	r20,-1
  802180:	10800404 	addi	r2,r2,16
  802184:	88a7883a 	add	r19,r17,r2
  802188:	1d000326 	beq	r3,r20,802198 <_malloc_r+0x3d4>
  80218c:	98c3ffc4 	addi	r3,r19,4095
  802190:	00bc0004 	movi	r2,-4096
  802194:	18a6703a 	and	r19,r3,r2
  802198:	9009883a 	mov	r4,r18
  80219c:	980b883a 	mov	r5,r19
  8021a0:	08026380 	call	802638 <_sbrk_r>
  8021a4:	1009883a 	mov	r4,r2
  8021a8:	15000426 	beq	r2,r20,8021bc <_malloc_r+0x3f8>
  8021ac:	854b883a 	add	r5,r16,r21
  8021b0:	1029883a 	mov	r20,r2
  8021b4:	11405a2e 	bgeu	r2,r5,802320 <_malloc_r+0x55c>
  8021b8:	87000c26 	beq	r16,fp,8021ec <_malloc_r+0x428>
  8021bc:	e4000217 	ldw	r16,8(fp)
  8021c0:	80c00117 	ldw	r3,4(r16)
  8021c4:	00bfff04 	movi	r2,-4
  8021c8:	1884703a 	and	r2,r3,r2
  8021cc:	14400336 	bltu	r2,r17,8021dc <_malloc_r+0x418>
  8021d0:	1449c83a 	sub	r4,r2,r17
  8021d4:	008003c4 	movi	r2,15
  8021d8:	113fd316 	blt	r2,r4,802128 <_malloc_r+0x364>
  8021dc:	9009883a 	mov	r4,r18
  8021e0:	08072840 	call	807284 <__malloc_unlock>
  8021e4:	0007883a 	mov	r3,zero
  8021e8:	003f0a06 	br	801e14 <_malloc_r+0x50>
  8021ec:	05c02074 	movhi	r23,129
  8021f0:	bdebfb04 	addi	r23,r23,-20500
  8021f4:	b8800017 	ldw	r2,0(r23)
  8021f8:	988d883a 	add	r6,r19,r2
  8021fc:	b9800015 	stw	r6,0(r23)
  802200:	d0e00317 	ldw	r3,-32756(gp)
  802204:	00bfffc4 	movi	r2,-1
  802208:	18808e26 	beq	r3,r2,802444 <_malloc_r+0x680>
  80220c:	2145c83a 	sub	r2,r4,r5
  802210:	3085883a 	add	r2,r6,r2
  802214:	b8800015 	stw	r2,0(r23)
  802218:	20c001cc 	andi	r3,r4,7
  80221c:	18005f1e 	bne	r3,zero,80239c <_malloc_r+0x5d8>
  802220:	000b883a 	mov	r5,zero
  802224:	a4c5883a 	add	r2,r20,r19
  802228:	1083ffcc 	andi	r2,r2,4095
  80222c:	00c40004 	movi	r3,4096
  802230:	1887c83a 	sub	r3,r3,r2
  802234:	28e7883a 	add	r19,r5,r3
  802238:	9009883a 	mov	r4,r18
  80223c:	980b883a 	mov	r5,r19
  802240:	08026380 	call	802638 <_sbrk_r>
  802244:	1007883a 	mov	r3,r2
  802248:	00bfffc4 	movi	r2,-1
  80224c:	18807a26 	beq	r3,r2,802438 <_malloc_r+0x674>
  802250:	1d05c83a 	sub	r2,r3,r20
  802254:	9885883a 	add	r2,r19,r2
  802258:	10c00054 	ori	r3,r2,1
  80225c:	b8800017 	ldw	r2,0(r23)
  802260:	a021883a 	mov	r16,r20
  802264:	a0c00115 	stw	r3,4(r20)
  802268:	9885883a 	add	r2,r19,r2
  80226c:	b8800015 	stw	r2,0(r23)
  802270:	e5000215 	stw	r20,8(fp)
  802274:	b7003626 	beq	r22,fp,802350 <_malloc_r+0x58c>
  802278:	018003c4 	movi	r6,15
  80227c:	35404b36 	bltu	r6,r21,8023ac <_malloc_r+0x5e8>
  802280:	00800044 	movi	r2,1
  802284:	a0800115 	stw	r2,4(r20)
  802288:	003fcd06 	br	8021c0 <_malloc_r+0x3fc>
  80228c:	2808d27a 	srli	r4,r5,9
  802290:	2000371e 	bne	r4,zero,802370 <_malloc_r+0x5ac>
  802294:	2808d0fa 	srli	r4,r5,3
  802298:	200690fa 	slli	r3,r4,3
  80229c:	1ad1883a 	add	r8,r3,r11
  8022a0:	41800217 	ldw	r6,8(r8)
  8022a4:	41805b26 	beq	r8,r6,802414 <_malloc_r+0x650>
  8022a8:	30800117 	ldw	r2,4(r6)
  8022ac:	00ffff04 	movi	r3,-4
  8022b0:	10c4703a 	and	r2,r2,r3
  8022b4:	2880022e 	bgeu	r5,r2,8022c0 <_malloc_r+0x4fc>
  8022b8:	31800217 	ldw	r6,8(r6)
  8022bc:	41bffa1e 	bne	r8,r6,8022a8 <_malloc_r+0x4e4>
  8022c0:	32000317 	ldw	r8,12(r6)
  8022c4:	39c00117 	ldw	r7,4(r7)
  8022c8:	82000315 	stw	r8,12(r16)
  8022cc:	81800215 	stw	r6,8(r16)
  8022d0:	07002074 	movhi	fp,129
  8022d4:	e727e704 	addi	fp,fp,-24676
  8022d8:	34000315 	stw	r16,12(r6)
  8022dc:	44000215 	stw	r16,8(r8)
  8022e0:	003f3e06 	br	801fdc <_malloc_r+0x218>
  8022e4:	63000044 	addi	r12,r12,1
  8022e8:	608000cc 	andi	r2,r12,3
  8022ec:	10005d26 	beq	r2,zero,802464 <_malloc_r+0x6a0>
  8022f0:	18c00204 	addi	r3,r3,8
  8022f4:	003f5106 	br	80203c <_malloc_r+0x278>
  8022f8:	8089883a 	add	r4,r16,r2
  8022fc:	003f6d06 	br	8020b4 <_malloc_r+0x2f0>
  802300:	00805504 	movi	r2,340
  802304:	10c02036 	bltu	r2,r3,802388 <_malloc_r+0x5c4>
  802308:	8804d3fa 	srli	r2,r17,15
  80230c:	11801dc4 	addi	r6,r2,119
  802310:	300490fa 	slli	r2,r6,3
  802314:	003ed806 	br	801e78 <_malloc_r+0xb4>
  802318:	48c000c4 	addi	r3,r9,3
  80231c:	003f3106 	br	801fe4 <_malloc_r+0x220>
  802320:	05c02074 	movhi	r23,129
  802324:	bdebfb04 	addi	r23,r23,-20500
  802328:	b8800017 	ldw	r2,0(r23)
  80232c:	988d883a 	add	r6,r19,r2
  802330:	b9800015 	stw	r6,0(r23)
  802334:	293fb21e 	bne	r5,r4,802200 <_malloc_r+0x43c>
  802338:	2083ffcc 	andi	r2,r4,4095
  80233c:	103fb01e 	bne	r2,zero,802200 <_malloc_r+0x43c>
  802340:	e4000217 	ldw	r16,8(fp)
  802344:	9d45883a 	add	r2,r19,r21
  802348:	10800054 	ori	r2,r2,1
  80234c:	80800115 	stw	r2,4(r16)
  802350:	b8c00017 	ldw	r3,0(r23)
  802354:	d0a29417 	ldw	r2,-30128(gp)
  802358:	10c0012e 	bgeu	r2,r3,802360 <_malloc_r+0x59c>
  80235c:	d0e29415 	stw	r3,-30128(gp)
  802360:	d0a29517 	ldw	r2,-30124(gp)
  802364:	10ff962e 	bgeu	r2,r3,8021c0 <_malloc_r+0x3fc>
  802368:	d0e29515 	stw	r3,-30124(gp)
  80236c:	003f9406 	br	8021c0 <_malloc_r+0x3fc>
  802370:	00800104 	movi	r2,4
  802374:	11001e36 	bltu	r2,r4,8023f0 <_malloc_r+0x62c>
  802378:	2804d1ba 	srli	r2,r5,6
  80237c:	11000e04 	addi	r4,r2,56
  802380:	200690fa 	slli	r3,r4,3
  802384:	003fc506 	br	80229c <_malloc_r+0x4d8>
  802388:	00815504 	movi	r2,1364
  80238c:	10c01d2e 	bgeu	r2,r3,802404 <_malloc_r+0x640>
  802390:	01801f84 	movi	r6,126
  802394:	0080fc04 	movi	r2,1008
  802398:	003eb706 	br	801e78 <_malloc_r+0xb4>
  80239c:	00800204 	movi	r2,8
  8023a0:	10cbc83a 	sub	r5,r2,r3
  8023a4:	2169883a 	add	r20,r4,r5
  8023a8:	003f9e06 	br	802224 <_malloc_r+0x460>
  8023ac:	00bffe04 	movi	r2,-8
  8023b0:	a93ffd04 	addi	r4,r21,-12
  8023b4:	2088703a 	and	r4,r4,r2
  8023b8:	b10b883a 	add	r5,r22,r4
  8023bc:	00c00144 	movi	r3,5
  8023c0:	28c00215 	stw	r3,8(r5)
  8023c4:	28c00115 	stw	r3,4(r5)
  8023c8:	b0800117 	ldw	r2,4(r22)
  8023cc:	1080004c 	andi	r2,r2,1
  8023d0:	2084b03a 	or	r2,r4,r2
  8023d4:	b0800115 	stw	r2,4(r22)
  8023d8:	313fdd2e 	bgeu	r6,r4,802350 <_malloc_r+0x58c>
  8023dc:	b1400204 	addi	r5,r22,8
  8023e0:	9009883a 	mov	r4,r18
  8023e4:	080328c0 	call	80328c <_free_r>
  8023e8:	e4000217 	ldw	r16,8(fp)
  8023ec:	003fd806 	br	802350 <_malloc_r+0x58c>
  8023f0:	00800504 	movi	r2,20
  8023f4:	11001536 	bltu	r2,r4,80244c <_malloc_r+0x688>
  8023f8:	210016c4 	addi	r4,r4,91
  8023fc:	200690fa 	slli	r3,r4,3
  802400:	003fa606 	br	80229c <_malloc_r+0x4d8>
  802404:	8804d4ba 	srli	r2,r17,18
  802408:	11801f04 	addi	r6,r2,124
  80240c:	300490fa 	slli	r2,r6,3
  802410:	003e9906 	br	801e78 <_malloc_r+0xb4>
  802414:	2009d0ba 	srai	r4,r4,2
  802418:	01402074 	movhi	r5,129
  80241c:	2967e704 	addi	r5,r5,-24676
  802420:	00c00044 	movi	r3,1
  802424:	28800117 	ldw	r2,4(r5)
  802428:	1906983a 	sll	r3,r3,r4
  80242c:	10c4b03a 	or	r2,r2,r3
  802430:	28800115 	stw	r2,4(r5)
  802434:	003fa306 	br	8022c4 <_malloc_r+0x500>
  802438:	0027883a 	mov	r19,zero
  80243c:	00c00044 	movi	r3,1
  802440:	003f8606 	br	80225c <_malloc_r+0x498>
  802444:	d1200315 	stw	r4,-32756(gp)
  802448:	003f7306 	br	802218 <_malloc_r+0x454>
  80244c:	00801504 	movi	r2,84
  802450:	11001936 	bltu	r2,r4,8024b8 <_malloc_r+0x6f4>
  802454:	2804d33a 	srli	r2,r5,12
  802458:	11001b84 	addi	r4,r2,110
  80245c:	200690fa 	slli	r3,r4,3
  802460:	003f8e06 	br	80229c <_malloc_r+0x4d8>
  802464:	480b883a 	mov	r5,r9
  802468:	6807883a 	mov	r3,r13
  80246c:	288000cc 	andi	r2,r5,3
  802470:	18fffe04 	addi	r3,r3,-8
  802474:	297fffc4 	addi	r5,r5,-1
  802478:	10001526 	beq	r2,zero,8024d0 <_malloc_r+0x70c>
  80247c:	18800217 	ldw	r2,8(r3)
  802480:	10fffa26 	beq	r2,r3,80246c <_malloc_r+0x6a8>
  802484:	2109883a 	add	r4,r4,r4
  802488:	393f1e36 	bltu	r7,r4,802104 <_malloc_r+0x340>
  80248c:	203f1d26 	beq	r4,zero,802104 <_malloc_r+0x340>
  802490:	21c4703a 	and	r2,r4,r7
  802494:	10000226 	beq	r2,zero,8024a0 <_malloc_r+0x6dc>
  802498:	6013883a 	mov	r9,r12
  80249c:	003ee106 	br	802024 <_malloc_r+0x260>
  8024a0:	2109883a 	add	r4,r4,r4
  8024a4:	3904703a 	and	r2,r7,r4
  8024a8:	63000104 	addi	r12,r12,4
  8024ac:	103ffc26 	beq	r2,zero,8024a0 <_malloc_r+0x6dc>
  8024b0:	6013883a 	mov	r9,r12
  8024b4:	003edb06 	br	802024 <_malloc_r+0x260>
  8024b8:	00805504 	movi	r2,340
  8024bc:	11000836 	bltu	r2,r4,8024e0 <_malloc_r+0x71c>
  8024c0:	2804d3fa 	srli	r2,r5,15
  8024c4:	11001dc4 	addi	r4,r2,119
  8024c8:	200690fa 	slli	r3,r4,3
  8024cc:	003f7306 	br	80229c <_malloc_r+0x4d8>
  8024d0:	0104303a 	nor	r2,zero,r4
  8024d4:	388e703a 	and	r7,r7,r2
  8024d8:	e1c00115 	stw	r7,4(fp)
  8024dc:	003fe906 	br	802484 <_malloc_r+0x6c0>
  8024e0:	00815504 	movi	r2,1364
  8024e4:	1100032e 	bgeu	r2,r4,8024f4 <_malloc_r+0x730>
  8024e8:	01001f84 	movi	r4,126
  8024ec:	00c0fc04 	movi	r3,1008
  8024f0:	003f6a06 	br	80229c <_malloc_r+0x4d8>
  8024f4:	2804d4ba 	srli	r2,r5,18
  8024f8:	11001f04 	addi	r4,r2,124
  8024fc:	200690fa 	slli	r3,r4,3
  802500:	003f6606 	br	80229c <_malloc_r+0x4d8>

00802504 <memcpy>:
  802504:	01c003c4 	movi	r7,15
  802508:	2007883a 	mov	r3,r4
  80250c:	3980032e 	bgeu	r7,r6,80251c <memcpy+0x18>
  802510:	2904b03a 	or	r2,r5,r4
  802514:	108000cc 	andi	r2,r2,3
  802518:	10000926 	beq	r2,zero,802540 <memcpy+0x3c>
  80251c:	30000626 	beq	r6,zero,802538 <memcpy+0x34>
  802520:	30cd883a 	add	r6,r6,r3
  802524:	28800003 	ldbu	r2,0(r5)
  802528:	29400044 	addi	r5,r5,1
  80252c:	18800005 	stb	r2,0(r3)
  802530:	18c00044 	addi	r3,r3,1
  802534:	30fffb1e 	bne	r6,r3,802524 <memcpy+0x20>
  802538:	2005883a 	mov	r2,r4
  80253c:	f800283a 	ret
  802540:	3811883a 	mov	r8,r7
  802544:	200f883a 	mov	r7,r4
  802548:	28c00017 	ldw	r3,0(r5)
  80254c:	31bffc04 	addi	r6,r6,-16
  802550:	38c00015 	stw	r3,0(r7)
  802554:	28800117 	ldw	r2,4(r5)
  802558:	38800115 	stw	r2,4(r7)
  80255c:	28c00217 	ldw	r3,8(r5)
  802560:	38c00215 	stw	r3,8(r7)
  802564:	28800317 	ldw	r2,12(r5)
  802568:	29400404 	addi	r5,r5,16
  80256c:	38800315 	stw	r2,12(r7)
  802570:	39c00404 	addi	r7,r7,16
  802574:	41bff436 	bltu	r8,r6,802548 <memcpy+0x44>
  802578:	008000c4 	movi	r2,3
  80257c:	1180072e 	bgeu	r2,r6,80259c <memcpy+0x98>
  802580:	1007883a 	mov	r3,r2
  802584:	28800017 	ldw	r2,0(r5)
  802588:	31bfff04 	addi	r6,r6,-4
  80258c:	29400104 	addi	r5,r5,4
  802590:	38800015 	stw	r2,0(r7)
  802594:	39c00104 	addi	r7,r7,4
  802598:	19bffa36 	bltu	r3,r6,802584 <memcpy+0x80>
  80259c:	3807883a 	mov	r3,r7
  8025a0:	003fde06 	br	80251c <memcpy+0x18>

008025a4 <srand>:
  8025a4:	00802074 	movhi	r2,129
  8025a8:	10a95e04 	addi	r2,r2,-23176
  8025ac:	11400017 	ldw	r5,0(r2)
  8025b0:	0007883a 	mov	r3,zero
  8025b4:	28c02a15 	stw	r3,168(r5)
  8025b8:	29002915 	stw	r4,164(r5)
  8025bc:	f800283a 	ret

008025c0 <rand>:
  8025c0:	defffe04 	addi	sp,sp,-8
  8025c4:	00802074 	movhi	r2,129
  8025c8:	10a95e04 	addi	r2,r2,-23176
  8025cc:	dc000015 	stw	r16,0(sp)
  8025d0:	14000017 	ldw	r16,0(r2)
  8025d4:	dfc00115 	stw	ra,4(sp)
  8025d8:	00932574 	movhi	r2,19605
  8025dc:	109fcb44 	addi	r2,r2,32557
  8025e0:	82002917 	ldw	r8,164(r16)
  8025e4:	82402a17 	ldw	r9,168(r16)
  8025e8:	00d614b4 	movhi	r3,22610
  8025ec:	18fd0b44 	addi	r3,r3,-3027
  8025f0:	4009883a 	mov	r4,r8
  8025f4:	180f883a 	mov	r7,r3
  8025f8:	100d883a 	mov	r6,r2
  8025fc:	480b883a 	mov	r5,r9
  802600:	080660c0 	call	80660c <__muldi3>
  802604:	02000044 	movi	r8,1
  802608:	1209883a 	add	r4,r2,r8
  80260c:	2095803a 	cmpltu	r10,r4,r2
  802610:	50d5883a 	add	r10,r10,r3
  802614:	81002915 	stw	r4,164(r16)
  802618:	01200034 	movhi	r4,32768
  80261c:	213fffc4 	addi	r4,r4,-1
  802620:	2284703a 	and	r2,r4,r10
  802624:	82802a15 	stw	r10,168(r16)
  802628:	dfc00117 	ldw	ra,4(sp)
  80262c:	dc000017 	ldw	r16,0(sp)
  802630:	dec00204 	addi	sp,sp,8
  802634:	f800283a 	ret

00802638 <_sbrk_r>:
  802638:	defffd04 	addi	sp,sp,-12
  80263c:	dc000015 	stw	r16,0(sp)
  802640:	04002074 	movhi	r16,129
  802644:	842bf404 	addi	r16,r16,-20528
  802648:	dc400115 	stw	r17,4(sp)
  80264c:	80000015 	stw	zero,0(r16)
  802650:	2023883a 	mov	r17,r4
  802654:	2809883a 	mov	r4,r5
  802658:	dfc00215 	stw	ra,8(sp)
  80265c:	080729c0 	call	80729c <sbrk>
  802660:	1007883a 	mov	r3,r2
  802664:	00bfffc4 	movi	r2,-1
  802668:	18800626 	beq	r3,r2,802684 <_sbrk_r+0x4c>
  80266c:	1805883a 	mov	r2,r3
  802670:	dfc00217 	ldw	ra,8(sp)
  802674:	dc400117 	ldw	r17,4(sp)
  802678:	dc000017 	ldw	r16,0(sp)
  80267c:	dec00304 	addi	sp,sp,12
  802680:	f800283a 	ret
  802684:	80800017 	ldw	r2,0(r16)
  802688:	103ff826 	beq	r2,zero,80266c <_sbrk_r+0x34>
  80268c:	88800015 	stw	r2,0(r17)
  802690:	1805883a 	mov	r2,r3
  802694:	dfc00217 	ldw	ra,8(sp)
  802698:	dc400117 	ldw	r17,4(sp)
  80269c:	dc000017 	ldw	r16,0(sp)
  8026a0:	dec00304 	addi	sp,sp,12
  8026a4:	f800283a 	ret

008026a8 <print_e>:
  8026a8:	defff404 	addi	sp,sp,-48
  8026ac:	dcc00a15 	stw	r19,40(sp)
  8026b0:	dcc00c17 	ldw	r19,48(sp)
  8026b4:	3005883a 	mov	r2,r6
  8026b8:	dc400815 	stw	r17,32(sp)
  8026bc:	2823883a 	mov	r17,r5
  8026c0:	100b883a 	mov	r5,r2
  8026c4:	d8800604 	addi	r2,sp,24
  8026c8:	380d883a 	mov	r6,r7
  8026cc:	9a000044 	addi	r8,r19,1
  8026d0:	d8800115 	stw	r2,4(sp)
  8026d4:	d8c00504 	addi	r3,sp,20
  8026d8:	d8800404 	addi	r2,sp,16
  8026dc:	01c00084 	movi	r7,2
  8026e0:	dc800915 	stw	r18,36(sp)
  8026e4:	dc000715 	stw	r16,28(sp)
  8026e8:	dfc00b15 	stw	ra,44(sp)
  8026ec:	da000015 	stw	r8,0(sp)
  8026f0:	d8c00315 	stw	r3,12(sp)
  8026f4:	d8800215 	stw	r2,8(sp)
  8026f8:	dc800d03 	ldbu	r18,52(sp)
  8026fc:	0804ee00 	call	804ee0 <_dtoa_r>
  802700:	dc000617 	ldw	r16,24(sp)
  802704:	100b883a 	mov	r5,r2
  802708:	0089c3c4 	movi	r2,9999
  80270c:	80805926 	beq	r16,r2,802874 <print_e+0x1cc>
  802710:	28c00003 	ldbu	r3,0(r5)
  802714:	89000044 	addi	r4,r17,1
  802718:	29400044 	addi	r5,r5,1
  80271c:	88c00005 	stb	r3,0(r17)
  802720:	d8800e17 	ldw	r2,56(sp)
  802724:	10004326 	beq	r2,zero,802834 <print_e+0x18c>
  802728:	00800b84 	movi	r2,46
  80272c:	20800005 	stb	r2,0(r4)
  802730:	9811883a 	mov	r8,r19
  802734:	21000044 	addi	r4,r4,1
  802738:	28800003 	ldbu	r2,0(r5)
  80273c:	10000926 	beq	r2,zero,802764 <print_e+0xbc>
  802740:	02000216 	blt	zero,r8,80274c <print_e+0xa4>
  802744:	00000706 	br	802764 <print_e+0xbc>
  802748:	40000626 	beq	r8,zero,802764 <print_e+0xbc>
  80274c:	20800005 	stb	r2,0(r4)
  802750:	29400044 	addi	r5,r5,1
  802754:	28800003 	ldbu	r2,0(r5)
  802758:	423fffc4 	addi	r8,r8,-1
  80275c:	21000044 	addi	r4,r4,1
  802760:	103ff91e 	bne	r2,zero,802748 <print_e+0xa0>
  802764:	90c03fcc 	andi	r3,r18,255
  802768:	18c0201c 	xori	r3,r3,128
  80276c:	18ffe004 	addi	r3,r3,-128
  802770:	008019c4 	movi	r2,103
  802774:	18803226 	beq	r3,r2,802840 <print_e+0x198>
  802778:	008011c4 	movi	r2,71
  80277c:	18803b26 	beq	r3,r2,80286c <print_e+0x1c4>
  802780:	0200080e 	bge	zero,r8,8027a4 <print_e+0xfc>
  802784:	2007883a 	mov	r3,r4
  802788:	4005883a 	mov	r2,r8
  80278c:	01400c04 	movi	r5,48
  802790:	10bfffc4 	addi	r2,r2,-1
  802794:	19400005 	stb	r5,0(r3)
  802798:	18c00044 	addi	r3,r3,1
  80279c:	103ffc1e 	bne	r2,zero,802790 <print_e+0xe8>
  8027a0:	2209883a 	add	r4,r4,r8
  8027a4:	843fffc4 	addi	r16,r16,-1
  8027a8:	24800005 	stb	r18,0(r4)
  8027ac:	dc000615 	stw	r16,24(sp)
  8027b0:	80002816 	blt	r16,zero,802854 <print_e+0x1ac>
  8027b4:	00800ac4 	movi	r2,43
  8027b8:	20800045 	stb	r2,1(r4)
  8027bc:	24400084 	addi	r17,r4,2
  8027c0:	008018c4 	movi	r2,99
  8027c4:	1400090e 	bge	r2,r16,8027ec <print_e+0x144>
  8027c8:	8009883a 	mov	r4,r16
  8027cc:	01401904 	movi	r5,100
  8027d0:	0806fe40 	call	806fe4 <__divsi3>
  8027d4:	10c01924 	muli	r3,r2,100
  8027d8:	10800c04 	addi	r2,r2,48
  8027dc:	88800005 	stb	r2,0(r17)
  8027e0:	80e1c83a 	sub	r16,r16,r3
  8027e4:	8c400044 	addi	r17,r17,1
  8027e8:	dc000615 	stw	r16,24(sp)
  8027ec:	8009883a 	mov	r4,r16
  8027f0:	01400284 	movi	r5,10
  8027f4:	0806fe40 	call	806fe4 <__divsi3>
  8027f8:	10c002a4 	muli	r3,r2,10
  8027fc:	10800c04 	addi	r2,r2,48
  802800:	88800005 	stb	r2,0(r17)
  802804:	80c7c83a 	sub	r3,r16,r3
  802808:	18800c04 	addi	r2,r3,48
  80280c:	88800045 	stb	r2,1(r17)
  802810:	88000085 	stb	zero,2(r17)
  802814:	d8c00615 	stw	r3,24(sp)
  802818:	dfc00b17 	ldw	ra,44(sp)
  80281c:	dcc00a17 	ldw	r19,40(sp)
  802820:	dc800917 	ldw	r18,36(sp)
  802824:	dc400817 	ldw	r17,32(sp)
  802828:	dc000717 	ldw	r16,28(sp)
  80282c:	dec00c04 	addi	sp,sp,48
  802830:	f800283a 	ret
  802834:	983fbc1e 	bne	r19,zero,802728 <print_e+0x80>
  802838:	0011883a 	mov	r8,zero
  80283c:	003fbe06 	br	802738 <print_e+0x90>
  802840:	04801944 	movi	r18,101
  802844:	843fffc4 	addi	r16,r16,-1
  802848:	24800005 	stb	r18,0(r4)
  80284c:	dc000615 	stw	r16,24(sp)
  802850:	803fd80e 	bge	r16,zero,8027b4 <print_e+0x10c>
  802854:	00800b44 	movi	r2,45
  802858:	0421c83a 	sub	r16,zero,r16
  80285c:	20800045 	stb	r2,1(r4)
  802860:	24400084 	addi	r17,r4,2
  802864:	dc000615 	stw	r16,24(sp)
  802868:	003fd506 	br	8027c0 <print_e+0x118>
  80286c:	04801144 	movi	r18,69
  802870:	003fcc06 	br	8027a4 <print_e+0xfc>
  802874:	8809883a 	mov	r4,r17
  802878:	0804b880 	call	804b88 <strcpy>
  80287c:	dfc00b17 	ldw	ra,44(sp)
  802880:	dcc00a17 	ldw	r19,40(sp)
  802884:	dc800917 	ldw	r18,36(sp)
  802888:	dc400817 	ldw	r17,32(sp)
  80288c:	dc000717 	ldw	r16,28(sp)
  802890:	dec00c04 	addi	sp,sp,48
  802894:	f800283a 	ret

00802898 <_gcvt>:
  802898:	defff104 	addi	sp,sp,-60
  80289c:	dc400815 	stw	r17,32(sp)
  8028a0:	0005883a 	mov	r2,zero
  8028a4:	3023883a 	mov	r17,r6
  8028a8:	dcc00a15 	stw	r19,40(sp)
  8028ac:	dc800915 	stw	r18,36(sp)
  8028b0:	dc000715 	stw	r16,28(sp)
  8028b4:	2027883a 	mov	r19,r4
  8028b8:	2821883a 	mov	r16,r5
  8028bc:	3825883a 	mov	r18,r7
  8028c0:	2809883a 	mov	r4,r5
  8028c4:	100d883a 	mov	r6,r2
  8028c8:	880b883a 	mov	r5,r17
  8028cc:	000f883a 	mov	r7,zero
  8028d0:	dd800d15 	stw	r22,52(sp)
  8028d4:	dd400c15 	stw	r21,48(sp)
  8028d8:	dd000b15 	stw	r20,44(sp)
  8028dc:	dfc00e15 	stw	ra,56(sp)
  8028e0:	dd400f17 	ldw	r21,60(sp)
  8028e4:	dd801117 	ldw	r22,68(sp)
  8028e8:	dd001003 	ldbu	r20,64(sp)
  8028ec:	0806c880 	call	806c88 <__ltdf2>
  8028f0:	10008e16 	blt	r2,zero,802b2c <_gcvt+0x294>
  8028f4:	000d883a 	mov	r6,zero
  8028f8:	000f883a 	mov	r7,zero
  8028fc:	8009883a 	mov	r4,r16
  802900:	880b883a 	mov	r5,r17
  802904:	0806a680 	call	806a68 <__eqdf2>
  802908:	10000e1e 	bne	r2,zero,802944 <_gcvt+0xac>
  80290c:	00800c04 	movi	r2,48
  802910:	a8800005 	stb	r2,0(r21)
  802914:	a8000045 	stb	zero,1(r21)
  802918:	a805883a 	mov	r2,r21
  80291c:	dfc00e17 	ldw	ra,56(sp)
  802920:	dd800d17 	ldw	r22,52(sp)
  802924:	dd400c17 	ldw	r21,48(sp)
  802928:	dd000b17 	ldw	r20,44(sp)
  80292c:	dcc00a17 	ldw	r19,40(sp)
  802930:	dc800917 	ldw	r18,36(sp)
  802934:	dc400817 	ldw	r17,32(sp)
  802938:	dc000717 	ldw	r16,28(sp)
  80293c:	dec00f04 	addi	sp,sp,60
  802940:	f800283a 	ret
  802944:	00bac734 	movhi	r2,60188
  802948:	1090cb44 	addi	r2,r2,17197
  80294c:	00cfc6b4 	movhi	r3,16154
  802950:	18cdb884 	addi	r3,r3,14050
  802954:	180f883a 	mov	r7,r3
  802958:	8009883a 	mov	r4,r16
  80295c:	880b883a 	mov	r5,r17
  802960:	100d883a 	mov	r6,r2
  802964:	0806d100 	call	806d10 <__ledf2>
  802968:	00800d16 	blt	zero,r2,8029a0 <_gcvt+0x108>
  80296c:	a0c03fcc 	andi	r3,r20,255
  802970:	18c0201c 	xori	r3,r3,128
  802974:	90bfffc4 	addi	r2,r18,-1
  802978:	18ffe004 	addi	r3,r3,-128
  80297c:	9809883a 	mov	r4,r19
  802980:	880f883a 	mov	r7,r17
  802984:	a80b883a 	mov	r5,r21
  802988:	800d883a 	mov	r6,r16
  80298c:	d8800015 	stw	r2,0(sp)
  802990:	d8c00115 	stw	r3,4(sp)
  802994:	dd800215 	stw	r22,8(sp)
  802998:	08026a80 	call	8026a8 <print_e>
  80299c:	003fde06 	br	802918 <_gcvt+0x80>
  8029a0:	9009883a 	mov	r4,r18
  8029a4:	08039ac0 	call	8039ac <_mprec_log10>
  8029a8:	180f883a 	mov	r7,r3
  8029ac:	8009883a 	mov	r4,r16
  8029b0:	880b883a 	mov	r5,r17
  8029b4:	100d883a 	mov	r6,r2
  8029b8:	0806c000 	call	806c00 <__gedf2>
  8029bc:	103feb0e 	bge	r2,zero,80296c <_gcvt+0xd4>
  8029c0:	0005883a 	mov	r2,zero
  8029c4:	00cffc34 	movhi	r3,16368
  8029c8:	180f883a 	mov	r7,r3
  8029cc:	8009883a 	mov	r4,r16
  8029d0:	880b883a 	mov	r5,r17
  8029d4:	100d883a 	mov	r6,r2
  8029d8:	0806c880 	call	806c88 <__ltdf2>
  8029dc:	10005616 	blt	r2,zero,802b38 <_gcvt+0x2a0>
  8029e0:	9809883a 	mov	r4,r19
  8029e4:	880d883a 	mov	r6,r17
  8029e8:	800b883a 	mov	r5,r16
  8029ec:	01c00084 	movi	r7,2
  8029f0:	d8800504 	addi	r2,sp,20
  8029f4:	d8800215 	stw	r2,8(sp)
  8029f8:	d8c00604 	addi	r3,sp,24
  8029fc:	d8800404 	addi	r2,sp,16
  802a00:	d8c00315 	stw	r3,12(sp)
  802a04:	dc800015 	stw	r18,0(sp)
  802a08:	d8800115 	stw	r2,4(sp)
  802a0c:	0804ee00 	call	804ee0 <_dtoa_r>
  802a10:	d9000417 	ldw	r4,16(sp)
  802a14:	100b883a 	mov	r5,r2
  802a18:	0089c3c4 	movi	r2,9999
  802a1c:	20804b26 	beq	r4,r2,802b4c <_gcvt+0x2b4>
  802a20:	28800003 	ldbu	r2,0(r5)
  802a24:	10005026 	beq	r2,zero,802b68 <_gcvt+0x2d0>
  802a28:	0100510e 	bge	zero,r4,802b70 <_gcvt+0x2d8>
  802a2c:	a807883a 	mov	r3,r21
  802a30:	00000106 	br	802a38 <_gcvt+0x1a0>
  802a34:	0100130e 	bge	zero,r4,802a84 <_gcvt+0x1ec>
  802a38:	18800005 	stb	r2,0(r3)
  802a3c:	213fffc4 	addi	r4,r4,-1
  802a40:	d9000415 	stw	r4,16(sp)
  802a44:	29400044 	addi	r5,r5,1
  802a48:	28800003 	ldbu	r2,0(r5)
  802a4c:	18c00044 	addi	r3,r3,1
  802a50:	94bfffc4 	addi	r18,r18,-1
  802a54:	103ff71e 	bne	r2,zero,802a34 <_gcvt+0x19c>
  802a58:	01000a0e 	bge	zero,r4,802a84 <_gcvt+0x1ec>
  802a5c:	0480090e 	bge	zero,r18,802a84 <_gcvt+0x1ec>
  802a60:	00800c04 	movi	r2,48
  802a64:	00000106 	br	802a6c <_gcvt+0x1d4>
  802a68:	90000526 	beq	r18,zero,802a80 <_gcvt+0x1e8>
  802a6c:	213fffc4 	addi	r4,r4,-1
  802a70:	18800005 	stb	r2,0(r3)
  802a74:	94bfffc4 	addi	r18,r18,-1
  802a78:	18c00044 	addi	r3,r3,1
  802a7c:	013ffa16 	blt	zero,r4,802a68 <_gcvt+0x1d0>
  802a80:	d9000415 	stw	r4,16(sp)
  802a84:	b000021e 	bne	r22,zero,802a90 <_gcvt+0x1f8>
  802a88:	28800007 	ldb	r2,0(r5)
  802a8c:	10002526 	beq	r2,zero,802b24 <_gcvt+0x28c>
  802a90:	a8c03126 	beq	r21,r3,802b58 <_gcvt+0x2c0>
  802a94:	00800b84 	movi	r2,46
  802a98:	18800005 	stb	r2,0(r3)
  802a9c:	18c00044 	addi	r3,r3,1
  802aa0:	20000b0e 	bge	r4,zero,802ad0 <_gcvt+0x238>
  802aa4:	04800a0e 	bge	zero,r18,802ad0 <_gcvt+0x238>
  802aa8:	01800c04 	movi	r6,48
  802aac:	00000106 	br	802ab4 <_gcvt+0x21c>
  802ab0:	90000626 	beq	r18,zero,802acc <_gcvt+0x234>
  802ab4:	20800044 	addi	r2,r4,1
  802ab8:	19800005 	stb	r6,0(r3)
  802abc:	94bfffc4 	addi	r18,r18,-1
  802ac0:	18c00044 	addi	r3,r3,1
  802ac4:	1009883a 	mov	r4,r2
  802ac8:	103ff916 	blt	r2,zero,802ab0 <_gcvt+0x218>
  802acc:	d8800415 	stw	r2,16(sp)
  802ad0:	28800003 	ldbu	r2,0(r5)
  802ad4:	10000926 	beq	r2,zero,802afc <_gcvt+0x264>
  802ad8:	04800216 	blt	zero,r18,802ae4 <_gcvt+0x24c>
  802adc:	00000706 	br	802afc <_gcvt+0x264>
  802ae0:	90000626 	beq	r18,zero,802afc <_gcvt+0x264>
  802ae4:	18800005 	stb	r2,0(r3)
  802ae8:	29400044 	addi	r5,r5,1
  802aec:	28800003 	ldbu	r2,0(r5)
  802af0:	94bfffc4 	addi	r18,r18,-1
  802af4:	18c00044 	addi	r3,r3,1
  802af8:	103ff91e 	bne	r2,zero,802ae0 <_gcvt+0x248>
  802afc:	b0000926 	beq	r22,zero,802b24 <_gcvt+0x28c>
  802b00:	0480080e 	bge	zero,r18,802b24 <_gcvt+0x28c>
  802b04:	9009883a 	mov	r4,r18
  802b08:	1805883a 	mov	r2,r3
  802b0c:	01400c04 	movi	r5,48
  802b10:	213fffc4 	addi	r4,r4,-1
  802b14:	11400005 	stb	r5,0(r2)
  802b18:	10800044 	addi	r2,r2,1
  802b1c:	203ffc1e 	bne	r4,zero,802b10 <_gcvt+0x278>
  802b20:	1c87883a 	add	r3,r3,r18
  802b24:	18000005 	stb	zero,0(r3)
  802b28:	003f7b06 	br	802918 <_gcvt+0x80>
  802b2c:	88e0003c 	xorhi	r3,r17,32768
  802b30:	1823883a 	mov	r17,r3
  802b34:	003f6f06 	br	8028f4 <_gcvt+0x5c>
  802b38:	9809883a 	mov	r4,r19
  802b3c:	880d883a 	mov	r6,r17
  802b40:	800b883a 	mov	r5,r16
  802b44:	01c000c4 	movi	r7,3
  802b48:	003fa906 	br	8029f0 <_gcvt+0x158>
  802b4c:	a809883a 	mov	r4,r21
  802b50:	0804b880 	call	804b88 <strcpy>
  802b54:	003f7006 	br	802918 <_gcvt+0x80>
  802b58:	00800c04 	movi	r2,48
  802b5c:	a8c00044 	addi	r3,r21,1
  802b60:	a8800005 	stb	r2,0(r21)
  802b64:	003fcb06 	br	802a94 <_gcvt+0x1fc>
  802b68:	a807883a 	mov	r3,r21
  802b6c:	003fba06 	br	802a58 <_gcvt+0x1c0>
  802b70:	a807883a 	mov	r3,r21
  802b74:	003fc306 	br	802a84 <_gcvt+0x1ec>

00802b78 <_dcvt>:
  802b78:	defff504 	addi	sp,sp,-44
  802b7c:	d8800d17 	ldw	r2,52(sp)
  802b80:	3011883a 	mov	r8,r6
  802b84:	dc800915 	stw	r18,36(sp)
  802b88:	10ffeec4 	addi	r3,r2,-69
  802b8c:	12c03fcc 	andi	r11,r2,255
  802b90:	19803fcc 	andi	r6,r3,255
  802b94:	5ac0201c 	xori	r11,r11,128
  802b98:	00c00884 	movi	r3,34
  802b9c:	dc400815 	stw	r17,32(sp)
  802ba0:	dc000715 	stw	r16,28(sp)
  802ba4:	dfc00a15 	stw	ra,40(sp)
  802ba8:	2015883a 	mov	r10,r4
  802bac:	2823883a 	mov	r17,r5
  802bb0:	3813883a 	mov	r9,r7
  802bb4:	dc000b17 	ldw	r16,44(sp)
  802bb8:	dc800e17 	ldw	r18,56(sp)
  802bbc:	5affe004 	addi	r11,r11,-128
  802bc0:	19803436 	bltu	r3,r6,802c94 <_dcvt+0x11c>
  802bc4:	3185883a 	add	r2,r6,r6
  802bc8:	1085883a 	add	r2,r2,r2
  802bcc:	00c02034 	movhi	r3,128
  802bd0:	18caf804 	addi	r3,r3,11232
  802bd4:	10c5883a 	add	r2,r2,r3
  802bd8:	11000017 	ldw	r4,0(r2)
  802bdc:	2000683a 	jmp	r4
  802be0:	00802cb0 	cmpltui	r2,zero,178
  802be4:	00802ce4 	muli	r2,zero,179
  802be8:	00802c6c 	andhi	r2,zero,177
  802bec:	00802c94 	movui	r2,178
  802bf0:	00802c94 	movui	r2,178
  802bf4:	00802c94 	movui	r2,178
  802bf8:	00802c94 	movui	r2,178
  802bfc:	00802c94 	movui	r2,178
  802c00:	00802c94 	movui	r2,178
  802c04:	00802c94 	movui	r2,178
  802c08:	00802c94 	movui	r2,178
  802c0c:	00802c94 	movui	r2,178
  802c10:	00802c94 	movui	r2,178
  802c14:	00802c94 	movui	r2,178
  802c18:	00802c94 	movui	r2,178
  802c1c:	00802c94 	movui	r2,178
  802c20:	00802c94 	movui	r2,178
  802c24:	00802c94 	movui	r2,178
  802c28:	00802c94 	movui	r2,178
  802c2c:	00802c94 	movui	r2,178
  802c30:	00802c94 	movui	r2,178
  802c34:	00802c94 	movui	r2,178
  802c38:	00802c94 	movui	r2,178
  802c3c:	00802c94 	movui	r2,178
  802c40:	00802c94 	movui	r2,178
  802c44:	00802c94 	movui	r2,178
  802c48:	00802c94 	movui	r2,178
  802c4c:	00802c94 	movui	r2,178
  802c50:	00802c94 	movui	r2,178
  802c54:	00802c94 	movui	r2,178
  802c58:	00802c94 	movui	r2,178
  802c5c:	00802c94 	movui	r2,178
  802c60:	00802cb0 	cmpltui	r2,zero,178
  802c64:	00802ce4 	muli	r2,zero,179
  802c68:	00802c6c 	andhi	r2,zero,177
  802c6c:	8000011e 	bne	r16,zero,802c74 <_dcvt+0xfc>
  802c70:	04000044 	movi	r16,1
  802c74:	5009883a 	mov	r4,r10
  802c78:	480d883a 	mov	r6,r9
  802c7c:	800f883a 	mov	r7,r16
  802c80:	400b883a 	mov	r5,r8
  802c84:	dac00115 	stw	r11,4(sp)
  802c88:	dc800215 	stw	r18,8(sp)
  802c8c:	dc400015 	stw	r17,0(sp)
  802c90:	08028980 	call	802898 <_gcvt>
  802c94:	8805883a 	mov	r2,r17
  802c98:	dfc00a17 	ldw	ra,40(sp)
  802c9c:	dc800917 	ldw	r18,36(sp)
  802ca0:	dc400817 	ldw	r17,32(sp)
  802ca4:	dc000717 	ldw	r16,28(sp)
  802ca8:	dec00b04 	addi	sp,sp,44
  802cac:	f800283a 	ret
  802cb0:	5009883a 	mov	r4,r10
  802cb4:	400d883a 	mov	r6,r8
  802cb8:	dc000015 	stw	r16,0(sp)
  802cbc:	dac00115 	stw	r11,4(sp)
  802cc0:	dc800215 	stw	r18,8(sp)
  802cc4:	08026a80 	call	8026a8 <print_e>
  802cc8:	8805883a 	mov	r2,r17
  802ccc:	dfc00a17 	ldw	ra,40(sp)
  802cd0:	dc800917 	ldw	r18,36(sp)
  802cd4:	dc400817 	ldw	r17,32(sp)
  802cd8:	dc000717 	ldw	r16,28(sp)
  802cdc:	dec00b04 	addi	sp,sp,44
  802ce0:	f800283a 	ret
  802ce4:	80000126 	beq	r16,zero,802cec <_dcvt+0x174>
  802ce8:	04800044 	movi	r18,1
  802cec:	d8800504 	addi	r2,sp,20
  802cf0:	d8c00604 	addi	r3,sp,24
  802cf4:	400b883a 	mov	r5,r8
  802cf8:	d8800215 	stw	r2,8(sp)
  802cfc:	5009883a 	mov	r4,r10
  802d00:	d8800404 	addi	r2,sp,16
  802d04:	480d883a 	mov	r6,r9
  802d08:	01c000c4 	movi	r7,3
  802d0c:	d8c00315 	stw	r3,12(sp)
  802d10:	dc000015 	stw	r16,0(sp)
  802d14:	d8800115 	stw	r2,4(sp)
  802d18:	0804ee00 	call	804ee0 <_dtoa_r>
  802d1c:	d9400417 	ldw	r5,16(sp)
  802d20:	1007883a 	mov	r3,r2
  802d24:	0089c3c4 	movi	r2,9999
  802d28:	28804626 	beq	r5,r2,802e44 <_dcvt+0x2cc>
  802d2c:	18800003 	ldbu	r2,0(r3)
  802d30:	10004c26 	beq	r2,zero,802e64 <_dcvt+0x2ec>
  802d34:	0140120e 	bge	zero,r5,802d80 <_dcvt+0x208>
  802d38:	8809883a 	mov	r4,r17
  802d3c:	180d883a 	mov	r6,r3
  802d40:	00000106 	br	802d48 <_dcvt+0x1d0>
  802d44:	0140100e 	bge	zero,r5,802d88 <_dcvt+0x210>
  802d48:	20800005 	stb	r2,0(r4)
  802d4c:	297fffc4 	addi	r5,r5,-1
  802d50:	31800044 	addi	r6,r6,1
  802d54:	d9400415 	stw	r5,16(sp)
  802d58:	30800003 	ldbu	r2,0(r6)
  802d5c:	21000044 	addi	r4,r4,1
  802d60:	103ff81e 	bne	r2,zero,802d44 <_dcvt+0x1cc>
  802d64:	0140080e 	bge	zero,r5,802d88 <_dcvt+0x210>
  802d68:	00800c04 	movi	r2,48
  802d6c:	20800005 	stb	r2,0(r4)
  802d70:	297fffc4 	addi	r5,r5,-1
  802d74:	21000044 	addi	r4,r4,1
  802d78:	d9400415 	stw	r5,16(sp)
  802d7c:	003ff906 	br	802d64 <_dcvt+0x1ec>
  802d80:	8809883a 	mov	r4,r17
  802d84:	180d883a 	mov	r6,r3
  802d88:	9000021e 	bne	r18,zero,802d94 <_dcvt+0x21c>
  802d8c:	30800007 	ldb	r2,0(r6)
  802d90:	10002426 	beq	r2,zero,802e24 <_dcvt+0x2ac>
  802d94:	19802f26 	beq	r3,r6,802e54 <_dcvt+0x2dc>
  802d98:	00800b84 	movi	r2,46
  802d9c:	20800005 	stb	r2,0(r4)
  802da0:	21000044 	addi	r4,r4,1
  802da4:	28000b0e 	bge	r5,zero,802dd4 <_dcvt+0x25c>
  802da8:	04000216 	blt	zero,r16,802db4 <_dcvt+0x23c>
  802dac:	00000906 	br	802dd4 <_dcvt+0x25c>
  802db0:	80000826 	beq	r16,zero,802dd4 <_dcvt+0x25c>
  802db4:	00800c04 	movi	r2,48
  802db8:	28c00044 	addi	r3,r5,1
  802dbc:	20800005 	stb	r2,0(r4)
  802dc0:	d8c00415 	stw	r3,16(sp)
  802dc4:	21000044 	addi	r4,r4,1
  802dc8:	843fffc4 	addi	r16,r16,-1
  802dcc:	180b883a 	mov	r5,r3
  802dd0:	183ff716 	blt	r3,zero,802db0 <_dcvt+0x238>
  802dd4:	30800003 	ldbu	r2,0(r6)
  802dd8:	10000926 	beq	r2,zero,802e00 <_dcvt+0x288>
  802ddc:	04000216 	blt	zero,r16,802de8 <_dcvt+0x270>
  802de0:	00001006 	br	802e24 <_dcvt+0x2ac>
  802de4:	80000f26 	beq	r16,zero,802e24 <_dcvt+0x2ac>
  802de8:	20800005 	stb	r2,0(r4)
  802dec:	31800044 	addi	r6,r6,1
  802df0:	30800003 	ldbu	r2,0(r6)
  802df4:	21000044 	addi	r4,r4,1
  802df8:	843fffc4 	addi	r16,r16,-1
  802dfc:	103ff91e 	bne	r2,zero,802de4 <_dcvt+0x26c>
  802e00:	0400080e 	bge	zero,r16,802e24 <_dcvt+0x2ac>
  802e04:	2007883a 	mov	r3,r4
  802e08:	8005883a 	mov	r2,r16
  802e0c:	01400c04 	movi	r5,48
  802e10:	10bfffc4 	addi	r2,r2,-1
  802e14:	19400005 	stb	r5,0(r3)
  802e18:	18c00044 	addi	r3,r3,1
  802e1c:	103ffc1e 	bne	r2,zero,802e10 <_dcvt+0x298>
  802e20:	2409883a 	add	r4,r4,r16
  802e24:	8805883a 	mov	r2,r17
  802e28:	20000005 	stb	zero,0(r4)
  802e2c:	dfc00a17 	ldw	ra,40(sp)
  802e30:	dc800917 	ldw	r18,36(sp)
  802e34:	dc400817 	ldw	r17,32(sp)
  802e38:	dc000717 	ldw	r16,28(sp)
  802e3c:	dec00b04 	addi	sp,sp,44
  802e40:	f800283a 	ret
  802e44:	180b883a 	mov	r5,r3
  802e48:	8809883a 	mov	r4,r17
  802e4c:	0804b880 	call	804b88 <strcpy>
  802e50:	003f9006 	br	802c94 <_dcvt+0x11c>
  802e54:	00800c04 	movi	r2,48
  802e58:	20800005 	stb	r2,0(r4)
  802e5c:	21000044 	addi	r4,r4,1
  802e60:	003fcd06 	br	802d98 <_dcvt+0x220>
  802e64:	8809883a 	mov	r4,r17
  802e68:	180d883a 	mov	r6,r3
  802e6c:	003fbd06 	br	802d64 <_dcvt+0x1ec>

00802e70 <ecvtbuf>:
  802e70:	defff404 	addi	sp,sp,-48
  802e74:	dc800715 	stw	r18,28(sp)
  802e78:	dc800d17 	ldw	r18,52(sp)
  802e7c:	dd000915 	stw	r20,36(sp)
  802e80:	dcc00815 	stw	r19,32(sp)
  802e84:	dc400615 	stw	r17,24(sp)
  802e88:	dc000515 	stw	r16,20(sp)
  802e8c:	dfc00b15 	stw	ra,44(sp)
  802e90:	dd400a15 	stw	r21,40(sp)
  802e94:	2021883a 	mov	r16,r4
  802e98:	2823883a 	mov	r17,r5
  802e9c:	3027883a 	mov	r19,r6
  802ea0:	3829883a 	mov	r20,r7
  802ea4:	90002d26 	beq	r18,zero,802f5c <ecvtbuf+0xec>
  802ea8:	05402074 	movhi	r21,129
  802eac:	ad695e04 	addi	r21,r21,-23176
  802eb0:	d8800c17 	ldw	r2,48(sp)
  802eb4:	a9000017 	ldw	r4,0(r21)
  802eb8:	880d883a 	mov	r6,r17
  802ebc:	d8800215 	stw	r2,8(sp)
  802ec0:	800b883a 	mov	r5,r16
  802ec4:	d8800404 	addi	r2,sp,16
  802ec8:	01c00084 	movi	r7,2
  802ecc:	dd000115 	stw	r20,4(sp)
  802ed0:	dcc00015 	stw	r19,0(sp)
  802ed4:	d8800315 	stw	r2,12(sp)
  802ed8:	0804ee00 	call	804ee0 <_dtoa_r>
  802edc:	1007883a 	mov	r3,r2
  802ee0:	d8800417 	ldw	r2,16(sp)
  802ee4:	1880252e 	bgeu	r3,r2,802f7c <ecvtbuf+0x10c>
  802ee8:	900d883a 	mov	r6,r18
  802eec:	0009883a 	mov	r4,zero
  802ef0:	18800003 	ldbu	r2,0(r3)
  802ef4:	18c00044 	addi	r3,r3,1
  802ef8:	21000044 	addi	r4,r4,1
  802efc:	30800005 	stb	r2,0(r6)
  802f00:	d8800417 	ldw	r2,16(sp)
  802f04:	31800044 	addi	r6,r6,1
  802f08:	18bff936 	bltu	r3,r2,802ef0 <ecvtbuf+0x80>
  802f0c:	24c0080e 	bge	r4,r19,802f30 <ecvtbuf+0xc0>
  802f10:	9905c83a 	sub	r2,r19,r4
  802f14:	3007883a 	mov	r3,r6
  802f18:	1185883a 	add	r2,r2,r6
  802f1c:	01000c04 	movi	r4,48
  802f20:	19000005 	stb	r4,0(r3)
  802f24:	18c00044 	addi	r3,r3,1
  802f28:	10fffd1e 	bne	r2,r3,802f20 <ecvtbuf+0xb0>
  802f2c:	100d883a 	mov	r6,r2
  802f30:	30000005 	stb	zero,0(r6)
  802f34:	9005883a 	mov	r2,r18
  802f38:	dfc00b17 	ldw	ra,44(sp)
  802f3c:	dd400a17 	ldw	r21,40(sp)
  802f40:	dd000917 	ldw	r20,36(sp)
  802f44:	dcc00817 	ldw	r19,32(sp)
  802f48:	dc800717 	ldw	r18,28(sp)
  802f4c:	dc400617 	ldw	r17,24(sp)
  802f50:	dc000517 	ldw	r16,20(sp)
  802f54:	dec00c04 	addi	sp,sp,48
  802f58:	f800283a 	ret
  802f5c:	05402074 	movhi	r21,129
  802f60:	ad695e04 	addi	r21,r21,-23176
  802f64:	a9000017 	ldw	r4,0(r21)
  802f68:	20801417 	ldw	r2,80(r4)
  802f6c:	3080060e 	bge	r6,r2,802f88 <ecvtbuf+0x118>
  802f70:	a8800017 	ldw	r2,0(r21)
  802f74:	14801517 	ldw	r18,84(r2)
  802f78:	003fcd06 	br	802eb0 <ecvtbuf+0x40>
  802f7c:	900d883a 	mov	r6,r18
  802f80:	0009883a 	mov	r4,zero
  802f84:	003fe106 	br	802f0c <ecvtbuf+0x9c>
  802f88:	21401517 	ldw	r5,84(r4)
  802f8c:	34800044 	addi	r18,r6,1
  802f90:	900d883a 	mov	r6,r18
  802f94:	08045940 	call	804594 <_realloc_r>
  802f98:	1007883a 	mov	r3,r2
  802f9c:	10000426 	beq	r2,zero,802fb0 <ecvtbuf+0x140>
  802fa0:	a8800017 	ldw	r2,0(r21)
  802fa4:	10c01515 	stw	r3,84(r2)
  802fa8:	14801415 	stw	r18,80(r2)
  802fac:	003ff006 	br	802f70 <ecvtbuf+0x100>
  802fb0:	0005883a 	mov	r2,zero
  802fb4:	003fe006 	br	802f38 <ecvtbuf+0xc8>

00802fb8 <fcvtbuf>:
  802fb8:	defff304 	addi	sp,sp,-52
  802fbc:	dc800715 	stw	r18,28(sp)
  802fc0:	dc800e17 	ldw	r18,56(sp)
  802fc4:	dd800b15 	stw	r22,44(sp)
  802fc8:	dd000915 	stw	r20,36(sp)
  802fcc:	dcc00815 	stw	r19,32(sp)
  802fd0:	dc400615 	stw	r17,24(sp)
  802fd4:	dc000515 	stw	r16,20(sp)
  802fd8:	dfc00c15 	stw	ra,48(sp)
  802fdc:	dd400a15 	stw	r21,40(sp)
  802fe0:	2021883a 	mov	r16,r4
  802fe4:	2823883a 	mov	r17,r5
  802fe8:	3027883a 	mov	r19,r6
  802fec:	3829883a 	mov	r20,r7
  802ff0:	dd800d17 	ldw	r22,52(sp)
  802ff4:	90004326 	beq	r18,zero,803104 <fcvtbuf+0x14c>
  802ff8:	05402074 	movhi	r21,129
  802ffc:	ad695e04 	addi	r21,r21,-23176
  803000:	0005883a 	mov	r2,zero
  803004:	00cffc34 	movhi	r3,16368
  803008:	180f883a 	mov	r7,r3
  80300c:	8009883a 	mov	r4,r16
  803010:	880b883a 	mov	r5,r17
  803014:	100d883a 	mov	r6,r2
  803018:	0806c880 	call	806c88 <__ltdf2>
  80301c:	1000080e 	bge	r2,zero,803040 <fcvtbuf+0x88>
  803020:	0005883a 	mov	r2,zero
  803024:	00effc34 	movhi	r3,49136
  803028:	180f883a 	mov	r7,r3
  80302c:	8009883a 	mov	r4,r16
  803030:	880b883a 	mov	r5,r17
  803034:	100d883a 	mov	r6,r2
  803038:	0806b780 	call	806b78 <__gtdf2>
  80303c:	00802c16 	blt	zero,r2,8030f0 <fcvtbuf+0x138>
  803040:	a9000017 	ldw	r4,0(r21)
  803044:	880d883a 	mov	r6,r17
  803048:	800b883a 	mov	r5,r16
  80304c:	01c000c4 	movi	r7,3
  803050:	d8800404 	addi	r2,sp,16
  803054:	dd800215 	stw	r22,8(sp)
  803058:	dcc00015 	stw	r19,0(sp)
  80305c:	dd000115 	stw	r20,4(sp)
  803060:	d8800315 	stw	r2,12(sp)
  803064:	0804ee00 	call	804ee0 <_dtoa_r>
  803068:	1009883a 	mov	r4,r2
  80306c:	d8c00417 	ldw	r3,16(sp)
  803070:	a0800017 	ldw	r2,0(r20)
  803074:	008dc83a 	sub	r6,zero,r2
  803078:	20c02b2e 	bgeu	r4,r3,803128 <fcvtbuf+0x170>
  80307c:	9007883a 	mov	r3,r18
  803080:	20800003 	ldbu	r2,0(r4)
  803084:	21000044 	addi	r4,r4,1
  803088:	31800044 	addi	r6,r6,1
  80308c:	18800005 	stb	r2,0(r3)
  803090:	d8800417 	ldw	r2,16(sp)
  803094:	18c00044 	addi	r3,r3,1
  803098:	20bff936 	bltu	r4,r2,803080 <fcvtbuf+0xc8>
  80309c:	34c0080e 	bge	r6,r19,8030c0 <fcvtbuf+0x108>
  8030a0:	9985c83a 	sub	r2,r19,r6
  8030a4:	1809883a 	mov	r4,r3
  8030a8:	10c5883a 	add	r2,r2,r3
  8030ac:	00c00c04 	movi	r3,48
  8030b0:	20c00005 	stb	r3,0(r4)
  8030b4:	21000044 	addi	r4,r4,1
  8030b8:	113ffd1e 	bne	r2,r4,8030b0 <fcvtbuf+0xf8>
  8030bc:	1007883a 	mov	r3,r2
  8030c0:	18000005 	stb	zero,0(r3)
  8030c4:	9005883a 	mov	r2,r18
  8030c8:	dfc00c17 	ldw	ra,48(sp)
  8030cc:	dd800b17 	ldw	r22,44(sp)
  8030d0:	dd400a17 	ldw	r21,40(sp)
  8030d4:	dd000917 	ldw	r20,36(sp)
  8030d8:	dcc00817 	ldw	r19,32(sp)
  8030dc:	dc800717 	ldw	r18,28(sp)
  8030e0:	dc400617 	ldw	r17,24(sp)
  8030e4:	dc000517 	ldw	r16,20(sp)
  8030e8:	dec00d04 	addi	sp,sp,52
  8030ec:	f800283a 	ret
  8030f0:	a9000017 	ldw	r4,0(r21)
  8030f4:	880d883a 	mov	r6,r17
  8030f8:	800b883a 	mov	r5,r16
  8030fc:	01c00084 	movi	r7,2
  803100:	003fd306 	br	803050 <fcvtbuf+0x98>
  803104:	05402074 	movhi	r21,129
  803108:	ad695e04 	addi	r21,r21,-23176
  80310c:	a9000017 	ldw	r4,0(r21)
  803110:	30c008c4 	addi	r3,r6,35
  803114:	20801417 	ldw	r2,80(r4)
  803118:	1880050e 	bge	r3,r2,803130 <fcvtbuf+0x178>
  80311c:	a8800017 	ldw	r2,0(r21)
  803120:	14801517 	ldw	r18,84(r2)
  803124:	003fb606 	br	803000 <fcvtbuf+0x48>
  803128:	9007883a 	mov	r3,r18
  80312c:	003fdb06 	br	80309c <fcvtbuf+0xe4>
  803130:	21401517 	ldw	r5,84(r4)
  803134:	34800904 	addi	r18,r6,36
  803138:	900d883a 	mov	r6,r18
  80313c:	08045940 	call	804594 <_realloc_r>
  803140:	1007883a 	mov	r3,r2
  803144:	10000426 	beq	r2,zero,803158 <fcvtbuf+0x1a0>
  803148:	a8800017 	ldw	r2,0(r21)
  80314c:	10c01515 	stw	r3,84(r2)
  803150:	14801415 	stw	r18,80(r2)
  803154:	003ff106 	br	80311c <fcvtbuf+0x164>
  803158:	0005883a 	mov	r2,zero
  80315c:	003fda06 	br	8030c8 <fcvtbuf+0x110>

00803160 <_malloc_trim_r>:
  803160:	defffb04 	addi	sp,sp,-20
  803164:	dcc00315 	stw	r19,12(sp)
  803168:	04c02074 	movhi	r19,129
  80316c:	9ce7e704 	addi	r19,r19,-24676
  803170:	dc800215 	stw	r18,8(sp)
  803174:	dc400115 	stw	r17,4(sp)
  803178:	dc000015 	stw	r16,0(sp)
  80317c:	2823883a 	mov	r17,r5
  803180:	2025883a 	mov	r18,r4
  803184:	dfc00415 	stw	ra,16(sp)
  803188:	08072800 	call	807280 <__malloc_lock>
  80318c:	98800217 	ldw	r2,8(r19)
  803190:	9009883a 	mov	r4,r18
  803194:	000b883a 	mov	r5,zero
  803198:	10c00117 	ldw	r3,4(r2)
  80319c:	00bfff04 	movi	r2,-4
  8031a0:	18a0703a 	and	r16,r3,r2
  8031a4:	8463c83a 	sub	r17,r16,r17
  8031a8:	8c43fbc4 	addi	r17,r17,4079
  8031ac:	8822d33a 	srli	r17,r17,12
  8031b0:	0083ffc4 	movi	r2,4095
  8031b4:	8c7fffc4 	addi	r17,r17,-1
  8031b8:	8822933a 	slli	r17,r17,12
  8031bc:	1440060e 	bge	r2,r17,8031d8 <_malloc_trim_r+0x78>
  8031c0:	08026380 	call	802638 <_sbrk_r>
  8031c4:	98c00217 	ldw	r3,8(r19)
  8031c8:	9009883a 	mov	r4,r18
  8031cc:	044bc83a 	sub	r5,zero,r17
  8031d0:	80c7883a 	add	r3,r16,r3
  8031d4:	10c00926 	beq	r2,r3,8031fc <_malloc_trim_r+0x9c>
  8031d8:	08072840 	call	807284 <__malloc_unlock>
  8031dc:	0005883a 	mov	r2,zero
  8031e0:	dfc00417 	ldw	ra,16(sp)
  8031e4:	dcc00317 	ldw	r19,12(sp)
  8031e8:	dc800217 	ldw	r18,8(sp)
  8031ec:	dc400117 	ldw	r17,4(sp)
  8031f0:	dc000017 	ldw	r16,0(sp)
  8031f4:	dec00504 	addi	sp,sp,20
  8031f8:	f800283a 	ret
  8031fc:	9009883a 	mov	r4,r18
  803200:	08026380 	call	802638 <_sbrk_r>
  803204:	844dc83a 	sub	r6,r16,r17
  803208:	00ffffc4 	movi	r3,-1
  80320c:	9009883a 	mov	r4,r18
  803210:	000b883a 	mov	r5,zero
  803214:	01c02074 	movhi	r7,129
  803218:	39ebfb04 	addi	r7,r7,-20500
  80321c:	31800054 	ori	r6,r6,1
  803220:	10c00926 	beq	r2,r3,803248 <_malloc_trim_r+0xe8>
  803224:	38800017 	ldw	r2,0(r7)
  803228:	98c00217 	ldw	r3,8(r19)
  80322c:	9009883a 	mov	r4,r18
  803230:	1445c83a 	sub	r2,r2,r17
  803234:	38800015 	stw	r2,0(r7)
  803238:	19800115 	stw	r6,4(r3)
  80323c:	08072840 	call	807284 <__malloc_unlock>
  803240:	00800044 	movi	r2,1
  803244:	003fe606 	br	8031e0 <_malloc_trim_r+0x80>
  803248:	08026380 	call	802638 <_sbrk_r>
  80324c:	99800217 	ldw	r6,8(r19)
  803250:	100f883a 	mov	r7,r2
  803254:	9009883a 	mov	r4,r18
  803258:	1187c83a 	sub	r3,r2,r6
  80325c:	008003c4 	movi	r2,15
  803260:	19400054 	ori	r5,r3,1
  803264:	10ffdc0e 	bge	r2,r3,8031d8 <_malloc_trim_r+0x78>
  803268:	00802074 	movhi	r2,129
  80326c:	10a96104 	addi	r2,r2,-23164
  803270:	10c00017 	ldw	r3,0(r2)
  803274:	00802074 	movhi	r2,129
  803278:	10abfb04 	addi	r2,r2,-20500
  80327c:	31400115 	stw	r5,4(r6)
  803280:	38c7c83a 	sub	r3,r7,r3
  803284:	10c00015 	stw	r3,0(r2)
  803288:	003fd306 	br	8031d8 <_malloc_trim_r+0x78>

0080328c <_free_r>:
  80328c:	defffd04 	addi	sp,sp,-12
  803290:	dc400115 	stw	r17,4(sp)
  803294:	dc000015 	stw	r16,0(sp)
  803298:	dfc00215 	stw	ra,8(sp)
  80329c:	2821883a 	mov	r16,r5
  8032a0:	2023883a 	mov	r17,r4
  8032a4:	28005a26 	beq	r5,zero,803410 <_free_r+0x184>
  8032a8:	08072800 	call	807280 <__malloc_lock>
  8032ac:	823ffe04 	addi	r8,r16,-8
  8032b0:	41400117 	ldw	r5,4(r8)
  8032b4:	00bfff84 	movi	r2,-2
  8032b8:	02802074 	movhi	r10,129
  8032bc:	52a7e704 	addi	r10,r10,-24676
  8032c0:	288e703a 	and	r7,r5,r2
  8032c4:	41cd883a 	add	r6,r8,r7
  8032c8:	30c00117 	ldw	r3,4(r6)
  8032cc:	51000217 	ldw	r4,8(r10)
  8032d0:	00bfff04 	movi	r2,-4
  8032d4:	1892703a 	and	r9,r3,r2
  8032d8:	5017883a 	mov	r11,r10
  8032dc:	31006726 	beq	r6,r4,80347c <_free_r+0x1f0>
  8032e0:	2880004c 	andi	r2,r5,1
  8032e4:	1005003a 	cmpeq	r2,r2,zero
  8032e8:	32400115 	stw	r9,4(r6)
  8032ec:	10001a1e 	bne	r2,zero,803358 <_free_r+0xcc>
  8032f0:	000b883a 	mov	r5,zero
  8032f4:	3247883a 	add	r3,r6,r9
  8032f8:	18800117 	ldw	r2,4(r3)
  8032fc:	1080004c 	andi	r2,r2,1
  803300:	1000231e 	bne	r2,zero,803390 <_free_r+0x104>
  803304:	280ac03a 	cmpne	r5,r5,zero
  803308:	3a4f883a 	add	r7,r7,r9
  80330c:	2800451e 	bne	r5,zero,803424 <_free_r+0x198>
  803310:	31000217 	ldw	r4,8(r6)
  803314:	00802074 	movhi	r2,129
  803318:	10a7e904 	addi	r2,r2,-24668
  80331c:	20807b26 	beq	r4,r2,80350c <_free_r+0x280>
  803320:	30800317 	ldw	r2,12(r6)
  803324:	3a07883a 	add	r3,r7,r8
  803328:	19c00015 	stw	r7,0(r3)
  80332c:	11000215 	stw	r4,8(r2)
  803330:	20800315 	stw	r2,12(r4)
  803334:	38800054 	ori	r2,r7,1
  803338:	40800115 	stw	r2,4(r8)
  80333c:	28001a26 	beq	r5,zero,8033a8 <_free_r+0x11c>
  803340:	8809883a 	mov	r4,r17
  803344:	dfc00217 	ldw	ra,8(sp)
  803348:	dc400117 	ldw	r17,4(sp)
  80334c:	dc000017 	ldw	r16,0(sp)
  803350:	dec00304 	addi	sp,sp,12
  803354:	08072841 	jmpi	807284 <__malloc_unlock>
  803358:	80bffe17 	ldw	r2,-8(r16)
  80335c:	50c00204 	addi	r3,r10,8
  803360:	4091c83a 	sub	r8,r8,r2
  803364:	41000217 	ldw	r4,8(r8)
  803368:	388f883a 	add	r7,r7,r2
  80336c:	20c06126 	beq	r4,r3,8034f4 <_free_r+0x268>
  803370:	40800317 	ldw	r2,12(r8)
  803374:	3247883a 	add	r3,r6,r9
  803378:	000b883a 	mov	r5,zero
  80337c:	11000215 	stw	r4,8(r2)
  803380:	20800315 	stw	r2,12(r4)
  803384:	18800117 	ldw	r2,4(r3)
  803388:	1080004c 	andi	r2,r2,1
  80338c:	103fdd26 	beq	r2,zero,803304 <_free_r+0x78>
  803390:	38800054 	ori	r2,r7,1
  803394:	3a07883a 	add	r3,r7,r8
  803398:	280ac03a 	cmpne	r5,r5,zero
  80339c:	40800115 	stw	r2,4(r8)
  8033a0:	19c00015 	stw	r7,0(r3)
  8033a4:	283fe61e 	bne	r5,zero,803340 <_free_r+0xb4>
  8033a8:	00807fc4 	movi	r2,511
  8033ac:	11c01f2e 	bgeu	r2,r7,80342c <_free_r+0x1a0>
  8033b0:	3806d27a 	srli	r3,r7,9
  8033b4:	1800481e 	bne	r3,zero,8034d8 <_free_r+0x24c>
  8033b8:	3804d0fa 	srli	r2,r7,3
  8033bc:	100690fa 	slli	r3,r2,3
  8033c0:	1acd883a 	add	r6,r3,r11
  8033c4:	31400217 	ldw	r5,8(r6)
  8033c8:	31405926 	beq	r6,r5,803530 <_free_r+0x2a4>
  8033cc:	28800117 	ldw	r2,4(r5)
  8033d0:	00ffff04 	movi	r3,-4
  8033d4:	10c4703a 	and	r2,r2,r3
  8033d8:	3880022e 	bgeu	r7,r2,8033e4 <_free_r+0x158>
  8033dc:	29400217 	ldw	r5,8(r5)
  8033e0:	317ffa1e 	bne	r6,r5,8033cc <_free_r+0x140>
  8033e4:	29800317 	ldw	r6,12(r5)
  8033e8:	41800315 	stw	r6,12(r8)
  8033ec:	41400215 	stw	r5,8(r8)
  8033f0:	8809883a 	mov	r4,r17
  8033f4:	2a000315 	stw	r8,12(r5)
  8033f8:	32000215 	stw	r8,8(r6)
  8033fc:	dfc00217 	ldw	ra,8(sp)
  803400:	dc400117 	ldw	r17,4(sp)
  803404:	dc000017 	ldw	r16,0(sp)
  803408:	dec00304 	addi	sp,sp,12
  80340c:	08072841 	jmpi	807284 <__malloc_unlock>
  803410:	dfc00217 	ldw	ra,8(sp)
  803414:	dc400117 	ldw	r17,4(sp)
  803418:	dc000017 	ldw	r16,0(sp)
  80341c:	dec00304 	addi	sp,sp,12
  803420:	f800283a 	ret
  803424:	31000217 	ldw	r4,8(r6)
  803428:	003fbd06 	br	803320 <_free_r+0x94>
  80342c:	3806d0fa 	srli	r3,r7,3
  803430:	00800044 	movi	r2,1
  803434:	51400117 	ldw	r5,4(r10)
  803438:	180890fa 	slli	r4,r3,3
  80343c:	1807d0ba 	srai	r3,r3,2
  803440:	22c9883a 	add	r4,r4,r11
  803444:	21800217 	ldw	r6,8(r4)
  803448:	10c4983a 	sll	r2,r2,r3
  80344c:	41000315 	stw	r4,12(r8)
  803450:	41800215 	stw	r6,8(r8)
  803454:	288ab03a 	or	r5,r5,r2
  803458:	22000215 	stw	r8,8(r4)
  80345c:	8809883a 	mov	r4,r17
  803460:	51400115 	stw	r5,4(r10)
  803464:	32000315 	stw	r8,12(r6)
  803468:	dfc00217 	ldw	ra,8(sp)
  80346c:	dc400117 	ldw	r17,4(sp)
  803470:	dc000017 	ldw	r16,0(sp)
  803474:	dec00304 	addi	sp,sp,12
  803478:	08072841 	jmpi	807284 <__malloc_unlock>
  80347c:	2880004c 	andi	r2,r5,1
  803480:	3a4d883a 	add	r6,r7,r9
  803484:	1000071e 	bne	r2,zero,8034a4 <_free_r+0x218>
  803488:	80bffe17 	ldw	r2,-8(r16)
  80348c:	4091c83a 	sub	r8,r8,r2
  803490:	41000317 	ldw	r4,12(r8)
  803494:	40c00217 	ldw	r3,8(r8)
  803498:	308d883a 	add	r6,r6,r2
  80349c:	20c00215 	stw	r3,8(r4)
  8034a0:	19000315 	stw	r4,12(r3)
  8034a4:	00802074 	movhi	r2,129
  8034a8:	10a96004 	addi	r2,r2,-23168
  8034ac:	11000017 	ldw	r4,0(r2)
  8034b0:	30c00054 	ori	r3,r6,1
  8034b4:	52000215 	stw	r8,8(r10)
  8034b8:	40c00115 	stw	r3,4(r8)
  8034bc:	313fa036 	bltu	r6,r4,803340 <_free_r+0xb4>
  8034c0:	00802074 	movhi	r2,129
  8034c4:	10abf104 	addi	r2,r2,-20540
  8034c8:	11400017 	ldw	r5,0(r2)
  8034cc:	8809883a 	mov	r4,r17
  8034d0:	08031600 	call	803160 <_malloc_trim_r>
  8034d4:	003f9a06 	br	803340 <_free_r+0xb4>
  8034d8:	00800104 	movi	r2,4
  8034dc:	10c0072e 	bgeu	r2,r3,8034fc <_free_r+0x270>
  8034e0:	00800504 	movi	r2,20
  8034e4:	10c01936 	bltu	r2,r3,80354c <_free_r+0x2c0>
  8034e8:	188016c4 	addi	r2,r3,91
  8034ec:	100690fa 	slli	r3,r2,3
  8034f0:	003fb306 	br	8033c0 <_free_r+0x134>
  8034f4:	01400044 	movi	r5,1
  8034f8:	003f7e06 	br	8032f4 <_free_r+0x68>
  8034fc:	3804d1ba 	srli	r2,r7,6
  803500:	10800e04 	addi	r2,r2,56
  803504:	100690fa 	slli	r3,r2,3
  803508:	003fad06 	br	8033c0 <_free_r+0x134>
  80350c:	22000315 	stw	r8,12(r4)
  803510:	22000215 	stw	r8,8(r4)
  803514:	3a05883a 	add	r2,r7,r8
  803518:	38c00054 	ori	r3,r7,1
  80351c:	11c00015 	stw	r7,0(r2)
  803520:	41000215 	stw	r4,8(r8)
  803524:	40c00115 	stw	r3,4(r8)
  803528:	41000315 	stw	r4,12(r8)
  80352c:	003f8406 	br	803340 <_free_r+0xb4>
  803530:	1005d0ba 	srai	r2,r2,2
  803534:	00c00044 	movi	r3,1
  803538:	51000117 	ldw	r4,4(r10)
  80353c:	1886983a 	sll	r3,r3,r2
  803540:	20c8b03a 	or	r4,r4,r3
  803544:	51000115 	stw	r4,4(r10)
  803548:	003fa706 	br	8033e8 <_free_r+0x15c>
  80354c:	00801504 	movi	r2,84
  803550:	10c00436 	bltu	r2,r3,803564 <_free_r+0x2d8>
  803554:	3804d33a 	srli	r2,r7,12
  803558:	10801b84 	addi	r2,r2,110
  80355c:	100690fa 	slli	r3,r2,3
  803560:	003f9706 	br	8033c0 <_free_r+0x134>
  803564:	00805504 	movi	r2,340
  803568:	10c00436 	bltu	r2,r3,80357c <_free_r+0x2f0>
  80356c:	3804d3fa 	srli	r2,r7,15
  803570:	10801dc4 	addi	r2,r2,119
  803574:	100690fa 	slli	r3,r2,3
  803578:	003f9106 	br	8033c0 <_free_r+0x134>
  80357c:	00815504 	movi	r2,1364
  803580:	10c0032e 	bgeu	r2,r3,803590 <_free_r+0x304>
  803584:	00801f84 	movi	r2,126
  803588:	00c0fc04 	movi	r3,1008
  80358c:	003f8c06 	br	8033c0 <_free_r+0x134>
  803590:	3804d4ba 	srli	r2,r7,18
  803594:	10801f04 	addi	r2,r2,124
  803598:	100690fa 	slli	r3,r2,3
  80359c:	003f8806 	br	8033c0 <_free_r+0x134>

008035a0 <_Bfree>:
  8035a0:	28000826 	beq	r5,zero,8035c4 <_Bfree+0x24>
  8035a4:	28800117 	ldw	r2,4(r5)
  8035a8:	21001317 	ldw	r4,76(r4)
  8035ac:	1085883a 	add	r2,r2,r2
  8035b0:	1085883a 	add	r2,r2,r2
  8035b4:	1105883a 	add	r2,r2,r4
  8035b8:	10c00017 	ldw	r3,0(r2)
  8035bc:	28c00015 	stw	r3,0(r5)
  8035c0:	11400015 	stw	r5,0(r2)
  8035c4:	f800283a 	ret

008035c8 <__hi0bits>:
  8035c8:	20bfffec 	andhi	r2,r4,65535
  8035cc:	10001426 	beq	r2,zero,803620 <__hi0bits+0x58>
  8035d0:	0007883a 	mov	r3,zero
  8035d4:	20bfc02c 	andhi	r2,r4,65280
  8035d8:	1000021e 	bne	r2,zero,8035e4 <__hi0bits+0x1c>
  8035dc:	2008923a 	slli	r4,r4,8
  8035e0:	18c00204 	addi	r3,r3,8
  8035e4:	20bc002c 	andhi	r2,r4,61440
  8035e8:	1000021e 	bne	r2,zero,8035f4 <__hi0bits+0x2c>
  8035ec:	2008913a 	slli	r4,r4,4
  8035f0:	18c00104 	addi	r3,r3,4
  8035f4:	20b0002c 	andhi	r2,r4,49152
  8035f8:	1000031e 	bne	r2,zero,803608 <__hi0bits+0x40>
  8035fc:	2105883a 	add	r2,r4,r4
  803600:	18c00084 	addi	r3,r3,2
  803604:	1089883a 	add	r4,r2,r2
  803608:	20000316 	blt	r4,zero,803618 <__hi0bits+0x50>
  80360c:	2090002c 	andhi	r2,r4,16384
  803610:	10000626 	beq	r2,zero,80362c <__hi0bits+0x64>
  803614:	18c00044 	addi	r3,r3,1
  803618:	1805883a 	mov	r2,r3
  80361c:	f800283a 	ret
  803620:	2008943a 	slli	r4,r4,16
  803624:	00c00404 	movi	r3,16
  803628:	003fea06 	br	8035d4 <__hi0bits+0xc>
  80362c:	00c00804 	movi	r3,32
  803630:	1805883a 	mov	r2,r3
  803634:	f800283a 	ret

00803638 <__lo0bits>:
  803638:	20c00017 	ldw	r3,0(r4)
  80363c:	188001cc 	andi	r2,r3,7
  803640:	10000a26 	beq	r2,zero,80366c <__lo0bits+0x34>
  803644:	1880004c 	andi	r2,r3,1
  803648:	1005003a 	cmpeq	r2,r2,zero
  80364c:	10002126 	beq	r2,zero,8036d4 <__lo0bits+0x9c>
  803650:	1880008c 	andi	r2,r3,2
  803654:	1000251e 	bne	r2,zero,8036ec <__lo0bits+0xb4>
  803658:	1804d0ba 	srli	r2,r3,2
  80365c:	01400084 	movi	r5,2
  803660:	20800015 	stw	r2,0(r4)
  803664:	2805883a 	mov	r2,r5
  803668:	f800283a 	ret
  80366c:	18bfffcc 	andi	r2,r3,65535
  803670:	10001526 	beq	r2,zero,8036c8 <__lo0bits+0x90>
  803674:	000b883a 	mov	r5,zero
  803678:	18803fcc 	andi	r2,r3,255
  80367c:	1000021e 	bne	r2,zero,803688 <__lo0bits+0x50>
  803680:	1806d23a 	srli	r3,r3,8
  803684:	29400204 	addi	r5,r5,8
  803688:	188003cc 	andi	r2,r3,15
  80368c:	1000021e 	bne	r2,zero,803698 <__lo0bits+0x60>
  803690:	1806d13a 	srli	r3,r3,4
  803694:	29400104 	addi	r5,r5,4
  803698:	188000cc 	andi	r2,r3,3
  80369c:	1000021e 	bne	r2,zero,8036a8 <__lo0bits+0x70>
  8036a0:	1806d0ba 	srli	r3,r3,2
  8036a4:	29400084 	addi	r5,r5,2
  8036a8:	1880004c 	andi	r2,r3,1
  8036ac:	1000031e 	bne	r2,zero,8036bc <__lo0bits+0x84>
  8036b0:	1806d07a 	srli	r3,r3,1
  8036b4:	18000a26 	beq	r3,zero,8036e0 <__lo0bits+0xa8>
  8036b8:	29400044 	addi	r5,r5,1
  8036bc:	2805883a 	mov	r2,r5
  8036c0:	20c00015 	stw	r3,0(r4)
  8036c4:	f800283a 	ret
  8036c8:	1806d43a 	srli	r3,r3,16
  8036cc:	01400404 	movi	r5,16
  8036d0:	003fe906 	br	803678 <__lo0bits+0x40>
  8036d4:	000b883a 	mov	r5,zero
  8036d8:	2805883a 	mov	r2,r5
  8036dc:	f800283a 	ret
  8036e0:	01400804 	movi	r5,32
  8036e4:	2805883a 	mov	r2,r5
  8036e8:	f800283a 	ret
  8036ec:	1804d07a 	srli	r2,r3,1
  8036f0:	01400044 	movi	r5,1
  8036f4:	20800015 	stw	r2,0(r4)
  8036f8:	003fda06 	br	803664 <__lo0bits+0x2c>

008036fc <__mcmp>:
  8036fc:	20800417 	ldw	r2,16(r4)
  803700:	28c00417 	ldw	r3,16(r5)
  803704:	10cfc83a 	sub	r7,r2,r3
  803708:	38000c1e 	bne	r7,zero,80373c <__mcmp+0x40>
  80370c:	18c5883a 	add	r2,r3,r3
  803710:	1085883a 	add	r2,r2,r2
  803714:	10c00504 	addi	r3,r2,20
  803718:	21000504 	addi	r4,r4,20
  80371c:	28cb883a 	add	r5,r5,r3
  803720:	2085883a 	add	r2,r4,r2
  803724:	10bfff04 	addi	r2,r2,-4
  803728:	297fff04 	addi	r5,r5,-4
  80372c:	11800017 	ldw	r6,0(r2)
  803730:	28c00017 	ldw	r3,0(r5)
  803734:	30c0031e 	bne	r6,r3,803744 <__mcmp+0x48>
  803738:	20bffa36 	bltu	r4,r2,803724 <__mcmp+0x28>
  80373c:	3805883a 	mov	r2,r7
  803740:	f800283a 	ret
  803744:	30c00336 	bltu	r6,r3,803754 <__mcmp+0x58>
  803748:	01c00044 	movi	r7,1
  80374c:	3805883a 	mov	r2,r7
  803750:	f800283a 	ret
  803754:	01ffffc4 	movi	r7,-1
  803758:	003ff806 	br	80373c <__mcmp+0x40>

0080375c <__ulp>:
  80375c:	295ffc2c 	andhi	r5,r5,32752
  803760:	013f3034 	movhi	r4,64704
  803764:	290b883a 	add	r5,r5,r4
  803768:	0145c83a 	sub	r2,zero,r5
  80376c:	1007d53a 	srai	r3,r2,20
  803770:	000d883a 	mov	r6,zero
  803774:	0140040e 	bge	zero,r5,803788 <__ulp+0x2c>
  803778:	280f883a 	mov	r7,r5
  80377c:	3807883a 	mov	r3,r7
  803780:	3005883a 	mov	r2,r6
  803784:	f800283a 	ret
  803788:	008004c4 	movi	r2,19
  80378c:	193ffb04 	addi	r4,r3,-20
  803790:	10c00c0e 	bge	r2,r3,8037c4 <__ulp+0x68>
  803794:	008007c4 	movi	r2,31
  803798:	1107c83a 	sub	r3,r2,r4
  80379c:	00800784 	movi	r2,30
  8037a0:	01400044 	movi	r5,1
  8037a4:	11000216 	blt	r2,r4,8037b0 <__ulp+0x54>
  8037a8:	00800044 	movi	r2,1
  8037ac:	10ca983a 	sll	r5,r2,r3
  8037b0:	000f883a 	mov	r7,zero
  8037b4:	280d883a 	mov	r6,r5
  8037b8:	3807883a 	mov	r3,r7
  8037bc:	3005883a 	mov	r2,r6
  8037c0:	f800283a 	ret
  8037c4:	00800234 	movhi	r2,8
  8037c8:	10cfd83a 	sra	r7,r2,r3
  8037cc:	000d883a 	mov	r6,zero
  8037d0:	3005883a 	mov	r2,r6
  8037d4:	3807883a 	mov	r3,r7
  8037d8:	f800283a 	ret

008037dc <__b2d>:
  8037dc:	20800417 	ldw	r2,16(r4)
  8037e0:	defff904 	addi	sp,sp,-28
  8037e4:	dd000415 	stw	r20,16(sp)
  8037e8:	1085883a 	add	r2,r2,r2
  8037ec:	25000504 	addi	r20,r4,20
  8037f0:	1085883a 	add	r2,r2,r2
  8037f4:	dc000015 	stw	r16,0(sp)
  8037f8:	a0a1883a 	add	r16,r20,r2
  8037fc:	dd400515 	stw	r21,20(sp)
  803800:	857fff17 	ldw	r21,-4(r16)
  803804:	dc400115 	stw	r17,4(sp)
  803808:	dfc00615 	stw	ra,24(sp)
  80380c:	a809883a 	mov	r4,r21
  803810:	2823883a 	mov	r17,r5
  803814:	dcc00315 	stw	r19,12(sp)
  803818:	dc800215 	stw	r18,8(sp)
  80381c:	08035c80 	call	8035c8 <__hi0bits>
  803820:	100b883a 	mov	r5,r2
  803824:	00800804 	movi	r2,32
  803828:	1145c83a 	sub	r2,r2,r5
  80382c:	88800015 	stw	r2,0(r17)
  803830:	00800284 	movi	r2,10
  803834:	80ffff04 	addi	r3,r16,-4
  803838:	11401416 	blt	r2,r5,80388c <__b2d+0xb0>
  80383c:	008002c4 	movi	r2,11
  803840:	1149c83a 	sub	r4,r2,r5
  803844:	a0c02736 	bltu	r20,r3,8038e4 <__b2d+0x108>
  803848:	000d883a 	mov	r6,zero
  80384c:	28800544 	addi	r2,r5,21
  803850:	a906d83a 	srl	r3,r21,r4
  803854:	a884983a 	sll	r2,r21,r2
  803858:	1ccffc34 	orhi	r19,r3,16368
  80385c:	11a4b03a 	or	r18,r2,r6
  803860:	9005883a 	mov	r2,r18
  803864:	9807883a 	mov	r3,r19
  803868:	dfc00617 	ldw	ra,24(sp)
  80386c:	dd400517 	ldw	r21,20(sp)
  803870:	dd000417 	ldw	r20,16(sp)
  803874:	dcc00317 	ldw	r19,12(sp)
  803878:	dc800217 	ldw	r18,8(sp)
  80387c:	dc400117 	ldw	r17,4(sp)
  803880:	dc000017 	ldw	r16,0(sp)
  803884:	dec00704 	addi	sp,sp,28
  803888:	f800283a 	ret
  80388c:	a0c00e36 	bltu	r20,r3,8038c8 <__b2d+0xec>
  803890:	293ffd44 	addi	r4,r5,-11
  803894:	000d883a 	mov	r6,zero
  803898:	20000f26 	beq	r4,zero,8038d8 <__b2d+0xfc>
  80389c:	00800804 	movi	r2,32
  8038a0:	110bc83a 	sub	r5,r2,r4
  8038a4:	a0c01236 	bltu	r20,r3,8038f0 <__b2d+0x114>
  8038a8:	000f883a 	mov	r7,zero
  8038ac:	a904983a 	sll	r2,r21,r4
  8038b0:	3146d83a 	srl	r3,r6,r5
  8038b4:	3108983a 	sll	r4,r6,r4
  8038b8:	108ffc34 	orhi	r2,r2,16368
  8038bc:	18a6b03a 	or	r19,r3,r2
  8038c0:	3924b03a 	or	r18,r7,r4
  8038c4:	003fe606 	br	803860 <__b2d+0x84>
  8038c8:	293ffd44 	addi	r4,r5,-11
  8038cc:	81bffe17 	ldw	r6,-8(r16)
  8038d0:	80fffe04 	addi	r3,r16,-8
  8038d4:	203ff11e 	bne	r4,zero,80389c <__b2d+0xc0>
  8038d8:	accffc34 	orhi	r19,r21,16368
  8038dc:	3025883a 	mov	r18,r6
  8038e0:	003fdf06 	br	803860 <__b2d+0x84>
  8038e4:	18bfff17 	ldw	r2,-4(r3)
  8038e8:	110cd83a 	srl	r6,r2,r4
  8038ec:	003fd706 	br	80384c <__b2d+0x70>
  8038f0:	18bfff17 	ldw	r2,-4(r3)
  8038f4:	114ed83a 	srl	r7,r2,r5
  8038f8:	003fec06 	br	8038ac <__b2d+0xd0>

008038fc <__ratio>:
  8038fc:	defff904 	addi	sp,sp,-28
  803900:	dc400215 	stw	r17,8(sp)
  803904:	2823883a 	mov	r17,r5
  803908:	d80b883a 	mov	r5,sp
  80390c:	dfc00615 	stw	ra,24(sp)
  803910:	dd000515 	stw	r20,20(sp)
  803914:	dcc00415 	stw	r19,16(sp)
  803918:	dc800315 	stw	r18,12(sp)
  80391c:	2025883a 	mov	r18,r4
  803920:	08037dc0 	call	8037dc <__b2d>
  803924:	8809883a 	mov	r4,r17
  803928:	d9400104 	addi	r5,sp,4
  80392c:	1027883a 	mov	r19,r2
  803930:	1829883a 	mov	r20,r3
  803934:	08037dc0 	call	8037dc <__b2d>
  803938:	89000417 	ldw	r4,16(r17)
  80393c:	91c00417 	ldw	r7,16(r18)
  803940:	d9800117 	ldw	r6,4(sp)
  803944:	180b883a 	mov	r5,r3
  803948:	390fc83a 	sub	r7,r7,r4
  80394c:	1009883a 	mov	r4,r2
  803950:	d8800017 	ldw	r2,0(sp)
  803954:	380e917a 	slli	r7,r7,5
  803958:	2011883a 	mov	r8,r4
  80395c:	1185c83a 	sub	r2,r2,r6
  803960:	11c5883a 	add	r2,r2,r7
  803964:	1006953a 	slli	r3,r2,20
  803968:	2813883a 	mov	r9,r5
  80396c:	00800d0e 	bge	zero,r2,8039a4 <__ratio+0xa8>
  803970:	1d29883a 	add	r20,r3,r20
  803974:	a00b883a 	mov	r5,r20
  803978:	480f883a 	mov	r7,r9
  80397c:	9809883a 	mov	r4,r19
  803980:	400d883a 	mov	r6,r8
  803984:	08010880 	call	801088 <__divdf3>
  803988:	dfc00617 	ldw	ra,24(sp)
  80398c:	dd000517 	ldw	r20,20(sp)
  803990:	dcc00417 	ldw	r19,16(sp)
  803994:	dc800317 	ldw	r18,12(sp)
  803998:	dc400217 	ldw	r17,8(sp)
  80399c:	dec00704 	addi	sp,sp,28
  8039a0:	f800283a 	ret
  8039a4:	28d3c83a 	sub	r9,r5,r3
  8039a8:	003ff206 	br	803974 <__ratio+0x78>

008039ac <_mprec_log10>:
  8039ac:	defffe04 	addi	sp,sp,-8
  8039b0:	008005c4 	movi	r2,23
  8039b4:	dc000015 	stw	r16,0(sp)
  8039b8:	dfc00115 	stw	ra,4(sp)
  8039bc:	2021883a 	mov	r16,r4
  8039c0:	11000c16 	blt	r2,r4,8039f4 <_mprec_log10+0x48>
  8039c4:	200490fa 	slli	r2,r4,3
  8039c8:	00c02074 	movhi	r3,129
  8039cc:	18e69204 	addi	r3,r3,-26040
  8039d0:	10c5883a 	add	r2,r2,r3
  8039d4:	12400117 	ldw	r9,4(r2)
  8039d8:	12000017 	ldw	r8,0(r2)
  8039dc:	4807883a 	mov	r3,r9
  8039e0:	4005883a 	mov	r2,r8
  8039e4:	dfc00117 	ldw	ra,4(sp)
  8039e8:	dc000017 	ldw	r16,0(sp)
  8039ec:	dec00204 	addi	sp,sp,8
  8039f0:	f800283a 	ret
  8039f4:	0011883a 	mov	r8,zero
  8039f8:	024ffc34 	movhi	r9,16368
  8039fc:	0005883a 	mov	r2,zero
  803a00:	00d00934 	movhi	r3,16420
  803a04:	480b883a 	mov	r5,r9
  803a08:	4009883a 	mov	r4,r8
  803a0c:	180f883a 	mov	r7,r3
  803a10:	100d883a 	mov	r6,r2
  803a14:	08066a40 	call	8066a4 <__muldf3>
  803a18:	843fffc4 	addi	r16,r16,-1
  803a1c:	1011883a 	mov	r8,r2
  803a20:	1813883a 	mov	r9,r3
  803a24:	803ff51e 	bne	r16,zero,8039fc <_mprec_log10+0x50>
  803a28:	4005883a 	mov	r2,r8
  803a2c:	4807883a 	mov	r3,r9
  803a30:	dfc00117 	ldw	ra,4(sp)
  803a34:	dc000017 	ldw	r16,0(sp)
  803a38:	dec00204 	addi	sp,sp,8
  803a3c:	f800283a 	ret

00803a40 <__copybits>:
  803a40:	297fffc4 	addi	r5,r5,-1
  803a44:	30800417 	ldw	r2,16(r6)
  803a48:	280bd17a 	srai	r5,r5,5
  803a4c:	31800504 	addi	r6,r6,20
  803a50:	1085883a 	add	r2,r2,r2
  803a54:	294b883a 	add	r5,r5,r5
  803a58:	294b883a 	add	r5,r5,r5
  803a5c:	1085883a 	add	r2,r2,r2
  803a60:	290b883a 	add	r5,r5,r4
  803a64:	3087883a 	add	r3,r6,r2
  803a68:	29400104 	addi	r5,r5,4
  803a6c:	30c0052e 	bgeu	r6,r3,803a84 <__copybits+0x44>
  803a70:	30800017 	ldw	r2,0(r6)
  803a74:	31800104 	addi	r6,r6,4
  803a78:	20800015 	stw	r2,0(r4)
  803a7c:	21000104 	addi	r4,r4,4
  803a80:	30fffb36 	bltu	r6,r3,803a70 <__copybits+0x30>
  803a84:	2140032e 	bgeu	r4,r5,803a94 <__copybits+0x54>
  803a88:	20000015 	stw	zero,0(r4)
  803a8c:	21000104 	addi	r4,r4,4
  803a90:	217ffd36 	bltu	r4,r5,803a88 <__copybits+0x48>
  803a94:	f800283a 	ret

00803a98 <__any_on>:
  803a98:	20800417 	ldw	r2,16(r4)
  803a9c:	2807d17a 	srai	r3,r5,5
  803aa0:	21000504 	addi	r4,r4,20
  803aa4:	10c00d0e 	bge	r2,r3,803adc <__any_on+0x44>
  803aa8:	1085883a 	add	r2,r2,r2
  803aac:	1085883a 	add	r2,r2,r2
  803ab0:	208d883a 	add	r6,r4,r2
  803ab4:	2180182e 	bgeu	r4,r6,803b18 <__any_on+0x80>
  803ab8:	30bfff17 	ldw	r2,-4(r6)
  803abc:	30ffff04 	addi	r3,r6,-4
  803ac0:	1000041e 	bne	r2,zero,803ad4 <__any_on+0x3c>
  803ac4:	20c0142e 	bgeu	r4,r3,803b18 <__any_on+0x80>
  803ac8:	18ffff04 	addi	r3,r3,-4
  803acc:	18800017 	ldw	r2,0(r3)
  803ad0:	103ffc26 	beq	r2,zero,803ac4 <__any_on+0x2c>
  803ad4:	00800044 	movi	r2,1
  803ad8:	f800283a 	ret
  803adc:	18800a0e 	bge	r3,r2,803b08 <__any_on+0x70>
  803ae0:	294007cc 	andi	r5,r5,31
  803ae4:	28000826 	beq	r5,zero,803b08 <__any_on+0x70>
  803ae8:	18c5883a 	add	r2,r3,r3
  803aec:	1085883a 	add	r2,r2,r2
  803af0:	208d883a 	add	r6,r4,r2
  803af4:	30c00017 	ldw	r3,0(r6)
  803af8:	1944d83a 	srl	r2,r3,r5
  803afc:	1144983a 	sll	r2,r2,r5
  803b00:	18bff41e 	bne	r3,r2,803ad4 <__any_on+0x3c>
  803b04:	003feb06 	br	803ab4 <__any_on+0x1c>
  803b08:	18c5883a 	add	r2,r3,r3
  803b0c:	1085883a 	add	r2,r2,r2
  803b10:	208d883a 	add	r6,r4,r2
  803b14:	003fe706 	br	803ab4 <__any_on+0x1c>
  803b18:	0005883a 	mov	r2,zero
  803b1c:	f800283a 	ret

00803b20 <_Balloc>:
  803b20:	20c01317 	ldw	r3,76(r4)
  803b24:	defffb04 	addi	sp,sp,-20
  803b28:	dcc00315 	stw	r19,12(sp)
  803b2c:	dc800215 	stw	r18,8(sp)
  803b30:	dfc00415 	stw	ra,16(sp)
  803b34:	2825883a 	mov	r18,r5
  803b38:	dc400115 	stw	r17,4(sp)
  803b3c:	dc000015 	stw	r16,0(sp)
  803b40:	2027883a 	mov	r19,r4
  803b44:	01800404 	movi	r6,16
  803b48:	01400104 	movi	r5,4
  803b4c:	18001726 	beq	r3,zero,803bac <_Balloc+0x8c>
  803b50:	01400044 	movi	r5,1
  803b54:	9485883a 	add	r2,r18,r18
  803b58:	2ca2983a 	sll	r17,r5,r18
  803b5c:	1085883a 	add	r2,r2,r2
  803b60:	10c7883a 	add	r3,r2,r3
  803b64:	1c000017 	ldw	r16,0(r3)
  803b68:	8c4d883a 	add	r6,r17,r17
  803b6c:	318d883a 	add	r6,r6,r6
  803b70:	9809883a 	mov	r4,r19
  803b74:	31800504 	addi	r6,r6,20
  803b78:	80001226 	beq	r16,zero,803bc4 <_Balloc+0xa4>
  803b7c:	80800017 	ldw	r2,0(r16)
  803b80:	18800015 	stw	r2,0(r3)
  803b84:	80000415 	stw	zero,16(r16)
  803b88:	80000315 	stw	zero,12(r16)
  803b8c:	8005883a 	mov	r2,r16
  803b90:	dfc00417 	ldw	ra,16(sp)
  803b94:	dcc00317 	ldw	r19,12(sp)
  803b98:	dc800217 	ldw	r18,8(sp)
  803b9c:	dc400117 	ldw	r17,4(sp)
  803ba0:	dc000017 	ldw	r16,0(sp)
  803ba4:	dec00504 	addi	sp,sp,20
  803ba8:	f800283a 	ret
  803bac:	0804c140 	call	804c14 <_calloc_r>
  803bb0:	1007883a 	mov	r3,r2
  803bb4:	0021883a 	mov	r16,zero
  803bb8:	98801315 	stw	r2,76(r19)
  803bbc:	103fe41e 	bne	r2,zero,803b50 <_Balloc+0x30>
  803bc0:	003ff206 	br	803b8c <_Balloc+0x6c>
  803bc4:	0804c140 	call	804c14 <_calloc_r>
  803bc8:	103ff026 	beq	r2,zero,803b8c <_Balloc+0x6c>
  803bcc:	1021883a 	mov	r16,r2
  803bd0:	14800115 	stw	r18,4(r2)
  803bd4:	14400215 	stw	r17,8(r2)
  803bd8:	003fea06 	br	803b84 <_Balloc+0x64>

00803bdc <__d2b>:
  803bdc:	defff504 	addi	sp,sp,-44
  803be0:	dcc00515 	stw	r19,20(sp)
  803be4:	04c00044 	movi	r19,1
  803be8:	dc000215 	stw	r16,8(sp)
  803bec:	2821883a 	mov	r16,r5
  803bf0:	980b883a 	mov	r5,r19
  803bf4:	ddc00915 	stw	r23,36(sp)
  803bf8:	dd800815 	stw	r22,32(sp)
  803bfc:	dd400715 	stw	r21,28(sp)
  803c00:	dd000615 	stw	r20,24(sp)
  803c04:	dc800415 	stw	r18,16(sp)
  803c08:	dc400315 	stw	r17,12(sp)
  803c0c:	dfc00a15 	stw	ra,40(sp)
  803c10:	3023883a 	mov	r17,r6
  803c14:	382d883a 	mov	r22,r7
  803c18:	ddc00b17 	ldw	r23,44(sp)
  803c1c:	0803b200 	call	803b20 <_Balloc>
  803c20:	1025883a 	mov	r18,r2
  803c24:	00a00034 	movhi	r2,32768
  803c28:	10bfffc4 	addi	r2,r2,-1
  803c2c:	8888703a 	and	r4,r17,r2
  803c30:	202ad53a 	srli	r21,r4,20
  803c34:	00800434 	movhi	r2,16
  803c38:	10bfffc4 	addi	r2,r2,-1
  803c3c:	8886703a 	and	r3,r17,r2
  803c40:	a829003a 	cmpeq	r20,r21,zero
  803c44:	800b883a 	mov	r5,r16
  803c48:	d8c00115 	stw	r3,4(sp)
  803c4c:	94000504 	addi	r16,r18,20
  803c50:	a000021e 	bne	r20,zero,803c5c <__d2b+0x80>
  803c54:	18c00434 	orhi	r3,r3,16
  803c58:	d8c00115 	stw	r3,4(sp)
  803c5c:	28002726 	beq	r5,zero,803cfc <__d2b+0x120>
  803c60:	d809883a 	mov	r4,sp
  803c64:	d9400015 	stw	r5,0(sp)
  803c68:	08036380 	call	803638 <__lo0bits>
  803c6c:	100d883a 	mov	r6,r2
  803c70:	10003526 	beq	r2,zero,803d48 <__d2b+0x16c>
  803c74:	d8c00117 	ldw	r3,4(sp)
  803c78:	00800804 	movi	r2,32
  803c7c:	1185c83a 	sub	r2,r2,r6
  803c80:	d9000017 	ldw	r4,0(sp)
  803c84:	1886983a 	sll	r3,r3,r2
  803c88:	1906b03a 	or	r3,r3,r4
  803c8c:	90c00515 	stw	r3,20(r18)
  803c90:	d8c00117 	ldw	r3,4(sp)
  803c94:	1986d83a 	srl	r3,r3,r6
  803c98:	d8c00115 	stw	r3,4(sp)
  803c9c:	180b003a 	cmpeq	r5,r3,zero
  803ca0:	00800084 	movi	r2,2
  803ca4:	114bc83a 	sub	r5,r2,r5
  803ca8:	80c00115 	stw	r3,4(r16)
  803cac:	91400415 	stw	r5,16(r18)
  803cb0:	a0001a1e 	bne	r20,zero,803d1c <__d2b+0x140>
  803cb4:	3545883a 	add	r2,r6,r21
  803cb8:	10bef344 	addi	r2,r2,-1075
  803cbc:	00c00d44 	movi	r3,53
  803cc0:	b0800015 	stw	r2,0(r22)
  803cc4:	1987c83a 	sub	r3,r3,r6
  803cc8:	b8c00015 	stw	r3,0(r23)
  803ccc:	9005883a 	mov	r2,r18
  803cd0:	dfc00a17 	ldw	ra,40(sp)
  803cd4:	ddc00917 	ldw	r23,36(sp)
  803cd8:	dd800817 	ldw	r22,32(sp)
  803cdc:	dd400717 	ldw	r21,28(sp)
  803ce0:	dd000617 	ldw	r20,24(sp)
  803ce4:	dcc00517 	ldw	r19,20(sp)
  803ce8:	dc800417 	ldw	r18,16(sp)
  803cec:	dc400317 	ldw	r17,12(sp)
  803cf0:	dc000217 	ldw	r16,8(sp)
  803cf4:	dec00b04 	addi	sp,sp,44
  803cf8:	f800283a 	ret
  803cfc:	d9000104 	addi	r4,sp,4
  803d00:	08036380 	call	803638 <__lo0bits>
  803d04:	11800804 	addi	r6,r2,32
  803d08:	d8800117 	ldw	r2,4(sp)
  803d0c:	94c00415 	stw	r19,16(r18)
  803d10:	980b883a 	mov	r5,r19
  803d14:	90800515 	stw	r2,20(r18)
  803d18:	a03fe626 	beq	r20,zero,803cb4 <__d2b+0xd8>
  803d1c:	2945883a 	add	r2,r5,r5
  803d20:	1085883a 	add	r2,r2,r2
  803d24:	1405883a 	add	r2,r2,r16
  803d28:	113fff17 	ldw	r4,-4(r2)
  803d2c:	30fef384 	addi	r3,r6,-1074
  803d30:	2820917a 	slli	r16,r5,5
  803d34:	b0c00015 	stw	r3,0(r22)
  803d38:	08035c80 	call	8035c8 <__hi0bits>
  803d3c:	80a1c83a 	sub	r16,r16,r2
  803d40:	bc000015 	stw	r16,0(r23)
  803d44:	003fe106 	br	803ccc <__d2b+0xf0>
  803d48:	d8800017 	ldw	r2,0(sp)
  803d4c:	90800515 	stw	r2,20(r18)
  803d50:	d8c00117 	ldw	r3,4(sp)
  803d54:	003fd106 	br	803c9c <__d2b+0xc0>

00803d58 <__mdiff>:
  803d58:	defffb04 	addi	sp,sp,-20
  803d5c:	dc000015 	stw	r16,0(sp)
  803d60:	2821883a 	mov	r16,r5
  803d64:	dc800215 	stw	r18,8(sp)
  803d68:	300b883a 	mov	r5,r6
  803d6c:	2025883a 	mov	r18,r4
  803d70:	8009883a 	mov	r4,r16
  803d74:	dc400115 	stw	r17,4(sp)
  803d78:	dfc00415 	stw	ra,16(sp)
  803d7c:	dcc00315 	stw	r19,12(sp)
  803d80:	3023883a 	mov	r17,r6
  803d84:	08036fc0 	call	8036fc <__mcmp>
  803d88:	10004226 	beq	r2,zero,803e94 <__mdiff+0x13c>
  803d8c:	10005016 	blt	r2,zero,803ed0 <__mdiff+0x178>
  803d90:	0027883a 	mov	r19,zero
  803d94:	81400117 	ldw	r5,4(r16)
  803d98:	9009883a 	mov	r4,r18
  803d9c:	0803b200 	call	803b20 <_Balloc>
  803da0:	1019883a 	mov	r12,r2
  803da4:	82800417 	ldw	r10,16(r16)
  803da8:	88800417 	ldw	r2,16(r17)
  803dac:	81800504 	addi	r6,r16,20
  803db0:	5287883a 	add	r3,r10,r10
  803db4:	1085883a 	add	r2,r2,r2
  803db8:	18c7883a 	add	r3,r3,r3
  803dbc:	1085883a 	add	r2,r2,r2
  803dc0:	8a000504 	addi	r8,r17,20
  803dc4:	64c00315 	stw	r19,12(r12)
  803dc8:	30db883a 	add	r13,r6,r3
  803dcc:	4097883a 	add	r11,r8,r2
  803dd0:	61c00504 	addi	r7,r12,20
  803dd4:	0013883a 	mov	r9,zero
  803dd8:	31000017 	ldw	r4,0(r6)
  803ddc:	41400017 	ldw	r5,0(r8)
  803de0:	42000104 	addi	r8,r8,4
  803de4:	20bfffcc 	andi	r2,r4,65535
  803de8:	28ffffcc 	andi	r3,r5,65535
  803dec:	10c5c83a 	sub	r2,r2,r3
  803df0:	1245883a 	add	r2,r2,r9
  803df4:	2008d43a 	srli	r4,r4,16
  803df8:	280ad43a 	srli	r5,r5,16
  803dfc:	1007d43a 	srai	r3,r2,16
  803e00:	3880000d 	sth	r2,0(r7)
  803e04:	2149c83a 	sub	r4,r4,r5
  803e08:	20c9883a 	add	r4,r4,r3
  803e0c:	3900008d 	sth	r4,2(r7)
  803e10:	31800104 	addi	r6,r6,4
  803e14:	39c00104 	addi	r7,r7,4
  803e18:	2013d43a 	srai	r9,r4,16
  803e1c:	42ffee36 	bltu	r8,r11,803dd8 <__mdiff+0x80>
  803e20:	33400c2e 	bgeu	r6,r13,803e54 <__mdiff+0xfc>
  803e24:	30800017 	ldw	r2,0(r6)
  803e28:	31800104 	addi	r6,r6,4
  803e2c:	10ffffcc 	andi	r3,r2,65535
  803e30:	1a47883a 	add	r3,r3,r9
  803e34:	1004d43a 	srli	r2,r2,16
  803e38:	1809d43a 	srai	r4,r3,16
  803e3c:	38c0000d 	sth	r3,0(r7)
  803e40:	1105883a 	add	r2,r2,r4
  803e44:	3880008d 	sth	r2,2(r7)
  803e48:	1013d43a 	srai	r9,r2,16
  803e4c:	39c00104 	addi	r7,r7,4
  803e50:	337ff436 	bltu	r6,r13,803e24 <__mdiff+0xcc>
  803e54:	38bfff17 	ldw	r2,-4(r7)
  803e58:	38ffff04 	addi	r3,r7,-4
  803e5c:	1000041e 	bne	r2,zero,803e70 <__mdiff+0x118>
  803e60:	18ffff04 	addi	r3,r3,-4
  803e64:	18800017 	ldw	r2,0(r3)
  803e68:	52bfffc4 	addi	r10,r10,-1
  803e6c:	103ffc26 	beq	r2,zero,803e60 <__mdiff+0x108>
  803e70:	6005883a 	mov	r2,r12
  803e74:	62800415 	stw	r10,16(r12)
  803e78:	dfc00417 	ldw	ra,16(sp)
  803e7c:	dcc00317 	ldw	r19,12(sp)
  803e80:	dc800217 	ldw	r18,8(sp)
  803e84:	dc400117 	ldw	r17,4(sp)
  803e88:	dc000017 	ldw	r16,0(sp)
  803e8c:	dec00504 	addi	sp,sp,20
  803e90:	f800283a 	ret
  803e94:	9009883a 	mov	r4,r18
  803e98:	000b883a 	mov	r5,zero
  803e9c:	0803b200 	call	803b20 <_Balloc>
  803ea0:	1019883a 	mov	r12,r2
  803ea4:	00800044 	movi	r2,1
  803ea8:	60800415 	stw	r2,16(r12)
  803eac:	6005883a 	mov	r2,r12
  803eb0:	60000515 	stw	zero,20(r12)
  803eb4:	dfc00417 	ldw	ra,16(sp)
  803eb8:	dcc00317 	ldw	r19,12(sp)
  803ebc:	dc800217 	ldw	r18,8(sp)
  803ec0:	dc400117 	ldw	r17,4(sp)
  803ec4:	dc000017 	ldw	r16,0(sp)
  803ec8:	dec00504 	addi	sp,sp,20
  803ecc:	f800283a 	ret
  803ed0:	880d883a 	mov	r6,r17
  803ed4:	04c00044 	movi	r19,1
  803ed8:	8023883a 	mov	r17,r16
  803edc:	3021883a 	mov	r16,r6
  803ee0:	003fac06 	br	803d94 <__mdiff+0x3c>

00803ee4 <__lshift>:
  803ee4:	defff904 	addi	sp,sp,-28
  803ee8:	28800417 	ldw	r2,16(r5)
  803eec:	dc000015 	stw	r16,0(sp)
  803ef0:	3021d17a 	srai	r16,r6,5
  803ef4:	28c00217 	ldw	r3,8(r5)
  803ef8:	10800044 	addi	r2,r2,1
  803efc:	dc400115 	stw	r17,4(sp)
  803f00:	80a3883a 	add	r17,r16,r2
  803f04:	dd400515 	stw	r21,20(sp)
  803f08:	dd000415 	stw	r20,16(sp)
  803f0c:	dc800215 	stw	r18,8(sp)
  803f10:	dfc00615 	stw	ra,24(sp)
  803f14:	2825883a 	mov	r18,r5
  803f18:	dcc00315 	stw	r19,12(sp)
  803f1c:	3029883a 	mov	r20,r6
  803f20:	202b883a 	mov	r21,r4
  803f24:	29400117 	ldw	r5,4(r5)
  803f28:	1c40030e 	bge	r3,r17,803f38 <__lshift+0x54>
  803f2c:	18c7883a 	add	r3,r3,r3
  803f30:	29400044 	addi	r5,r5,1
  803f34:	1c7ffd16 	blt	r3,r17,803f2c <__lshift+0x48>
  803f38:	a809883a 	mov	r4,r21
  803f3c:	0803b200 	call	803b20 <_Balloc>
  803f40:	1027883a 	mov	r19,r2
  803f44:	11400504 	addi	r5,r2,20
  803f48:	0400090e 	bge	zero,r16,803f70 <__lshift+0x8c>
  803f4c:	2805883a 	mov	r2,r5
  803f50:	0007883a 	mov	r3,zero
  803f54:	18c00044 	addi	r3,r3,1
  803f58:	10000015 	stw	zero,0(r2)
  803f5c:	10800104 	addi	r2,r2,4
  803f60:	80fffc1e 	bne	r16,r3,803f54 <__lshift+0x70>
  803f64:	8405883a 	add	r2,r16,r16
  803f68:	1085883a 	add	r2,r2,r2
  803f6c:	288b883a 	add	r5,r5,r2
  803f70:	90800417 	ldw	r2,16(r18)
  803f74:	91000504 	addi	r4,r18,20
  803f78:	a18007cc 	andi	r6,r20,31
  803f7c:	1085883a 	add	r2,r2,r2
  803f80:	1085883a 	add	r2,r2,r2
  803f84:	208f883a 	add	r7,r4,r2
  803f88:	30001e26 	beq	r6,zero,804004 <__lshift+0x120>
  803f8c:	00800804 	movi	r2,32
  803f90:	1191c83a 	sub	r8,r2,r6
  803f94:	0007883a 	mov	r3,zero
  803f98:	20800017 	ldw	r2,0(r4)
  803f9c:	1184983a 	sll	r2,r2,r6
  803fa0:	1884b03a 	or	r2,r3,r2
  803fa4:	28800015 	stw	r2,0(r5)
  803fa8:	20c00017 	ldw	r3,0(r4)
  803fac:	21000104 	addi	r4,r4,4
  803fb0:	29400104 	addi	r5,r5,4
  803fb4:	1a06d83a 	srl	r3,r3,r8
  803fb8:	21fff736 	bltu	r4,r7,803f98 <__lshift+0xb4>
  803fbc:	28c00015 	stw	r3,0(r5)
  803fc0:	18000126 	beq	r3,zero,803fc8 <__lshift+0xe4>
  803fc4:	8c400044 	addi	r17,r17,1
  803fc8:	88bfffc4 	addi	r2,r17,-1
  803fcc:	98800415 	stw	r2,16(r19)
  803fd0:	a809883a 	mov	r4,r21
  803fd4:	900b883a 	mov	r5,r18
  803fd8:	08035a00 	call	8035a0 <_Bfree>
  803fdc:	9805883a 	mov	r2,r19
  803fe0:	dfc00617 	ldw	ra,24(sp)
  803fe4:	dd400517 	ldw	r21,20(sp)
  803fe8:	dd000417 	ldw	r20,16(sp)
  803fec:	dcc00317 	ldw	r19,12(sp)
  803ff0:	dc800217 	ldw	r18,8(sp)
  803ff4:	dc400117 	ldw	r17,4(sp)
  803ff8:	dc000017 	ldw	r16,0(sp)
  803ffc:	dec00704 	addi	sp,sp,28
  804000:	f800283a 	ret
  804004:	20800017 	ldw	r2,0(r4)
  804008:	21000104 	addi	r4,r4,4
  80400c:	28800015 	stw	r2,0(r5)
  804010:	29400104 	addi	r5,r5,4
  804014:	21ffec2e 	bgeu	r4,r7,803fc8 <__lshift+0xe4>
  804018:	20800017 	ldw	r2,0(r4)
  80401c:	21000104 	addi	r4,r4,4
  804020:	28800015 	stw	r2,0(r5)
  804024:	29400104 	addi	r5,r5,4
  804028:	21fff636 	bltu	r4,r7,804004 <__lshift+0x120>
  80402c:	003fe606 	br	803fc8 <__lshift+0xe4>

00804030 <__multiply>:
  804030:	defff904 	addi	sp,sp,-28
  804034:	dcc00315 	stw	r19,12(sp)
  804038:	dc800215 	stw	r18,8(sp)
  80403c:	2cc00417 	ldw	r19,16(r5)
  804040:	34800417 	ldw	r18,16(r6)
  804044:	dd000415 	stw	r20,16(sp)
  804048:	dc400115 	stw	r17,4(sp)
  80404c:	dfc00615 	stw	ra,24(sp)
  804050:	dd400515 	stw	r21,20(sp)
  804054:	dc000015 	stw	r16,0(sp)
  804058:	2823883a 	mov	r17,r5
  80405c:	3029883a 	mov	r20,r6
  804060:	9c80040e 	bge	r19,r18,804074 <__multiply+0x44>
  804064:	9027883a 	mov	r19,r18
  804068:	2c800417 	ldw	r18,16(r5)
  80406c:	2829883a 	mov	r20,r5
  804070:	3023883a 	mov	r17,r6
  804074:	88800217 	ldw	r2,8(r17)
  804078:	9ca1883a 	add	r16,r19,r18
  80407c:	89400117 	ldw	r5,4(r17)
  804080:	1400010e 	bge	r2,r16,804088 <__multiply+0x58>
  804084:	29400044 	addi	r5,r5,1
  804088:	0803b200 	call	803b20 <_Balloc>
  80408c:	102b883a 	mov	r21,r2
  804090:	8405883a 	add	r2,r16,r16
  804094:	1085883a 	add	r2,r2,r2
  804098:	a9000504 	addi	r4,r21,20
  80409c:	209d883a 	add	r14,r4,r2
  8040a0:	2380042e 	bgeu	r4,r14,8040b4 <__multiply+0x84>
  8040a4:	2005883a 	mov	r2,r4
  8040a8:	10000015 	stw	zero,0(r2)
  8040ac:	10800104 	addi	r2,r2,4
  8040b0:	13bffd36 	bltu	r2,r14,8040a8 <__multiply+0x78>
  8040b4:	9485883a 	add	r2,r18,r18
  8040b8:	9cc7883a 	add	r3,r19,r19
  8040bc:	a1800504 	addi	r6,r20,20
  8040c0:	1085883a 	add	r2,r2,r2
  8040c4:	8b400504 	addi	r13,r17,20
  8040c8:	18c7883a 	add	r3,r3,r3
  8040cc:	309f883a 	add	r15,r6,r2
  8040d0:	68d7883a 	add	r11,r13,r3
  8040d4:	33c03b2e 	bgeu	r6,r15,8041c4 <__multiply+0x194>
  8040d8:	2019883a 	mov	r12,r4
  8040dc:	30800017 	ldw	r2,0(r6)
  8040e0:	127fffcc 	andi	r9,r2,65535
  8040e4:	48001826 	beq	r9,zero,804148 <__multiply+0x118>
  8040e8:	6811883a 	mov	r8,r13
  8040ec:	600f883a 	mov	r7,r12
  8040f0:	0015883a 	mov	r10,zero
  8040f4:	40c00017 	ldw	r3,0(r8)
  8040f8:	39400017 	ldw	r5,0(r7)
  8040fc:	42000104 	addi	r8,r8,4
  804100:	193fffcc 	andi	r4,r3,65535
  804104:	4909383a 	mul	r4,r9,r4
  804108:	1806d43a 	srli	r3,r3,16
  80410c:	28bfffcc 	andi	r2,r5,65535
  804110:	5085883a 	add	r2,r10,r2
  804114:	2089883a 	add	r4,r4,r2
  804118:	48c7383a 	mul	r3,r9,r3
  80411c:	280ad43a 	srli	r5,r5,16
  804120:	2004d43a 	srli	r2,r4,16
  804124:	3900000d 	sth	r4,0(r7)
  804128:	1947883a 	add	r3,r3,r5
  80412c:	10c5883a 	add	r2,r2,r3
  804130:	3880008d 	sth	r2,2(r7)
  804134:	1014d43a 	srli	r10,r2,16
  804138:	39c00104 	addi	r7,r7,4
  80413c:	42ffed36 	bltu	r8,r11,8040f4 <__multiply+0xc4>
  804140:	3a800015 	stw	r10,0(r7)
  804144:	30800017 	ldw	r2,0(r6)
  804148:	1012d43a 	srli	r9,r2,16
  80414c:	48001926 	beq	r9,zero,8041b4 <__multiply+0x184>
  804150:	60800017 	ldw	r2,0(r12)
  804154:	6811883a 	mov	r8,r13
  804158:	600f883a 	mov	r7,r12
  80415c:	0015883a 	mov	r10,zero
  804160:	100b883a 	mov	r5,r2
  804164:	41000017 	ldw	r4,0(r8)
  804168:	2806d43a 	srli	r3,r5,16
  80416c:	3880000d 	sth	r2,0(r7)
  804170:	20bfffcc 	andi	r2,r4,65535
  804174:	4885383a 	mul	r2,r9,r2
  804178:	50c7883a 	add	r3,r10,r3
  80417c:	2008d43a 	srli	r4,r4,16
  804180:	10c5883a 	add	r2,r2,r3
  804184:	3880008d 	sth	r2,2(r7)
  804188:	39c00104 	addi	r7,r7,4
  80418c:	39400017 	ldw	r5,0(r7)
  804190:	4909383a 	mul	r4,r9,r4
  804194:	1004d43a 	srli	r2,r2,16
  804198:	28ffffcc 	andi	r3,r5,65535
  80419c:	20c9883a 	add	r4,r4,r3
  8041a0:	1105883a 	add	r2,r2,r4
  8041a4:	42000104 	addi	r8,r8,4
  8041a8:	1014d43a 	srli	r10,r2,16
  8041ac:	42ffed36 	bltu	r8,r11,804164 <__multiply+0x134>
  8041b0:	38800015 	stw	r2,0(r7)
  8041b4:	31800104 	addi	r6,r6,4
  8041b8:	33c0022e 	bgeu	r6,r15,8041c4 <__multiply+0x194>
  8041bc:	63000104 	addi	r12,r12,4
  8041c0:	003fc606 	br	8040dc <__multiply+0xac>
  8041c4:	0400090e 	bge	zero,r16,8041ec <__multiply+0x1bc>
  8041c8:	70bfff17 	ldw	r2,-4(r14)
  8041cc:	70ffff04 	addi	r3,r14,-4
  8041d0:	10000326 	beq	r2,zero,8041e0 <__multiply+0x1b0>
  8041d4:	00000506 	br	8041ec <__multiply+0x1bc>
  8041d8:	18800017 	ldw	r2,0(r3)
  8041dc:	1000031e 	bne	r2,zero,8041ec <__multiply+0x1bc>
  8041e0:	843fffc4 	addi	r16,r16,-1
  8041e4:	18ffff04 	addi	r3,r3,-4
  8041e8:	803ffb1e 	bne	r16,zero,8041d8 <__multiply+0x1a8>
  8041ec:	a805883a 	mov	r2,r21
  8041f0:	ac000415 	stw	r16,16(r21)
  8041f4:	dfc00617 	ldw	ra,24(sp)
  8041f8:	dd400517 	ldw	r21,20(sp)
  8041fc:	dd000417 	ldw	r20,16(sp)
  804200:	dcc00317 	ldw	r19,12(sp)
  804204:	dc800217 	ldw	r18,8(sp)
  804208:	dc400117 	ldw	r17,4(sp)
  80420c:	dc000017 	ldw	r16,0(sp)
  804210:	dec00704 	addi	sp,sp,28
  804214:	f800283a 	ret

00804218 <__i2b>:
  804218:	defffd04 	addi	sp,sp,-12
  80421c:	dc000015 	stw	r16,0(sp)
  804220:	04000044 	movi	r16,1
  804224:	dc800115 	stw	r18,4(sp)
  804228:	2825883a 	mov	r18,r5
  80422c:	800b883a 	mov	r5,r16
  804230:	dfc00215 	stw	ra,8(sp)
  804234:	0803b200 	call	803b20 <_Balloc>
  804238:	14000415 	stw	r16,16(r2)
  80423c:	14800515 	stw	r18,20(r2)
  804240:	dfc00217 	ldw	ra,8(sp)
  804244:	dc800117 	ldw	r18,4(sp)
  804248:	dc000017 	ldw	r16,0(sp)
  80424c:	dec00304 	addi	sp,sp,12
  804250:	f800283a 	ret

00804254 <__multadd>:
  804254:	defffa04 	addi	sp,sp,-24
  804258:	dc800215 	stw	r18,8(sp)
  80425c:	2c800417 	ldw	r18,16(r5)
  804260:	dd000415 	stw	r20,16(sp)
  804264:	dcc00315 	stw	r19,12(sp)
  804268:	dc000015 	stw	r16,0(sp)
  80426c:	dfc00515 	stw	ra,20(sp)
  804270:	3821883a 	mov	r16,r7
  804274:	dc400115 	stw	r17,4(sp)
  804278:	2827883a 	mov	r19,r5
  80427c:	2029883a 	mov	r20,r4
  804280:	2a000504 	addi	r8,r5,20
  804284:	000f883a 	mov	r7,zero
  804288:	40800017 	ldw	r2,0(r8)
  80428c:	39c00044 	addi	r7,r7,1
  804290:	10ffffcc 	andi	r3,r2,65535
  804294:	1987383a 	mul	r3,r3,r6
  804298:	1004d43a 	srli	r2,r2,16
  80429c:	1c07883a 	add	r3,r3,r16
  8042a0:	180ad43a 	srli	r5,r3,16
  8042a4:	1185383a 	mul	r2,r2,r6
  8042a8:	18ffffcc 	andi	r3,r3,65535
  8042ac:	1145883a 	add	r2,r2,r5
  8042b0:	1008943a 	slli	r4,r2,16
  8042b4:	1020d43a 	srli	r16,r2,16
  8042b8:	20c9883a 	add	r4,r4,r3
  8042bc:	41000015 	stw	r4,0(r8)
  8042c0:	42000104 	addi	r8,r8,4
  8042c4:	3cbff016 	blt	r7,r18,804288 <__multadd+0x34>
  8042c8:	80000826 	beq	r16,zero,8042ec <__multadd+0x98>
  8042cc:	98800217 	ldw	r2,8(r19)
  8042d0:	90800f0e 	bge	r18,r2,804310 <__multadd+0xbc>
  8042d4:	9485883a 	add	r2,r18,r18
  8042d8:	1085883a 	add	r2,r2,r2
  8042dc:	14c5883a 	add	r2,r2,r19
  8042e0:	90c00044 	addi	r3,r18,1
  8042e4:	14000515 	stw	r16,20(r2)
  8042e8:	98c00415 	stw	r3,16(r19)
  8042ec:	9805883a 	mov	r2,r19
  8042f0:	dfc00517 	ldw	ra,20(sp)
  8042f4:	dd000417 	ldw	r20,16(sp)
  8042f8:	dcc00317 	ldw	r19,12(sp)
  8042fc:	dc800217 	ldw	r18,8(sp)
  804300:	dc400117 	ldw	r17,4(sp)
  804304:	dc000017 	ldw	r16,0(sp)
  804308:	dec00604 	addi	sp,sp,24
  80430c:	f800283a 	ret
  804310:	99400117 	ldw	r5,4(r19)
  804314:	a009883a 	mov	r4,r20
  804318:	29400044 	addi	r5,r5,1
  80431c:	0803b200 	call	803b20 <_Balloc>
  804320:	99800417 	ldw	r6,16(r19)
  804324:	99400304 	addi	r5,r19,12
  804328:	11000304 	addi	r4,r2,12
  80432c:	318d883a 	add	r6,r6,r6
  804330:	318d883a 	add	r6,r6,r6
  804334:	31800204 	addi	r6,r6,8
  804338:	1023883a 	mov	r17,r2
  80433c:	08025040 	call	802504 <memcpy>
  804340:	980b883a 	mov	r5,r19
  804344:	a009883a 	mov	r4,r20
  804348:	08035a00 	call	8035a0 <_Bfree>
  80434c:	8827883a 	mov	r19,r17
  804350:	003fe006 	br	8042d4 <__multadd+0x80>

00804354 <__pow5mult>:
  804354:	defffa04 	addi	sp,sp,-24
  804358:	308000cc 	andi	r2,r6,3
  80435c:	dd000415 	stw	r20,16(sp)
  804360:	dcc00315 	stw	r19,12(sp)
  804364:	dc000015 	stw	r16,0(sp)
  804368:	dfc00515 	stw	ra,20(sp)
  80436c:	dc800215 	stw	r18,8(sp)
  804370:	dc400115 	stw	r17,4(sp)
  804374:	3021883a 	mov	r16,r6
  804378:	2027883a 	mov	r19,r4
  80437c:	2829883a 	mov	r20,r5
  804380:	10002b1e 	bne	r2,zero,804430 <__pow5mult+0xdc>
  804384:	8025d0ba 	srai	r18,r16,2
  804388:	90001b26 	beq	r18,zero,8043f8 <__pow5mult+0xa4>
  80438c:	9c001217 	ldw	r16,72(r19)
  804390:	8000081e 	bne	r16,zero,8043b4 <__pow5mult+0x60>
  804394:	00003006 	br	804458 <__pow5mult+0x104>
  804398:	800b883a 	mov	r5,r16
  80439c:	800d883a 	mov	r6,r16
  8043a0:	9809883a 	mov	r4,r19
  8043a4:	90001426 	beq	r18,zero,8043f8 <__pow5mult+0xa4>
  8043a8:	80800017 	ldw	r2,0(r16)
  8043ac:	10001b26 	beq	r2,zero,80441c <__pow5mult+0xc8>
  8043b0:	1021883a 	mov	r16,r2
  8043b4:	9080004c 	andi	r2,r18,1
  8043b8:	1005003a 	cmpeq	r2,r2,zero
  8043bc:	9025d07a 	srai	r18,r18,1
  8043c0:	800d883a 	mov	r6,r16
  8043c4:	9809883a 	mov	r4,r19
  8043c8:	a00b883a 	mov	r5,r20
  8043cc:	103ff21e 	bne	r2,zero,804398 <__pow5mult+0x44>
  8043d0:	08040300 	call	804030 <__multiply>
  8043d4:	a00b883a 	mov	r5,r20
  8043d8:	9809883a 	mov	r4,r19
  8043dc:	1023883a 	mov	r17,r2
  8043e0:	08035a00 	call	8035a0 <_Bfree>
  8043e4:	8829883a 	mov	r20,r17
  8043e8:	800b883a 	mov	r5,r16
  8043ec:	800d883a 	mov	r6,r16
  8043f0:	9809883a 	mov	r4,r19
  8043f4:	903fec1e 	bne	r18,zero,8043a8 <__pow5mult+0x54>
  8043f8:	a005883a 	mov	r2,r20
  8043fc:	dfc00517 	ldw	ra,20(sp)
  804400:	dd000417 	ldw	r20,16(sp)
  804404:	dcc00317 	ldw	r19,12(sp)
  804408:	dc800217 	ldw	r18,8(sp)
  80440c:	dc400117 	ldw	r17,4(sp)
  804410:	dc000017 	ldw	r16,0(sp)
  804414:	dec00604 	addi	sp,sp,24
  804418:	f800283a 	ret
  80441c:	08040300 	call	804030 <__multiply>
  804420:	80800015 	stw	r2,0(r16)
  804424:	1021883a 	mov	r16,r2
  804428:	10000015 	stw	zero,0(r2)
  80442c:	003fe106 	br	8043b4 <__pow5mult+0x60>
  804430:	1085883a 	add	r2,r2,r2
  804434:	00c02074 	movhi	r3,129
  804438:	18e6d804 	addi	r3,r3,-25760
  80443c:	1085883a 	add	r2,r2,r2
  804440:	10c5883a 	add	r2,r2,r3
  804444:	11bfff17 	ldw	r6,-4(r2)
  804448:	000f883a 	mov	r7,zero
  80444c:	08042540 	call	804254 <__multadd>
  804450:	1029883a 	mov	r20,r2
  804454:	003fcb06 	br	804384 <__pow5mult+0x30>
  804458:	9809883a 	mov	r4,r19
  80445c:	01409c44 	movi	r5,625
  804460:	08042180 	call	804218 <__i2b>
  804464:	98801215 	stw	r2,72(r19)
  804468:	1021883a 	mov	r16,r2
  80446c:	10000015 	stw	zero,0(r2)
  804470:	003fd006 	br	8043b4 <__pow5mult+0x60>

00804474 <__s2b>:
  804474:	defff904 	addi	sp,sp,-28
  804478:	dcc00315 	stw	r19,12(sp)
  80447c:	dc800215 	stw	r18,8(sp)
  804480:	2827883a 	mov	r19,r5
  804484:	2025883a 	mov	r18,r4
  804488:	01400244 	movi	r5,9
  80448c:	39000204 	addi	r4,r7,8
  804490:	dd000415 	stw	r20,16(sp)
  804494:	dc400115 	stw	r17,4(sp)
  804498:	dfc00615 	stw	ra,24(sp)
  80449c:	dd400515 	stw	r21,20(sp)
  8044a0:	dc000015 	stw	r16,0(sp)
  8044a4:	3829883a 	mov	r20,r7
  8044a8:	3023883a 	mov	r17,r6
  8044ac:	0806fe40 	call	806fe4 <__divsi3>
  8044b0:	00c00044 	movi	r3,1
  8044b4:	1880350e 	bge	r3,r2,80458c <__s2b+0x118>
  8044b8:	000b883a 	mov	r5,zero
  8044bc:	18c7883a 	add	r3,r3,r3
  8044c0:	29400044 	addi	r5,r5,1
  8044c4:	18bffd16 	blt	r3,r2,8044bc <__s2b+0x48>
  8044c8:	9009883a 	mov	r4,r18
  8044cc:	0803b200 	call	803b20 <_Balloc>
  8044d0:	1011883a 	mov	r8,r2
  8044d4:	d8800717 	ldw	r2,28(sp)
  8044d8:	00c00044 	movi	r3,1
  8044dc:	01800244 	movi	r6,9
  8044e0:	40800515 	stw	r2,20(r8)
  8044e4:	40c00415 	stw	r3,16(r8)
  8044e8:	3440260e 	bge	r6,r17,804584 <__s2b+0x110>
  8044ec:	3021883a 	mov	r16,r6
  8044f0:	99ab883a 	add	r21,r19,r6
  8044f4:	9c05883a 	add	r2,r19,r16
  8044f8:	11c00007 	ldb	r7,0(r2)
  8044fc:	400b883a 	mov	r5,r8
  804500:	9009883a 	mov	r4,r18
  804504:	39fff404 	addi	r7,r7,-48
  804508:	01800284 	movi	r6,10
  80450c:	08042540 	call	804254 <__multadd>
  804510:	84000044 	addi	r16,r16,1
  804514:	1011883a 	mov	r8,r2
  804518:	8c3ff61e 	bne	r17,r16,8044f4 <__s2b+0x80>
  80451c:	ac45883a 	add	r2,r21,r17
  804520:	117ffe04 	addi	r5,r2,-8
  804524:	880d883a 	mov	r6,r17
  804528:	35000c0e 	bge	r6,r20,80455c <__s2b+0xe8>
  80452c:	a185c83a 	sub	r2,r20,r6
  804530:	2821883a 	mov	r16,r5
  804534:	28a3883a 	add	r17,r5,r2
  804538:	81c00007 	ldb	r7,0(r16)
  80453c:	400b883a 	mov	r5,r8
  804540:	9009883a 	mov	r4,r18
  804544:	39fff404 	addi	r7,r7,-48
  804548:	01800284 	movi	r6,10
  80454c:	08042540 	call	804254 <__multadd>
  804550:	84000044 	addi	r16,r16,1
  804554:	1011883a 	mov	r8,r2
  804558:	847ff71e 	bne	r16,r17,804538 <__s2b+0xc4>
  80455c:	4005883a 	mov	r2,r8
  804560:	dfc00617 	ldw	ra,24(sp)
  804564:	dd400517 	ldw	r21,20(sp)
  804568:	dd000417 	ldw	r20,16(sp)
  80456c:	dcc00317 	ldw	r19,12(sp)
  804570:	dc800217 	ldw	r18,8(sp)
  804574:	dc400117 	ldw	r17,4(sp)
  804578:	dc000017 	ldw	r16,0(sp)
  80457c:	dec00704 	addi	sp,sp,28
  804580:	f800283a 	ret
  804584:	99400284 	addi	r5,r19,10
  804588:	003fe706 	br	804528 <__s2b+0xb4>
  80458c:	000b883a 	mov	r5,zero
  804590:	003fcd06 	br	8044c8 <__s2b+0x54>

00804594 <_realloc_r>:
  804594:	defff404 	addi	sp,sp,-48
  804598:	dd800815 	stw	r22,32(sp)
  80459c:	dc800415 	stw	r18,16(sp)
  8045a0:	dc400315 	stw	r17,12(sp)
  8045a4:	dfc00b15 	stw	ra,44(sp)
  8045a8:	df000a15 	stw	fp,40(sp)
  8045ac:	ddc00915 	stw	r23,36(sp)
  8045b0:	dd400715 	stw	r21,28(sp)
  8045b4:	dd000615 	stw	r20,24(sp)
  8045b8:	dcc00515 	stw	r19,20(sp)
  8045bc:	dc000215 	stw	r16,8(sp)
  8045c0:	2825883a 	mov	r18,r5
  8045c4:	3023883a 	mov	r17,r6
  8045c8:	202d883a 	mov	r22,r4
  8045cc:	2800c926 	beq	r5,zero,8048f4 <_realloc_r+0x360>
  8045d0:	08072800 	call	807280 <__malloc_lock>
  8045d4:	943ffe04 	addi	r16,r18,-8
  8045d8:	88c002c4 	addi	r3,r17,11
  8045dc:	00800584 	movi	r2,22
  8045e0:	82000117 	ldw	r8,4(r16)
  8045e4:	10c01b2e 	bgeu	r2,r3,804654 <_realloc_r+0xc0>
  8045e8:	00bffe04 	movi	r2,-8
  8045ec:	188e703a 	and	r7,r3,r2
  8045f0:	3839883a 	mov	fp,r7
  8045f4:	38001a16 	blt	r7,zero,804660 <_realloc_r+0xcc>
  8045f8:	e4401936 	bltu	fp,r17,804660 <_realloc_r+0xcc>
  8045fc:	013fff04 	movi	r4,-4
  804600:	4126703a 	and	r19,r8,r4
  804604:	99c02616 	blt	r19,r7,8046a0 <_realloc_r+0x10c>
  804608:	802b883a 	mov	r21,r16
  80460c:	9829883a 	mov	r20,r19
  804610:	84000204 	addi	r16,r16,8
  804614:	a80f883a 	mov	r7,r21
  804618:	a70dc83a 	sub	r6,r20,fp
  80461c:	008003c4 	movi	r2,15
  804620:	1180c136 	bltu	r2,r6,804928 <_realloc_r+0x394>
  804624:	38800117 	ldw	r2,4(r7)
  804628:	a549883a 	add	r4,r20,r21
  80462c:	1080004c 	andi	r2,r2,1
  804630:	a084b03a 	or	r2,r20,r2
  804634:	38800115 	stw	r2,4(r7)
  804638:	20c00117 	ldw	r3,4(r4)
  80463c:	18c00054 	ori	r3,r3,1
  804640:	20c00115 	stw	r3,4(r4)
  804644:	b009883a 	mov	r4,r22
  804648:	08072840 	call	807284 <__malloc_unlock>
  80464c:	8023883a 	mov	r17,r16
  804650:	00000606 	br	80466c <_realloc_r+0xd8>
  804654:	01c00404 	movi	r7,16
  804658:	3839883a 	mov	fp,r7
  80465c:	e47fe72e 	bgeu	fp,r17,8045fc <_realloc_r+0x68>
  804660:	00800304 	movi	r2,12
  804664:	0023883a 	mov	r17,zero
  804668:	b0800015 	stw	r2,0(r22)
  80466c:	8805883a 	mov	r2,r17
  804670:	dfc00b17 	ldw	ra,44(sp)
  804674:	df000a17 	ldw	fp,40(sp)
  804678:	ddc00917 	ldw	r23,36(sp)
  80467c:	dd800817 	ldw	r22,32(sp)
  804680:	dd400717 	ldw	r21,28(sp)
  804684:	dd000617 	ldw	r20,24(sp)
  804688:	dcc00517 	ldw	r19,20(sp)
  80468c:	dc800417 	ldw	r18,16(sp)
  804690:	dc400317 	ldw	r17,12(sp)
  804694:	dc000217 	ldw	r16,8(sp)
  804698:	dec00c04 	addi	sp,sp,48
  80469c:	f800283a 	ret
  8046a0:	00802074 	movhi	r2,129
  8046a4:	10a7e704 	addi	r2,r2,-24676
  8046a8:	12400217 	ldw	r9,8(r2)
  8046ac:	84cd883a 	add	r6,r16,r19
  8046b0:	802b883a 	mov	r21,r16
  8046b4:	3240b926 	beq	r6,r9,80499c <_realloc_r+0x408>
  8046b8:	31400117 	ldw	r5,4(r6)
  8046bc:	00bfff84 	movi	r2,-2
  8046c0:	2884703a 	and	r2,r5,r2
  8046c4:	1185883a 	add	r2,r2,r6
  8046c8:	10c00117 	ldw	r3,4(r2)
  8046cc:	18c0004c 	andi	r3,r3,1
  8046d0:	1807003a 	cmpeq	r3,r3,zero
  8046d4:	1800a326 	beq	r3,zero,804964 <_realloc_r+0x3d0>
  8046d8:	2908703a 	and	r4,r5,r4
  8046dc:	9929883a 	add	r20,r19,r4
  8046e0:	a1c0a30e 	bge	r20,r7,804970 <_realloc_r+0x3dc>
  8046e4:	4080004c 	andi	r2,r8,1
  8046e8:	1000551e 	bne	r2,zero,804840 <_realloc_r+0x2ac>
  8046ec:	80800017 	ldw	r2,0(r16)
  8046f0:	80afc83a 	sub	r23,r16,r2
  8046f4:	b8c00117 	ldw	r3,4(r23)
  8046f8:	00bfff04 	movi	r2,-4
  8046fc:	1884703a 	and	r2,r3,r2
  804700:	30002e26 	beq	r6,zero,8047bc <_realloc_r+0x228>
  804704:	3240b926 	beq	r6,r9,8049ec <_realloc_r+0x458>
  804708:	98a9883a 	add	r20,r19,r2
  80470c:	2509883a 	add	r4,r4,r20
  804710:	d9000015 	stw	r4,0(sp)
  804714:	21c02a16 	blt	r4,r7,8047c0 <_realloc_r+0x22c>
  804718:	30800317 	ldw	r2,12(r6)
  80471c:	30c00217 	ldw	r3,8(r6)
  804720:	01400904 	movi	r5,36
  804724:	99bfff04 	addi	r6,r19,-4
  804728:	18800315 	stw	r2,12(r3)
  80472c:	10c00215 	stw	r3,8(r2)
  804730:	b9000317 	ldw	r4,12(r23)
  804734:	b8800217 	ldw	r2,8(r23)
  804738:	b82b883a 	mov	r21,r23
  80473c:	bc000204 	addi	r16,r23,8
  804740:	20800215 	stw	r2,8(r4)
  804744:	11000315 	stw	r4,12(r2)
  804748:	2980e436 	bltu	r5,r6,804adc <_realloc_r+0x548>
  80474c:	008004c4 	movi	r2,19
  804750:	9009883a 	mov	r4,r18
  804754:	8011883a 	mov	r8,r16
  804758:	11800f2e 	bgeu	r2,r6,804798 <_realloc_r+0x204>
  80475c:	90800017 	ldw	r2,0(r18)
  804760:	ba000404 	addi	r8,r23,16
  804764:	91000204 	addi	r4,r18,8
  804768:	b8800215 	stw	r2,8(r23)
  80476c:	90c00117 	ldw	r3,4(r18)
  804770:	008006c4 	movi	r2,27
  804774:	b8c00315 	stw	r3,12(r23)
  804778:	1180072e 	bgeu	r2,r6,804798 <_realloc_r+0x204>
  80477c:	90c00217 	ldw	r3,8(r18)
  804780:	ba000604 	addi	r8,r23,24
  804784:	91000404 	addi	r4,r18,16
  804788:	b8c00415 	stw	r3,16(r23)
  80478c:	90800317 	ldw	r2,12(r18)
  804790:	b8800515 	stw	r2,20(r23)
  804794:	3140e726 	beq	r6,r5,804b34 <_realloc_r+0x5a0>
  804798:	20800017 	ldw	r2,0(r4)
  80479c:	dd000017 	ldw	r20,0(sp)
  8047a0:	b80f883a 	mov	r7,r23
  8047a4:	40800015 	stw	r2,0(r8)
  8047a8:	20c00117 	ldw	r3,4(r4)
  8047ac:	40c00115 	stw	r3,4(r8)
  8047b0:	20800217 	ldw	r2,8(r4)
  8047b4:	40800215 	stw	r2,8(r8)
  8047b8:	003f9706 	br	804618 <_realloc_r+0x84>
  8047bc:	98a9883a 	add	r20,r19,r2
  8047c0:	a1c01f16 	blt	r20,r7,804840 <_realloc_r+0x2ac>
  8047c4:	b8c00317 	ldw	r3,12(r23)
  8047c8:	b8800217 	ldw	r2,8(r23)
  8047cc:	99bfff04 	addi	r6,r19,-4
  8047d0:	01400904 	movi	r5,36
  8047d4:	b82b883a 	mov	r21,r23
  8047d8:	18800215 	stw	r2,8(r3)
  8047dc:	10c00315 	stw	r3,12(r2)
  8047e0:	bc000204 	addi	r16,r23,8
  8047e4:	2980c336 	bltu	r5,r6,804af4 <_realloc_r+0x560>
  8047e8:	008004c4 	movi	r2,19
  8047ec:	9009883a 	mov	r4,r18
  8047f0:	8011883a 	mov	r8,r16
  8047f4:	11800f2e 	bgeu	r2,r6,804834 <_realloc_r+0x2a0>
  8047f8:	90800017 	ldw	r2,0(r18)
  8047fc:	ba000404 	addi	r8,r23,16
  804800:	91000204 	addi	r4,r18,8
  804804:	b8800215 	stw	r2,8(r23)
  804808:	90c00117 	ldw	r3,4(r18)
  80480c:	008006c4 	movi	r2,27
  804810:	b8c00315 	stw	r3,12(r23)
  804814:	1180072e 	bgeu	r2,r6,804834 <_realloc_r+0x2a0>
  804818:	90c00217 	ldw	r3,8(r18)
  80481c:	ba000604 	addi	r8,r23,24
  804820:	91000404 	addi	r4,r18,16
  804824:	b8c00415 	stw	r3,16(r23)
  804828:	90800317 	ldw	r2,12(r18)
  80482c:	b8800515 	stw	r2,20(r23)
  804830:	3140c726 	beq	r6,r5,804b50 <_realloc_r+0x5bc>
  804834:	20800017 	ldw	r2,0(r4)
  804838:	b80f883a 	mov	r7,r23
  80483c:	003fd906 	br	8047a4 <_realloc_r+0x210>
  804840:	880b883a 	mov	r5,r17
  804844:	b009883a 	mov	r4,r22
  804848:	0801dc40 	call	801dc4 <_malloc_r>
  80484c:	1023883a 	mov	r17,r2
  804850:	10002526 	beq	r2,zero,8048e8 <_realloc_r+0x354>
  804854:	80800117 	ldw	r2,4(r16)
  804858:	00ffff84 	movi	r3,-2
  80485c:	893ffe04 	addi	r4,r17,-8
  804860:	10c4703a 	and	r2,r2,r3
  804864:	8085883a 	add	r2,r16,r2
  804868:	20809526 	beq	r4,r2,804ac0 <_realloc_r+0x52c>
  80486c:	99bfff04 	addi	r6,r19,-4
  804870:	01c00904 	movi	r7,36
  804874:	39804536 	bltu	r7,r6,80498c <_realloc_r+0x3f8>
  804878:	008004c4 	movi	r2,19
  80487c:	9009883a 	mov	r4,r18
  804880:	880b883a 	mov	r5,r17
  804884:	11800f2e 	bgeu	r2,r6,8048c4 <_realloc_r+0x330>
  804888:	90800017 	ldw	r2,0(r18)
  80488c:	89400204 	addi	r5,r17,8
  804890:	91000204 	addi	r4,r18,8
  804894:	88800015 	stw	r2,0(r17)
  804898:	90c00117 	ldw	r3,4(r18)
  80489c:	008006c4 	movi	r2,27
  8048a0:	88c00115 	stw	r3,4(r17)
  8048a4:	1180072e 	bgeu	r2,r6,8048c4 <_realloc_r+0x330>
  8048a8:	90c00217 	ldw	r3,8(r18)
  8048ac:	89400404 	addi	r5,r17,16
  8048b0:	91000404 	addi	r4,r18,16
  8048b4:	88c00215 	stw	r3,8(r17)
  8048b8:	90800317 	ldw	r2,12(r18)
  8048bc:	88800315 	stw	r2,12(r17)
  8048c0:	31c09126 	beq	r6,r7,804b08 <_realloc_r+0x574>
  8048c4:	20800017 	ldw	r2,0(r4)
  8048c8:	28800015 	stw	r2,0(r5)
  8048cc:	20c00117 	ldw	r3,4(r4)
  8048d0:	28c00115 	stw	r3,4(r5)
  8048d4:	20800217 	ldw	r2,8(r4)
  8048d8:	28800215 	stw	r2,8(r5)
  8048dc:	900b883a 	mov	r5,r18
  8048e0:	b009883a 	mov	r4,r22
  8048e4:	080328c0 	call	80328c <_free_r>
  8048e8:	b009883a 	mov	r4,r22
  8048ec:	08072840 	call	807284 <__malloc_unlock>
  8048f0:	003f5e06 	br	80466c <_realloc_r+0xd8>
  8048f4:	300b883a 	mov	r5,r6
  8048f8:	dfc00b17 	ldw	ra,44(sp)
  8048fc:	df000a17 	ldw	fp,40(sp)
  804900:	ddc00917 	ldw	r23,36(sp)
  804904:	dd800817 	ldw	r22,32(sp)
  804908:	dd400717 	ldw	r21,28(sp)
  80490c:	dd000617 	ldw	r20,24(sp)
  804910:	dcc00517 	ldw	r19,20(sp)
  804914:	dc800417 	ldw	r18,16(sp)
  804918:	dc400317 	ldw	r17,12(sp)
  80491c:	dc000217 	ldw	r16,8(sp)
  804920:	dec00c04 	addi	sp,sp,48
  804924:	0801dc41 	jmpi	801dc4 <_malloc_r>
  804928:	38800117 	ldw	r2,4(r7)
  80492c:	e54b883a 	add	r5,fp,r21
  804930:	31000054 	ori	r4,r6,1
  804934:	1080004c 	andi	r2,r2,1
  804938:	1704b03a 	or	r2,r2,fp
  80493c:	38800115 	stw	r2,4(r7)
  804940:	29000115 	stw	r4,4(r5)
  804944:	2987883a 	add	r3,r5,r6
  804948:	18800117 	ldw	r2,4(r3)
  80494c:	29400204 	addi	r5,r5,8
  804950:	b009883a 	mov	r4,r22
  804954:	10800054 	ori	r2,r2,1
  804958:	18800115 	stw	r2,4(r3)
  80495c:	080328c0 	call	80328c <_free_r>
  804960:	003f3806 	br	804644 <_realloc_r+0xb0>
  804964:	000d883a 	mov	r6,zero
  804968:	0009883a 	mov	r4,zero
  80496c:	003f5d06 	br	8046e4 <_realloc_r+0x150>
  804970:	30c00217 	ldw	r3,8(r6)
  804974:	30800317 	ldw	r2,12(r6)
  804978:	800f883a 	mov	r7,r16
  80497c:	84000204 	addi	r16,r16,8
  804980:	10c00215 	stw	r3,8(r2)
  804984:	18800315 	stw	r2,12(r3)
  804988:	003f2306 	br	804618 <_realloc_r+0x84>
  80498c:	8809883a 	mov	r4,r17
  804990:	900b883a 	mov	r5,r18
  804994:	08064940 	call	806494 <memmove>
  804998:	003fd006 	br	8048dc <_realloc_r+0x348>
  80499c:	30800117 	ldw	r2,4(r6)
  8049a0:	e0c00404 	addi	r3,fp,16
  8049a4:	1108703a 	and	r4,r2,r4
  8049a8:	9905883a 	add	r2,r19,r4
  8049ac:	10ff4d16 	blt	r2,r3,8046e4 <_realloc_r+0x150>
  8049b0:	1705c83a 	sub	r2,r2,fp
  8049b4:	870b883a 	add	r5,r16,fp
  8049b8:	10800054 	ori	r2,r2,1
  8049bc:	28800115 	stw	r2,4(r5)
  8049c0:	80c00117 	ldw	r3,4(r16)
  8049c4:	00802074 	movhi	r2,129
  8049c8:	10a7e704 	addi	r2,r2,-24676
  8049cc:	b009883a 	mov	r4,r22
  8049d0:	18c0004c 	andi	r3,r3,1
  8049d4:	e0c6b03a 	or	r3,fp,r3
  8049d8:	11400215 	stw	r5,8(r2)
  8049dc:	80c00115 	stw	r3,4(r16)
  8049e0:	08072840 	call	807284 <__malloc_unlock>
  8049e4:	84400204 	addi	r17,r16,8
  8049e8:	003f2006 	br	80466c <_realloc_r+0xd8>
  8049ec:	98a9883a 	add	r20,r19,r2
  8049f0:	2509883a 	add	r4,r4,r20
  8049f4:	e0800404 	addi	r2,fp,16
  8049f8:	d9000115 	stw	r4,4(sp)
  8049fc:	20bf7016 	blt	r4,r2,8047c0 <_realloc_r+0x22c>
  804a00:	b8c00317 	ldw	r3,12(r23)
  804a04:	b8800217 	ldw	r2,8(r23)
  804a08:	99bfff04 	addi	r6,r19,-4
  804a0c:	01400904 	movi	r5,36
  804a10:	18800215 	stw	r2,8(r3)
  804a14:	10c00315 	stw	r3,12(r2)
  804a18:	bc400204 	addi	r17,r23,8
  804a1c:	29804136 	bltu	r5,r6,804b24 <_realloc_r+0x590>
  804a20:	008004c4 	movi	r2,19
  804a24:	9009883a 	mov	r4,r18
  804a28:	880f883a 	mov	r7,r17
  804a2c:	11800f2e 	bgeu	r2,r6,804a6c <_realloc_r+0x4d8>
  804a30:	90800017 	ldw	r2,0(r18)
  804a34:	b9c00404 	addi	r7,r23,16
  804a38:	91000204 	addi	r4,r18,8
  804a3c:	b8800215 	stw	r2,8(r23)
  804a40:	90c00117 	ldw	r3,4(r18)
  804a44:	008006c4 	movi	r2,27
  804a48:	b8c00315 	stw	r3,12(r23)
  804a4c:	1180072e 	bgeu	r2,r6,804a6c <_realloc_r+0x4d8>
  804a50:	90c00217 	ldw	r3,8(r18)
  804a54:	b9c00604 	addi	r7,r23,24
  804a58:	91000404 	addi	r4,r18,16
  804a5c:	b8c00415 	stw	r3,16(r23)
  804a60:	90800317 	ldw	r2,12(r18)
  804a64:	b8800515 	stw	r2,20(r23)
  804a68:	31404026 	beq	r6,r5,804b6c <_realloc_r+0x5d8>
  804a6c:	20800017 	ldw	r2,0(r4)
  804a70:	38800015 	stw	r2,0(r7)
  804a74:	20c00117 	ldw	r3,4(r4)
  804a78:	38c00115 	stw	r3,4(r7)
  804a7c:	20800217 	ldw	r2,8(r4)
  804a80:	38800215 	stw	r2,8(r7)
  804a84:	d8c00117 	ldw	r3,4(sp)
  804a88:	bf0b883a 	add	r5,r23,fp
  804a8c:	b009883a 	mov	r4,r22
  804a90:	1f05c83a 	sub	r2,r3,fp
  804a94:	10800054 	ori	r2,r2,1
  804a98:	28800115 	stw	r2,4(r5)
  804a9c:	b8c00117 	ldw	r3,4(r23)
  804aa0:	00802074 	movhi	r2,129
  804aa4:	10a7e704 	addi	r2,r2,-24676
  804aa8:	11400215 	stw	r5,8(r2)
  804aac:	18c0004c 	andi	r3,r3,1
  804ab0:	e0c6b03a 	or	r3,fp,r3
  804ab4:	b8c00115 	stw	r3,4(r23)
  804ab8:	08072840 	call	807284 <__malloc_unlock>
  804abc:	003eeb06 	br	80466c <_realloc_r+0xd8>
  804ac0:	20800117 	ldw	r2,4(r4)
  804ac4:	00ffff04 	movi	r3,-4
  804ac8:	800f883a 	mov	r7,r16
  804acc:	10c4703a 	and	r2,r2,r3
  804ad0:	98a9883a 	add	r20,r19,r2
  804ad4:	84000204 	addi	r16,r16,8
  804ad8:	003ecf06 	br	804618 <_realloc_r+0x84>
  804adc:	900b883a 	mov	r5,r18
  804ae0:	8009883a 	mov	r4,r16
  804ae4:	08064940 	call	806494 <memmove>
  804ae8:	dd000017 	ldw	r20,0(sp)
  804aec:	b80f883a 	mov	r7,r23
  804af0:	003ec906 	br	804618 <_realloc_r+0x84>
  804af4:	900b883a 	mov	r5,r18
  804af8:	8009883a 	mov	r4,r16
  804afc:	08064940 	call	806494 <memmove>
  804b00:	b80f883a 	mov	r7,r23
  804b04:	003ec406 	br	804618 <_realloc_r+0x84>
  804b08:	90c00417 	ldw	r3,16(r18)
  804b0c:	89400604 	addi	r5,r17,24
  804b10:	91000604 	addi	r4,r18,24
  804b14:	88c00415 	stw	r3,16(r17)
  804b18:	90800517 	ldw	r2,20(r18)
  804b1c:	88800515 	stw	r2,20(r17)
  804b20:	003f6806 	br	8048c4 <_realloc_r+0x330>
  804b24:	900b883a 	mov	r5,r18
  804b28:	8809883a 	mov	r4,r17
  804b2c:	08064940 	call	806494 <memmove>
  804b30:	003fd406 	br	804a84 <_realloc_r+0x4f0>
  804b34:	90c00417 	ldw	r3,16(r18)
  804b38:	91000604 	addi	r4,r18,24
  804b3c:	ba000804 	addi	r8,r23,32
  804b40:	b8c00615 	stw	r3,24(r23)
  804b44:	90800517 	ldw	r2,20(r18)
  804b48:	b8800715 	stw	r2,28(r23)
  804b4c:	003f1206 	br	804798 <_realloc_r+0x204>
  804b50:	90c00417 	ldw	r3,16(r18)
  804b54:	91000604 	addi	r4,r18,24
  804b58:	ba000804 	addi	r8,r23,32
  804b5c:	b8c00615 	stw	r3,24(r23)
  804b60:	90800517 	ldw	r2,20(r18)
  804b64:	b8800715 	stw	r2,28(r23)
  804b68:	003f3206 	br	804834 <_realloc_r+0x2a0>
  804b6c:	90c00417 	ldw	r3,16(r18)
  804b70:	91000604 	addi	r4,r18,24
  804b74:	b9c00804 	addi	r7,r23,32
  804b78:	b8c00615 	stw	r3,24(r23)
  804b7c:	90800517 	ldw	r2,20(r18)
  804b80:	b8800715 	stw	r2,28(r23)
  804b84:	003fb906 	br	804a6c <_realloc_r+0x4d8>

00804b88 <strcpy>:
  804b88:	2904b03a 	or	r2,r5,r4
  804b8c:	108000cc 	andi	r2,r2,3
  804b90:	10000826 	beq	r2,zero,804bb4 <strcpy+0x2c>
  804b94:	2007883a 	mov	r3,r4
  804b98:	28800003 	ldbu	r2,0(r5)
  804b9c:	29400044 	addi	r5,r5,1
  804ba0:	18800005 	stb	r2,0(r3)
  804ba4:	18c00044 	addi	r3,r3,1
  804ba8:	103ffb1e 	bne	r2,zero,804b98 <strcpy+0x10>
  804bac:	2005883a 	mov	r2,r4
  804bb0:	f800283a 	ret
  804bb4:	29800017 	ldw	r6,0(r5)
  804bb8:	023fbff4 	movhi	r8,65279
  804bbc:	423fbfc4 	addi	r8,r8,-257
  804bc0:	02a02074 	movhi	r10,32897
  804bc4:	52a02004 	addi	r10,r10,-32640
  804bc8:	3205883a 	add	r2,r6,r8
  804bcc:	0186303a 	nor	r3,zero,r6
  804bd0:	10c4703a 	and	r2,r2,r3
  804bd4:	1284703a 	and	r2,r2,r10
  804bd8:	200f883a 	mov	r7,r4
  804bdc:	10000b1e 	bne	r2,zero,804c0c <strcpy+0x84>
  804be0:	4013883a 	mov	r9,r8
  804be4:	5011883a 	mov	r8,r10
  804be8:	39800015 	stw	r6,0(r7)
  804bec:	29400104 	addi	r5,r5,4
  804bf0:	29800017 	ldw	r6,0(r5)
  804bf4:	39c00104 	addi	r7,r7,4
  804bf8:	3245883a 	add	r2,r6,r9
  804bfc:	0186303a 	nor	r3,zero,r6
  804c00:	10c4703a 	and	r2,r2,r3
  804c04:	1204703a 	and	r2,r2,r8
  804c08:	103ff726 	beq	r2,zero,804be8 <strcpy+0x60>
  804c0c:	3807883a 	mov	r3,r7
  804c10:	003fe106 	br	804b98 <strcpy+0x10>

00804c14 <_calloc_r>:
  804c14:	298b383a 	mul	r5,r5,r6
  804c18:	defffe04 	addi	sp,sp,-8
  804c1c:	dc000015 	stw	r16,0(sp)
  804c20:	dfc00115 	stw	ra,4(sp)
  804c24:	0801dc40 	call	801dc4 <_malloc_r>
  804c28:	1021883a 	mov	r16,r2
  804c2c:	01c00904 	movi	r7,36
  804c30:	10000d26 	beq	r2,zero,804c68 <_calloc_r+0x54>
  804c34:	10ffff17 	ldw	r3,-4(r2)
  804c38:	1009883a 	mov	r4,r2
  804c3c:	00bfff04 	movi	r2,-4
  804c40:	1886703a 	and	r3,r3,r2
  804c44:	1887883a 	add	r3,r3,r2
  804c48:	180d883a 	mov	r6,r3
  804c4c:	000b883a 	mov	r5,zero
  804c50:	38c01736 	bltu	r7,r3,804cb0 <_calloc_r+0x9c>
  804c54:	008004c4 	movi	r2,19
  804c58:	10c00836 	bltu	r2,r3,804c7c <_calloc_r+0x68>
  804c5c:	20000215 	stw	zero,8(r4)
  804c60:	20000015 	stw	zero,0(r4)
  804c64:	20000115 	stw	zero,4(r4)
  804c68:	8005883a 	mov	r2,r16
  804c6c:	dfc00117 	ldw	ra,4(sp)
  804c70:	dc000017 	ldw	r16,0(sp)
  804c74:	dec00204 	addi	sp,sp,8
  804c78:	f800283a 	ret
  804c7c:	008006c4 	movi	r2,27
  804c80:	80000015 	stw	zero,0(r16)
  804c84:	80000115 	stw	zero,4(r16)
  804c88:	81000204 	addi	r4,r16,8
  804c8c:	10fff32e 	bgeu	r2,r3,804c5c <_calloc_r+0x48>
  804c90:	80000215 	stw	zero,8(r16)
  804c94:	80000315 	stw	zero,12(r16)
  804c98:	81000404 	addi	r4,r16,16
  804c9c:	19ffef1e 	bne	r3,r7,804c5c <_calloc_r+0x48>
  804ca0:	81000604 	addi	r4,r16,24
  804ca4:	80000415 	stw	zero,16(r16)
  804ca8:	80000515 	stw	zero,20(r16)
  804cac:	003feb06 	br	804c5c <_calloc_r+0x48>
  804cb0:	08065740 	call	806574 <memset>
  804cb4:	8005883a 	mov	r2,r16
  804cb8:	dfc00117 	ldw	ra,4(sp)
  804cbc:	dc000017 	ldw	r16,0(sp)
  804cc0:	dec00204 	addi	sp,sp,8
  804cc4:	f800283a 	ret

00804cc8 <quorem>:
  804cc8:	28c00417 	ldw	r3,16(r5)
  804ccc:	20800417 	ldw	r2,16(r4)
  804cd0:	defff604 	addi	sp,sp,-40
  804cd4:	ddc00715 	stw	r23,28(sp)
  804cd8:	dd400515 	stw	r21,20(sp)
  804cdc:	dfc00915 	stw	ra,36(sp)
  804ce0:	df000815 	stw	fp,32(sp)
  804ce4:	dd800615 	stw	r22,24(sp)
  804ce8:	dd000415 	stw	r20,16(sp)
  804cec:	dcc00315 	stw	r19,12(sp)
  804cf0:	dc800215 	stw	r18,8(sp)
  804cf4:	dc400115 	stw	r17,4(sp)
  804cf8:	dc000015 	stw	r16,0(sp)
  804cfc:	202f883a 	mov	r23,r4
  804d00:	282b883a 	mov	r21,r5
  804d04:	10c07416 	blt	r2,r3,804ed8 <quorem+0x210>
  804d08:	1c7fffc4 	addi	r17,r3,-1
  804d0c:	8c45883a 	add	r2,r17,r17
  804d10:	1085883a 	add	r2,r2,r2
  804d14:	2c000504 	addi	r16,r5,20
  804d18:	24c00504 	addi	r19,r4,20
  804d1c:	14ed883a 	add	r22,r2,r19
  804d20:	80a5883a 	add	r18,r16,r2
  804d24:	b7000017 	ldw	fp,0(r22)
  804d28:	91400017 	ldw	r5,0(r18)
  804d2c:	e009883a 	mov	r4,fp
  804d30:	29400044 	addi	r5,r5,1
  804d34:	08070a40 	call	8070a4 <__udivsi3>
  804d38:	1029883a 	mov	r20,r2
  804d3c:	10003c1e 	bne	r2,zero,804e30 <quorem+0x168>
  804d40:	a80b883a 	mov	r5,r21
  804d44:	b809883a 	mov	r4,r23
  804d48:	08036fc0 	call	8036fc <__mcmp>
  804d4c:	10002b16 	blt	r2,zero,804dfc <quorem+0x134>
  804d50:	a5000044 	addi	r20,r20,1
  804d54:	980f883a 	mov	r7,r19
  804d58:	0011883a 	mov	r8,zero
  804d5c:	0009883a 	mov	r4,zero
  804d60:	81400017 	ldw	r5,0(r16)
  804d64:	38c00017 	ldw	r3,0(r7)
  804d68:	84000104 	addi	r16,r16,4
  804d6c:	28bfffcc 	andi	r2,r5,65535
  804d70:	2085883a 	add	r2,r4,r2
  804d74:	11bfffcc 	andi	r6,r2,65535
  804d78:	193fffcc 	andi	r4,r3,65535
  804d7c:	1004d43a 	srli	r2,r2,16
  804d80:	280ad43a 	srli	r5,r5,16
  804d84:	2189c83a 	sub	r4,r4,r6
  804d88:	2209883a 	add	r4,r4,r8
  804d8c:	1806d43a 	srli	r3,r3,16
  804d90:	288b883a 	add	r5,r5,r2
  804d94:	200dd43a 	srai	r6,r4,16
  804d98:	28bfffcc 	andi	r2,r5,65535
  804d9c:	1887c83a 	sub	r3,r3,r2
  804da0:	1987883a 	add	r3,r3,r6
  804da4:	3900000d 	sth	r4,0(r7)
  804da8:	38c0008d 	sth	r3,2(r7)
  804dac:	2808d43a 	srli	r4,r5,16
  804db0:	39c00104 	addi	r7,r7,4
  804db4:	1811d43a 	srai	r8,r3,16
  804db8:	943fe92e 	bgeu	r18,r16,804d60 <quorem+0x98>
  804dbc:	8c45883a 	add	r2,r17,r17
  804dc0:	1085883a 	add	r2,r2,r2
  804dc4:	9885883a 	add	r2,r19,r2
  804dc8:	10c00017 	ldw	r3,0(r2)
  804dcc:	18000b1e 	bne	r3,zero,804dfc <quorem+0x134>
  804dd0:	113fff04 	addi	r4,r2,-4
  804dd4:	9900082e 	bgeu	r19,r4,804df8 <quorem+0x130>
  804dd8:	10bfff17 	ldw	r2,-4(r2)
  804ddc:	10000326 	beq	r2,zero,804dec <quorem+0x124>
  804de0:	00000506 	br	804df8 <quorem+0x130>
  804de4:	20800017 	ldw	r2,0(r4)
  804de8:	1000031e 	bne	r2,zero,804df8 <quorem+0x130>
  804dec:	213fff04 	addi	r4,r4,-4
  804df0:	8c7fffc4 	addi	r17,r17,-1
  804df4:	993ffb36 	bltu	r19,r4,804de4 <quorem+0x11c>
  804df8:	bc400415 	stw	r17,16(r23)
  804dfc:	a005883a 	mov	r2,r20
  804e00:	dfc00917 	ldw	ra,36(sp)
  804e04:	df000817 	ldw	fp,32(sp)
  804e08:	ddc00717 	ldw	r23,28(sp)
  804e0c:	dd800617 	ldw	r22,24(sp)
  804e10:	dd400517 	ldw	r21,20(sp)
  804e14:	dd000417 	ldw	r20,16(sp)
  804e18:	dcc00317 	ldw	r19,12(sp)
  804e1c:	dc800217 	ldw	r18,8(sp)
  804e20:	dc400117 	ldw	r17,4(sp)
  804e24:	dc000017 	ldw	r16,0(sp)
  804e28:	dec00a04 	addi	sp,sp,40
  804e2c:	f800283a 	ret
  804e30:	980f883a 	mov	r7,r19
  804e34:	8011883a 	mov	r8,r16
  804e38:	0013883a 	mov	r9,zero
  804e3c:	000d883a 	mov	r6,zero
  804e40:	40c00017 	ldw	r3,0(r8)
  804e44:	39000017 	ldw	r4,0(r7)
  804e48:	42000104 	addi	r8,r8,4
  804e4c:	18bfffcc 	andi	r2,r3,65535
  804e50:	a085383a 	mul	r2,r20,r2
  804e54:	1806d43a 	srli	r3,r3,16
  804e58:	217fffcc 	andi	r5,r4,65535
  804e5c:	3085883a 	add	r2,r6,r2
  804e60:	11bfffcc 	andi	r6,r2,65535
  804e64:	a0c7383a 	mul	r3,r20,r3
  804e68:	1004d43a 	srli	r2,r2,16
  804e6c:	298bc83a 	sub	r5,r5,r6
  804e70:	2a4b883a 	add	r5,r5,r9
  804e74:	2008d43a 	srli	r4,r4,16
  804e78:	1887883a 	add	r3,r3,r2
  804e7c:	280dd43a 	srai	r6,r5,16
  804e80:	18bfffcc 	andi	r2,r3,65535
  804e84:	2089c83a 	sub	r4,r4,r2
  804e88:	2189883a 	add	r4,r4,r6
  804e8c:	3900008d 	sth	r4,2(r7)
  804e90:	3940000d 	sth	r5,0(r7)
  804e94:	180cd43a 	srli	r6,r3,16
  804e98:	39c00104 	addi	r7,r7,4
  804e9c:	2013d43a 	srai	r9,r4,16
  804ea0:	923fe72e 	bgeu	r18,r8,804e40 <quorem+0x178>
  804ea4:	e03fa61e 	bne	fp,zero,804d40 <quorem+0x78>
  804ea8:	b0ffff04 	addi	r3,r22,-4
  804eac:	98c0082e 	bgeu	r19,r3,804ed0 <quorem+0x208>
  804eb0:	b0bfff17 	ldw	r2,-4(r22)
  804eb4:	10000326 	beq	r2,zero,804ec4 <quorem+0x1fc>
  804eb8:	00000506 	br	804ed0 <quorem+0x208>
  804ebc:	18800017 	ldw	r2,0(r3)
  804ec0:	1000031e 	bne	r2,zero,804ed0 <quorem+0x208>
  804ec4:	18ffff04 	addi	r3,r3,-4
  804ec8:	8c7fffc4 	addi	r17,r17,-1
  804ecc:	98fffb36 	bltu	r19,r3,804ebc <quorem+0x1f4>
  804ed0:	bc400415 	stw	r17,16(r23)
  804ed4:	003f9a06 	br	804d40 <quorem+0x78>
  804ed8:	0005883a 	mov	r2,zero
  804edc:	003fc806 	br	804e00 <quorem+0x138>

00804ee0 <_dtoa_r>:
  804ee0:	22001017 	ldw	r8,64(r4)
  804ee4:	deffda04 	addi	sp,sp,-152
  804ee8:	dd402115 	stw	r21,132(sp)
  804eec:	dd002015 	stw	r20,128(sp)
  804ef0:	dc801e15 	stw	r18,120(sp)
  804ef4:	dc401d15 	stw	r17,116(sp)
  804ef8:	dfc02515 	stw	ra,148(sp)
  804efc:	df002415 	stw	fp,144(sp)
  804f00:	ddc02315 	stw	r23,140(sp)
  804f04:	dd802215 	stw	r22,136(sp)
  804f08:	dcc01f15 	stw	r19,124(sp)
  804f0c:	dc001c15 	stw	r16,112(sp)
  804f10:	d9001615 	stw	r4,88(sp)
  804f14:	3023883a 	mov	r17,r6
  804f18:	2829883a 	mov	r20,r5
  804f1c:	d9c01715 	stw	r7,92(sp)
  804f20:	dc802817 	ldw	r18,160(sp)
  804f24:	302b883a 	mov	r21,r6
  804f28:	40000a26 	beq	r8,zero,804f54 <_dtoa_r+0x74>
  804f2c:	20801117 	ldw	r2,68(r4)
  804f30:	400b883a 	mov	r5,r8
  804f34:	40800115 	stw	r2,4(r8)
  804f38:	20c01117 	ldw	r3,68(r4)
  804f3c:	00800044 	movi	r2,1
  804f40:	10c4983a 	sll	r2,r2,r3
  804f44:	40800215 	stw	r2,8(r8)
  804f48:	08035a00 	call	8035a0 <_Bfree>
  804f4c:	d8c01617 	ldw	r3,88(sp)
  804f50:	18001015 	stw	zero,64(r3)
  804f54:	8800a316 	blt	r17,zero,8051e4 <_dtoa_r+0x304>
  804f58:	90000015 	stw	zero,0(r18)
  804f5c:	a8dffc2c 	andhi	r3,r21,32752
  804f60:	009ffc34 	movhi	r2,32752
  804f64:	18809126 	beq	r3,r2,8051ac <_dtoa_r+0x2cc>
  804f68:	000d883a 	mov	r6,zero
  804f6c:	000f883a 	mov	r7,zero
  804f70:	a009883a 	mov	r4,r20
  804f74:	a80b883a 	mov	r5,r21
  804f78:	dd001215 	stw	r20,72(sp)
  804f7c:	dd401315 	stw	r21,76(sp)
  804f80:	0806af00 	call	806af0 <__nedf2>
  804f84:	1000171e 	bne	r2,zero,804fe4 <_dtoa_r+0x104>
  804f88:	d9802717 	ldw	r6,156(sp)
  804f8c:	00800044 	movi	r2,1
  804f90:	30800015 	stw	r2,0(r6)
  804f94:	d8802917 	ldw	r2,164(sp)
  804f98:	10029b26 	beq	r2,zero,805a08 <_dtoa_r+0xb28>
  804f9c:	d9002917 	ldw	r4,164(sp)
  804fa0:	00802074 	movhi	r2,129
  804fa4:	10a6df44 	addi	r2,r2,-25731
  804fa8:	10ffffc4 	addi	r3,r2,-1
  804fac:	20800015 	stw	r2,0(r4)
  804fb0:	1805883a 	mov	r2,r3
  804fb4:	dfc02517 	ldw	ra,148(sp)
  804fb8:	df002417 	ldw	fp,144(sp)
  804fbc:	ddc02317 	ldw	r23,140(sp)
  804fc0:	dd802217 	ldw	r22,136(sp)
  804fc4:	dd402117 	ldw	r21,132(sp)
  804fc8:	dd002017 	ldw	r20,128(sp)
  804fcc:	dcc01f17 	ldw	r19,124(sp)
  804fd0:	dc801e17 	ldw	r18,120(sp)
  804fd4:	dc401d17 	ldw	r17,116(sp)
  804fd8:	dc001c17 	ldw	r16,112(sp)
  804fdc:	dec02604 	addi	sp,sp,152
  804fe0:	f800283a 	ret
  804fe4:	d9001617 	ldw	r4,88(sp)
  804fe8:	d9401217 	ldw	r5,72(sp)
  804fec:	d8800104 	addi	r2,sp,4
  804ff0:	a80d883a 	mov	r6,r21
  804ff4:	d9c00204 	addi	r7,sp,8
  804ff8:	d8800015 	stw	r2,0(sp)
  804ffc:	0803bdc0 	call	803bdc <__d2b>
  805000:	d8800715 	stw	r2,28(sp)
  805004:	a804d53a 	srli	r2,r21,20
  805008:	1101ffcc 	andi	r4,r2,2047
  80500c:	20008626 	beq	r4,zero,805228 <_dtoa_r+0x348>
  805010:	d8c01217 	ldw	r3,72(sp)
  805014:	00800434 	movhi	r2,16
  805018:	10bfffc4 	addi	r2,r2,-1
  80501c:	ddc00117 	ldw	r23,4(sp)
  805020:	a884703a 	and	r2,r21,r2
  805024:	1811883a 	mov	r8,r3
  805028:	124ffc34 	orhi	r9,r2,16368
  80502c:	25bf0044 	addi	r22,r4,-1023
  805030:	d8000815 	stw	zero,32(sp)
  805034:	0005883a 	mov	r2,zero
  805038:	00cffe34 	movhi	r3,16376
  80503c:	480b883a 	mov	r5,r9
  805040:	4009883a 	mov	r4,r8
  805044:	180f883a 	mov	r7,r3
  805048:	100d883a 	mov	r6,r2
  80504c:	0800f940 	call	800f94 <__subdf3>
  805050:	0218dbf4 	movhi	r8,25455
  805054:	4210d844 	addi	r8,r8,17249
  805058:	024ff4f4 	movhi	r9,16339
  80505c:	4a61e9c4 	addi	r9,r9,-30809
  805060:	480f883a 	mov	r7,r9
  805064:	400d883a 	mov	r6,r8
  805068:	180b883a 	mov	r5,r3
  80506c:	1009883a 	mov	r4,r2
  805070:	08066a40 	call	8066a4 <__muldf3>
  805074:	0222d874 	movhi	r8,35681
  805078:	42322cc4 	addi	r8,r8,-14157
  80507c:	024ff1f4 	movhi	r9,16327
  805080:	4a628a04 	addi	r9,r9,-30168
  805084:	480f883a 	mov	r7,r9
  805088:	400d883a 	mov	r6,r8
  80508c:	180b883a 	mov	r5,r3
  805090:	1009883a 	mov	r4,r2
  805094:	08010140 	call	801014 <__adddf3>
  805098:	b009883a 	mov	r4,r22
  80509c:	1021883a 	mov	r16,r2
  8050a0:	1823883a 	mov	r17,r3
  8050a4:	0806d980 	call	806d98 <__floatsidf>
  8050a8:	021427f4 	movhi	r8,20639
  8050ac:	421e7ec4 	addi	r8,r8,31227
  8050b0:	024ff4f4 	movhi	r9,16339
  8050b4:	4a5104c4 	addi	r9,r9,17427
  8050b8:	480f883a 	mov	r7,r9
  8050bc:	400d883a 	mov	r6,r8
  8050c0:	180b883a 	mov	r5,r3
  8050c4:	1009883a 	mov	r4,r2
  8050c8:	08066a40 	call	8066a4 <__muldf3>
  8050cc:	180f883a 	mov	r7,r3
  8050d0:	880b883a 	mov	r5,r17
  8050d4:	100d883a 	mov	r6,r2
  8050d8:	8009883a 	mov	r4,r16
  8050dc:	08010140 	call	801014 <__adddf3>
  8050e0:	1009883a 	mov	r4,r2
  8050e4:	180b883a 	mov	r5,r3
  8050e8:	1021883a 	mov	r16,r2
  8050ec:	1823883a 	mov	r17,r3
  8050f0:	0806e900 	call	806e90 <__fixdfsi>
  8050f4:	000d883a 	mov	r6,zero
  8050f8:	000f883a 	mov	r7,zero
  8050fc:	8009883a 	mov	r4,r16
  805100:	880b883a 	mov	r5,r17
  805104:	d8800d15 	stw	r2,52(sp)
  805108:	0806c880 	call	806c88 <__ltdf2>
  80510c:	10031716 	blt	r2,zero,805d6c <_dtoa_r+0xe8c>
  805110:	d8c00d17 	ldw	r3,52(sp)
  805114:	00800584 	movi	r2,22
  805118:	10c1482e 	bgeu	r2,r3,80563c <_dtoa_r+0x75c>
  80511c:	01000044 	movi	r4,1
  805120:	d9000c15 	stw	r4,48(sp)
  805124:	bd85c83a 	sub	r2,r23,r22
  805128:	11bfffc4 	addi	r6,r2,-1
  80512c:	30030b16 	blt	r6,zero,805d5c <_dtoa_r+0xe7c>
  805130:	d9800a15 	stw	r6,40(sp)
  805134:	d8001115 	stw	zero,68(sp)
  805138:	d8c00d17 	ldw	r3,52(sp)
  80513c:	1802ff16 	blt	r3,zero,805d3c <_dtoa_r+0xe5c>
  805140:	d9000a17 	ldw	r4,40(sp)
  805144:	d8c00915 	stw	r3,36(sp)
  805148:	d8001015 	stw	zero,64(sp)
  80514c:	20c9883a 	add	r4,r4,r3
  805150:	d9000a15 	stw	r4,40(sp)
  805154:	d9001717 	ldw	r4,92(sp)
  805158:	00800244 	movi	r2,9
  80515c:	11004636 	bltu	r2,r4,805278 <_dtoa_r+0x398>
  805160:	00800144 	movi	r2,5
  805164:	11020416 	blt	r2,r4,805978 <_dtoa_r+0xa98>
  805168:	04400044 	movi	r17,1
  80516c:	d8c01717 	ldw	r3,92(sp)
  805170:	00800144 	movi	r2,5
  805174:	10c1ed36 	bltu	r2,r3,80592c <_dtoa_r+0xa4c>
  805178:	18c5883a 	add	r2,r3,r3
  80517c:	1085883a 	add	r2,r2,r2
  805180:	00c02034 	movhi	r3,128
  805184:	18d46504 	addi	r3,r3,20884
  805188:	10c5883a 	add	r2,r2,r3
  80518c:	11000017 	ldw	r4,0(r2)
  805190:	2000683a 	jmp	r4
  805194:	00805280 	call	80528 <__alt_mem_sdram-0x77fad8>
  805198:	00805280 	call	80528 <__alt_mem_sdram-0x77fad8>
  80519c:	00805c80 	call	805c8 <__alt_mem_sdram-0x77fa38>
  8051a0:	00805c58 	cmpnei	r2,zero,369
  8051a4:	00805c9c 	xori	r2,zero,370
  8051a8:	00805ca8 	cmpgeui	r2,zero,370
  8051ac:	d9002717 	ldw	r4,156(sp)
  8051b0:	0089c3c4 	movi	r2,9999
  8051b4:	20800015 	stw	r2,0(r4)
  8051b8:	a0001026 	beq	r20,zero,8051fc <_dtoa_r+0x31c>
  8051bc:	00c02074 	movhi	r3,129
  8051c0:	18e6de04 	addi	r3,r3,-25736
  8051c4:	d9802917 	ldw	r6,164(sp)
  8051c8:	303f7926 	beq	r6,zero,804fb0 <_dtoa_r+0xd0>
  8051cc:	188000c7 	ldb	r2,3(r3)
  8051d0:	190000c4 	addi	r4,r3,3
  8051d4:	1000101e 	bne	r2,zero,805218 <_dtoa_r+0x338>
  8051d8:	d8802917 	ldw	r2,164(sp)
  8051dc:	11000015 	stw	r4,0(r2)
  8051e0:	003f7306 	br	804fb0 <_dtoa_r+0xd0>
  8051e4:	00a00034 	movhi	r2,32768
  8051e8:	10bfffc4 	addi	r2,r2,-1
  8051ec:	00c00044 	movi	r3,1
  8051f0:	88aa703a 	and	r21,r17,r2
  8051f4:	90c00015 	stw	r3,0(r18)
  8051f8:	003f5806 	br	804f5c <_dtoa_r+0x7c>
  8051fc:	00800434 	movhi	r2,16
  805200:	10bfffc4 	addi	r2,r2,-1
  805204:	a884703a 	and	r2,r21,r2
  805208:	103fec1e 	bne	r2,zero,8051bc <_dtoa_r+0x2dc>
  80520c:	00c02074 	movhi	r3,129
  805210:	18e6db04 	addi	r3,r3,-25748
  805214:	003feb06 	br	8051c4 <_dtoa_r+0x2e4>
  805218:	d8802917 	ldw	r2,164(sp)
  80521c:	19000204 	addi	r4,r3,8
  805220:	11000015 	stw	r4,0(r2)
  805224:	003f6206 	br	804fb0 <_dtoa_r+0xd0>
  805228:	ddc00117 	ldw	r23,4(sp)
  80522c:	d8800217 	ldw	r2,8(sp)
  805230:	01000804 	movi	r4,32
  805234:	b8c10c84 	addi	r3,r23,1074
  805238:	18a3883a 	add	r17,r3,r2
  80523c:	2441b80e 	bge	r4,r17,805920 <_dtoa_r+0xa40>
  805240:	00c01004 	movi	r3,64
  805244:	1c47c83a 	sub	r3,r3,r17
  805248:	88bff804 	addi	r2,r17,-32
  80524c:	a8c6983a 	sll	r3,r21,r3
  805250:	a084d83a 	srl	r2,r20,r2
  805254:	1888b03a 	or	r4,r3,r2
  805258:	08013180 	call	801318 <__floatunsidf>
  80525c:	1011883a 	mov	r8,r2
  805260:	00bf8434 	movhi	r2,65040
  805264:	01000044 	movi	r4,1
  805268:	10d3883a 	add	r9,r2,r3
  80526c:	8dbef344 	addi	r22,r17,-1075
  805270:	d9000815 	stw	r4,32(sp)
  805274:	003f6f06 	br	805034 <_dtoa_r+0x154>
  805278:	d8001715 	stw	zero,92(sp)
  80527c:	04400044 	movi	r17,1
  805280:	00bfffc4 	movi	r2,-1
  805284:	00c00044 	movi	r3,1
  805288:	d8800e15 	stw	r2,56(sp)
  80528c:	d8002615 	stw	zero,152(sp)
  805290:	d8800f15 	stw	r2,60(sp)
  805294:	d8c00b15 	stw	r3,44(sp)
  805298:	1021883a 	mov	r16,r2
  80529c:	d8801617 	ldw	r2,88(sp)
  8052a0:	10001115 	stw	zero,68(r2)
  8052a4:	d8801617 	ldw	r2,88(sp)
  8052a8:	11401117 	ldw	r5,68(r2)
  8052ac:	1009883a 	mov	r4,r2
  8052b0:	0803b200 	call	803b20 <_Balloc>
  8052b4:	d8c01617 	ldw	r3,88(sp)
  8052b8:	d8800515 	stw	r2,20(sp)
  8052bc:	18801015 	stw	r2,64(r3)
  8052c0:	00800384 	movi	r2,14
  8052c4:	14006836 	bltu	r2,r16,805468 <_dtoa_r+0x588>
  8052c8:	8805003a 	cmpeq	r2,r17,zero
  8052cc:	1000661e 	bne	r2,zero,805468 <_dtoa_r+0x588>
  8052d0:	d9000d17 	ldw	r4,52(sp)
  8052d4:	0102300e 	bge	zero,r4,805b98 <_dtoa_r+0xcb8>
  8052d8:	208003cc 	andi	r2,r4,15
  8052dc:	100490fa 	slli	r2,r2,3
  8052e0:	2025d13a 	srai	r18,r4,4
  8052e4:	00c02074 	movhi	r3,129
  8052e8:	18e69204 	addi	r3,r3,-26040
  8052ec:	10c5883a 	add	r2,r2,r3
  8052f0:	90c0040c 	andi	r3,r18,16
  8052f4:	14000017 	ldw	r16,0(r2)
  8052f8:	14400117 	ldw	r17,4(r2)
  8052fc:	18036a1e 	bne	r3,zero,8060a8 <_dtoa_r+0x11c8>
  805300:	05800084 	movi	r22,2
  805304:	90001026 	beq	r18,zero,805348 <_dtoa_r+0x468>
  805308:	04c02074 	movhi	r19,129
  80530c:	9ce6c404 	addi	r19,r19,-25840
  805310:	9080004c 	andi	r2,r18,1
  805314:	1005003a 	cmpeq	r2,r2,zero
  805318:	1000081e 	bne	r2,zero,80533c <_dtoa_r+0x45c>
  80531c:	99800017 	ldw	r6,0(r19)
  805320:	99c00117 	ldw	r7,4(r19)
  805324:	880b883a 	mov	r5,r17
  805328:	8009883a 	mov	r4,r16
  80532c:	08066a40 	call	8066a4 <__muldf3>
  805330:	1021883a 	mov	r16,r2
  805334:	b5800044 	addi	r22,r22,1
  805338:	1823883a 	mov	r17,r3
  80533c:	9025d07a 	srai	r18,r18,1
  805340:	9cc00204 	addi	r19,r19,8
  805344:	903ff21e 	bne	r18,zero,805310 <_dtoa_r+0x430>
  805348:	a80b883a 	mov	r5,r21
  80534c:	a009883a 	mov	r4,r20
  805350:	880f883a 	mov	r7,r17
  805354:	800d883a 	mov	r6,r16
  805358:	08010880 	call	801088 <__divdf3>
  80535c:	1029883a 	mov	r20,r2
  805360:	182b883a 	mov	r21,r3
  805364:	d8c00c17 	ldw	r3,48(sp)
  805368:	1805003a 	cmpeq	r2,r3,zero
  80536c:	1000081e 	bne	r2,zero,805390 <_dtoa_r+0x4b0>
  805370:	0005883a 	mov	r2,zero
  805374:	00cffc34 	movhi	r3,16368
  805378:	180f883a 	mov	r7,r3
  80537c:	a009883a 	mov	r4,r20
  805380:	a80b883a 	mov	r5,r21
  805384:	100d883a 	mov	r6,r2
  805388:	0806c880 	call	806c88 <__ltdf2>
  80538c:	1003fe16 	blt	r2,zero,806388 <_dtoa_r+0x14a8>
  805390:	b009883a 	mov	r4,r22
  805394:	0806d980 	call	806d98 <__floatsidf>
  805398:	180b883a 	mov	r5,r3
  80539c:	1009883a 	mov	r4,r2
  8053a0:	a00d883a 	mov	r6,r20
  8053a4:	a80f883a 	mov	r7,r21
  8053a8:	08066a40 	call	8066a4 <__muldf3>
  8053ac:	0011883a 	mov	r8,zero
  8053b0:	02500734 	movhi	r9,16412
  8053b4:	1009883a 	mov	r4,r2
  8053b8:	180b883a 	mov	r5,r3
  8053bc:	480f883a 	mov	r7,r9
  8053c0:	400d883a 	mov	r6,r8
  8053c4:	08010140 	call	801014 <__adddf3>
  8053c8:	d9000f17 	ldw	r4,60(sp)
  8053cc:	102d883a 	mov	r22,r2
  8053d0:	00bf3034 	movhi	r2,64704
  8053d4:	18b9883a 	add	fp,r3,r2
  8053d8:	e02f883a 	mov	r23,fp
  8053dc:	20028f1e 	bne	r4,zero,805e1c <_dtoa_r+0xf3c>
  8053e0:	0005883a 	mov	r2,zero
  8053e4:	00d00534 	movhi	r3,16404
  8053e8:	a009883a 	mov	r4,r20
  8053ec:	a80b883a 	mov	r5,r21
  8053f0:	180f883a 	mov	r7,r3
  8053f4:	100d883a 	mov	r6,r2
  8053f8:	0800f940 	call	800f94 <__subdf3>
  8053fc:	1009883a 	mov	r4,r2
  805400:	e00f883a 	mov	r7,fp
  805404:	180b883a 	mov	r5,r3
  805408:	b00d883a 	mov	r6,r22
  80540c:	1025883a 	mov	r18,r2
  805410:	1827883a 	mov	r19,r3
  805414:	0806b780 	call	806b78 <__gtdf2>
  805418:	00834f16 	blt	zero,r2,806158 <_dtoa_r+0x1278>
  80541c:	e0e0003c 	xorhi	r3,fp,32768
  805420:	9009883a 	mov	r4,r18
  805424:	980b883a 	mov	r5,r19
  805428:	180f883a 	mov	r7,r3
  80542c:	b00d883a 	mov	r6,r22
  805430:	0806c880 	call	806c88 <__ltdf2>
  805434:	1000080e 	bge	r2,zero,805458 <_dtoa_r+0x578>
  805438:	0027883a 	mov	r19,zero
  80543c:	0025883a 	mov	r18,zero
  805440:	d8802617 	ldw	r2,152(sp)
  805444:	df000517 	ldw	fp,20(sp)
  805448:	d8000615 	stw	zero,24(sp)
  80544c:	0084303a 	nor	r2,zero,r2
  805450:	d8800d15 	stw	r2,52(sp)
  805454:	00019b06 	br	805ac4 <_dtoa_r+0xbe4>
  805458:	d9801217 	ldw	r6,72(sp)
  80545c:	d8801317 	ldw	r2,76(sp)
  805460:	3029883a 	mov	r20,r6
  805464:	102b883a 	mov	r21,r2
  805468:	d8c00217 	ldw	r3,8(sp)
  80546c:	18008516 	blt	r3,zero,805684 <_dtoa_r+0x7a4>
  805470:	d9000d17 	ldw	r4,52(sp)
  805474:	00800384 	movi	r2,14
  805478:	11008216 	blt	r2,r4,805684 <_dtoa_r+0x7a4>
  80547c:	200490fa 	slli	r2,r4,3
  805480:	d9802617 	ldw	r6,152(sp)
  805484:	00c02074 	movhi	r3,129
  805488:	18e69204 	addi	r3,r3,-26040
  80548c:	10c5883a 	add	r2,r2,r3
  805490:	14800017 	ldw	r18,0(r2)
  805494:	14c00117 	ldw	r19,4(r2)
  805498:	30031e16 	blt	r6,zero,806114 <_dtoa_r+0x1234>
  80549c:	d9000517 	ldw	r4,20(sp)
  8054a0:	d8c00f17 	ldw	r3,60(sp)
  8054a4:	a823883a 	mov	r17,r21
  8054a8:	a021883a 	mov	r16,r20
  8054ac:	192b883a 	add	r21,r3,r4
  8054b0:	2039883a 	mov	fp,r4
  8054b4:	00000f06 	br	8054f4 <_dtoa_r+0x614>
  8054b8:	0005883a 	mov	r2,zero
  8054bc:	00d00934 	movhi	r3,16420
  8054c0:	5009883a 	mov	r4,r10
  8054c4:	580b883a 	mov	r5,r11
  8054c8:	180f883a 	mov	r7,r3
  8054cc:	100d883a 	mov	r6,r2
  8054d0:	08066a40 	call	8066a4 <__muldf3>
  8054d4:	180b883a 	mov	r5,r3
  8054d8:	000d883a 	mov	r6,zero
  8054dc:	000f883a 	mov	r7,zero
  8054e0:	1009883a 	mov	r4,r2
  8054e4:	1021883a 	mov	r16,r2
  8054e8:	1823883a 	mov	r17,r3
  8054ec:	0806af00 	call	806af0 <__nedf2>
  8054f0:	10004526 	beq	r2,zero,805608 <_dtoa_r+0x728>
  8054f4:	900d883a 	mov	r6,r18
  8054f8:	980f883a 	mov	r7,r19
  8054fc:	8009883a 	mov	r4,r16
  805500:	880b883a 	mov	r5,r17
  805504:	08010880 	call	801088 <__divdf3>
  805508:	180b883a 	mov	r5,r3
  80550c:	1009883a 	mov	r4,r2
  805510:	0806e900 	call	806e90 <__fixdfsi>
  805514:	1009883a 	mov	r4,r2
  805518:	1029883a 	mov	r20,r2
  80551c:	0806d980 	call	806d98 <__floatsidf>
  805520:	180f883a 	mov	r7,r3
  805524:	9009883a 	mov	r4,r18
  805528:	980b883a 	mov	r5,r19
  80552c:	100d883a 	mov	r6,r2
  805530:	08066a40 	call	8066a4 <__muldf3>
  805534:	180f883a 	mov	r7,r3
  805538:	880b883a 	mov	r5,r17
  80553c:	8009883a 	mov	r4,r16
  805540:	100d883a 	mov	r6,r2
  805544:	0800f940 	call	800f94 <__subdf3>
  805548:	1015883a 	mov	r10,r2
  80554c:	a0800c04 	addi	r2,r20,48
  805550:	e0800005 	stb	r2,0(fp)
  805554:	e7000044 	addi	fp,fp,1
  805558:	1817883a 	mov	r11,r3
  80555c:	e57fd61e 	bne	fp,r21,8054b8 <_dtoa_r+0x5d8>
  805560:	500d883a 	mov	r6,r10
  805564:	180f883a 	mov	r7,r3
  805568:	5009883a 	mov	r4,r10
  80556c:	180b883a 	mov	r5,r3
  805570:	08010140 	call	801014 <__adddf3>
  805574:	100d883a 	mov	r6,r2
  805578:	9009883a 	mov	r4,r18
  80557c:	980b883a 	mov	r5,r19
  805580:	180f883a 	mov	r7,r3
  805584:	1021883a 	mov	r16,r2
  805588:	1823883a 	mov	r17,r3
  80558c:	0806c880 	call	806c88 <__ltdf2>
  805590:	10000816 	blt	r2,zero,8055b4 <_dtoa_r+0x6d4>
  805594:	980b883a 	mov	r5,r19
  805598:	800d883a 	mov	r6,r16
  80559c:	880f883a 	mov	r7,r17
  8055a0:	9009883a 	mov	r4,r18
  8055a4:	0806a680 	call	806a68 <__eqdf2>
  8055a8:	1000171e 	bne	r2,zero,805608 <_dtoa_r+0x728>
  8055ac:	a080004c 	andi	r2,r20,1
  8055b0:	10001526 	beq	r2,zero,805608 <_dtoa_r+0x728>
  8055b4:	d8800d17 	ldw	r2,52(sp)
  8055b8:	d8800415 	stw	r2,16(sp)
  8055bc:	e009883a 	mov	r4,fp
  8055c0:	213fffc4 	addi	r4,r4,-1
  8055c4:	20c00007 	ldb	r3,0(r4)
  8055c8:	00800e44 	movi	r2,57
  8055cc:	1880081e 	bne	r3,r2,8055f0 <_dtoa_r+0x710>
  8055d0:	d8800517 	ldw	r2,20(sp)
  8055d4:	113ffa1e 	bne	r2,r4,8055c0 <_dtoa_r+0x6e0>
  8055d8:	d8c00417 	ldw	r3,16(sp)
  8055dc:	d9800517 	ldw	r6,20(sp)
  8055e0:	00800c04 	movi	r2,48
  8055e4:	18c00044 	addi	r3,r3,1
  8055e8:	d8c00415 	stw	r3,16(sp)
  8055ec:	30800005 	stb	r2,0(r6)
  8055f0:	20800003 	ldbu	r2,0(r4)
  8055f4:	d8c00417 	ldw	r3,16(sp)
  8055f8:	27000044 	addi	fp,r4,1
  8055fc:	10800044 	addi	r2,r2,1
  805600:	d8c00d15 	stw	r3,52(sp)
  805604:	20800005 	stb	r2,0(r4)
  805608:	d9001617 	ldw	r4,88(sp)
  80560c:	d9400717 	ldw	r5,28(sp)
  805610:	08035a00 	call	8035a0 <_Bfree>
  805614:	e0000005 	stb	zero,0(fp)
  805618:	d9800d17 	ldw	r6,52(sp)
  80561c:	d8c02717 	ldw	r3,156(sp)
  805620:	d9002917 	ldw	r4,164(sp)
  805624:	30800044 	addi	r2,r6,1
  805628:	18800015 	stw	r2,0(r3)
  80562c:	20029c26 	beq	r4,zero,8060a0 <_dtoa_r+0x11c0>
  805630:	d8c00517 	ldw	r3,20(sp)
  805634:	27000015 	stw	fp,0(r4)
  805638:	003e5d06 	br	804fb0 <_dtoa_r+0xd0>
  80563c:	d9800d17 	ldw	r6,52(sp)
  805640:	00c02074 	movhi	r3,129
  805644:	18e69204 	addi	r3,r3,-26040
  805648:	d9001217 	ldw	r4,72(sp)
  80564c:	300490fa 	slli	r2,r6,3
  805650:	d9401317 	ldw	r5,76(sp)
  805654:	10c5883a 	add	r2,r2,r3
  805658:	12000017 	ldw	r8,0(r2)
  80565c:	12400117 	ldw	r9,4(r2)
  805660:	400d883a 	mov	r6,r8
  805664:	480f883a 	mov	r7,r9
  805668:	0806c880 	call	806c88 <__ltdf2>
  80566c:	1000030e 	bge	r2,zero,80567c <_dtoa_r+0x79c>
  805670:	d8800d17 	ldw	r2,52(sp)
  805674:	10bfffc4 	addi	r2,r2,-1
  805678:	d8800d15 	stw	r2,52(sp)
  80567c:	d8000c15 	stw	zero,48(sp)
  805680:	003ea806 	br	805124 <_dtoa_r+0x244>
  805684:	d9000b17 	ldw	r4,44(sp)
  805688:	202cc03a 	cmpne	r22,r4,zero
  80568c:	b000c71e 	bne	r22,zero,8059ac <_dtoa_r+0xacc>
  805690:	dc001117 	ldw	r16,68(sp)
  805694:	dc801017 	ldw	r18,64(sp)
  805698:	0027883a 	mov	r19,zero
  80569c:	04000b0e 	bge	zero,r16,8056cc <_dtoa_r+0x7ec>
  8056a0:	d8c00a17 	ldw	r3,40(sp)
  8056a4:	00c0090e 	bge	zero,r3,8056cc <_dtoa_r+0x7ec>
  8056a8:	8005883a 	mov	r2,r16
  8056ac:	1c011316 	blt	r3,r16,805afc <_dtoa_r+0xc1c>
  8056b0:	d9000a17 	ldw	r4,40(sp)
  8056b4:	d9801117 	ldw	r6,68(sp)
  8056b8:	80a1c83a 	sub	r16,r16,r2
  8056bc:	2089c83a 	sub	r4,r4,r2
  8056c0:	308dc83a 	sub	r6,r6,r2
  8056c4:	d9000a15 	stw	r4,40(sp)
  8056c8:	d9801115 	stw	r6,68(sp)
  8056cc:	d8801017 	ldw	r2,64(sp)
  8056d0:	0080150e 	bge	zero,r2,805728 <_dtoa_r+0x848>
  8056d4:	d8c00b17 	ldw	r3,44(sp)
  8056d8:	1805003a 	cmpeq	r2,r3,zero
  8056dc:	1001c91e 	bne	r2,zero,805e04 <_dtoa_r+0xf24>
  8056e0:	04800e0e 	bge	zero,r18,80571c <_dtoa_r+0x83c>
  8056e4:	d9001617 	ldw	r4,88(sp)
  8056e8:	980b883a 	mov	r5,r19
  8056ec:	900d883a 	mov	r6,r18
  8056f0:	08043540 	call	804354 <__pow5mult>
  8056f4:	d9001617 	ldw	r4,88(sp)
  8056f8:	d9800717 	ldw	r6,28(sp)
  8056fc:	100b883a 	mov	r5,r2
  805700:	1027883a 	mov	r19,r2
  805704:	08040300 	call	804030 <__multiply>
  805708:	d9001617 	ldw	r4,88(sp)
  80570c:	d9400717 	ldw	r5,28(sp)
  805710:	1023883a 	mov	r17,r2
  805714:	08035a00 	call	8035a0 <_Bfree>
  805718:	dc400715 	stw	r17,28(sp)
  80571c:	d9001017 	ldw	r4,64(sp)
  805720:	248dc83a 	sub	r6,r4,r18
  805724:	30010e1e 	bne	r6,zero,805b60 <_dtoa_r+0xc80>
  805728:	d9001617 	ldw	r4,88(sp)
  80572c:	04400044 	movi	r17,1
  805730:	880b883a 	mov	r5,r17
  805734:	08042180 	call	804218 <__i2b>
  805738:	d9800917 	ldw	r6,36(sp)
  80573c:	1025883a 	mov	r18,r2
  805740:	0180040e 	bge	zero,r6,805754 <_dtoa_r+0x874>
  805744:	d9001617 	ldw	r4,88(sp)
  805748:	100b883a 	mov	r5,r2
  80574c:	08043540 	call	804354 <__pow5mult>
  805750:	1025883a 	mov	r18,r2
  805754:	d8801717 	ldw	r2,92(sp)
  805758:	8880f30e 	bge	r17,r2,805b28 <_dtoa_r+0xc48>
  80575c:	0023883a 	mov	r17,zero
  805760:	d9800917 	ldw	r6,36(sp)
  805764:	30019e1e 	bne	r6,zero,805de0 <_dtoa_r+0xf00>
  805768:	00c00044 	movi	r3,1
  80576c:	d9000a17 	ldw	r4,40(sp)
  805770:	20c5883a 	add	r2,r4,r3
  805774:	10c007cc 	andi	r3,r2,31
  805778:	1800841e 	bne	r3,zero,80598c <_dtoa_r+0xaac>
  80577c:	00800704 	movi	r2,28
  805780:	d9000a17 	ldw	r4,40(sp)
  805784:	d9801117 	ldw	r6,68(sp)
  805788:	80a1883a 	add	r16,r16,r2
  80578c:	2089883a 	add	r4,r4,r2
  805790:	308d883a 	add	r6,r6,r2
  805794:	d9000a15 	stw	r4,40(sp)
  805798:	d9801115 	stw	r6,68(sp)
  80579c:	d8801117 	ldw	r2,68(sp)
  8057a0:	0080050e 	bge	zero,r2,8057b8 <_dtoa_r+0x8d8>
  8057a4:	d9400717 	ldw	r5,28(sp)
  8057a8:	d9001617 	ldw	r4,88(sp)
  8057ac:	100d883a 	mov	r6,r2
  8057b0:	0803ee40 	call	803ee4 <__lshift>
  8057b4:	d8800715 	stw	r2,28(sp)
  8057b8:	d8c00a17 	ldw	r3,40(sp)
  8057bc:	00c0050e 	bge	zero,r3,8057d4 <_dtoa_r+0x8f4>
  8057c0:	d9001617 	ldw	r4,88(sp)
  8057c4:	900b883a 	mov	r5,r18
  8057c8:	180d883a 	mov	r6,r3
  8057cc:	0803ee40 	call	803ee4 <__lshift>
  8057d0:	1025883a 	mov	r18,r2
  8057d4:	d9000c17 	ldw	r4,48(sp)
  8057d8:	2005003a 	cmpeq	r2,r4,zero
  8057dc:	10016f26 	beq	r2,zero,805d9c <_dtoa_r+0xebc>
  8057e0:	d9000f17 	ldw	r4,60(sp)
  8057e4:	0102170e 	bge	zero,r4,806044 <_dtoa_r+0x1164>
  8057e8:	d9800b17 	ldw	r6,44(sp)
  8057ec:	3005003a 	cmpeq	r2,r6,zero
  8057f0:	1000881e 	bne	r2,zero,805a14 <_dtoa_r+0xb34>
  8057f4:	0400050e 	bge	zero,r16,80580c <_dtoa_r+0x92c>
  8057f8:	d9001617 	ldw	r4,88(sp)
  8057fc:	980b883a 	mov	r5,r19
  805800:	800d883a 	mov	r6,r16
  805804:	0803ee40 	call	803ee4 <__lshift>
  805808:	1027883a 	mov	r19,r2
  80580c:	8804c03a 	cmpne	r2,r17,zero
  805810:	1002541e 	bne	r2,zero,806164 <_dtoa_r+0x1284>
  805814:	980b883a 	mov	r5,r19
  805818:	dd800517 	ldw	r22,20(sp)
  80581c:	dcc00615 	stw	r19,24(sp)
  805820:	a700004c 	andi	fp,r20,1
  805824:	2827883a 	mov	r19,r5
  805828:	d9000717 	ldw	r4,28(sp)
  80582c:	900b883a 	mov	r5,r18
  805830:	0804cc80 	call	804cc8 <quorem>
  805834:	d9000717 	ldw	r4,28(sp)
  805838:	d9400617 	ldw	r5,24(sp)
  80583c:	1023883a 	mov	r17,r2
  805840:	8dc00c04 	addi	r23,r17,48
  805844:	08036fc0 	call	8036fc <__mcmp>
  805848:	d9001617 	ldw	r4,88(sp)
  80584c:	900b883a 	mov	r5,r18
  805850:	980d883a 	mov	r6,r19
  805854:	1029883a 	mov	r20,r2
  805858:	0803d580 	call	803d58 <__mdiff>
  80585c:	102b883a 	mov	r21,r2
  805860:	10800317 	ldw	r2,12(r2)
  805864:	1001281e 	bne	r2,zero,805d08 <_dtoa_r+0xe28>
  805868:	d9000717 	ldw	r4,28(sp)
  80586c:	a80b883a 	mov	r5,r21
  805870:	08036fc0 	call	8036fc <__mcmp>
  805874:	d9001617 	ldw	r4,88(sp)
  805878:	1021883a 	mov	r16,r2
  80587c:	a80b883a 	mov	r5,r21
  805880:	08035a00 	call	8035a0 <_Bfree>
  805884:	8000041e 	bne	r16,zero,805898 <_dtoa_r+0x9b8>
  805888:	d8801717 	ldw	r2,92(sp)
  80588c:	1000021e 	bne	r2,zero,805898 <_dtoa_r+0x9b8>
  805890:	e004c03a 	cmpne	r2,fp,zero
  805894:	10011726 	beq	r2,zero,805cf4 <_dtoa_r+0xe14>
  805898:	a0010616 	blt	r20,zero,805cb4 <_dtoa_r+0xdd4>
  80589c:	a000041e 	bne	r20,zero,8058b0 <_dtoa_r+0x9d0>
  8058a0:	d8c01717 	ldw	r3,92(sp)
  8058a4:	1800021e 	bne	r3,zero,8058b0 <_dtoa_r+0x9d0>
  8058a8:	e004c03a 	cmpne	r2,fp,zero
  8058ac:	10010126 	beq	r2,zero,805cb4 <_dtoa_r+0xdd4>
  8058b0:	04023d16 	blt	zero,r16,8061a8 <_dtoa_r+0x12c8>
  8058b4:	b5c00005 	stb	r23,0(r22)
  8058b8:	d9800517 	ldw	r6,20(sp)
  8058bc:	d9000f17 	ldw	r4,60(sp)
  8058c0:	b5800044 	addi	r22,r22,1
  8058c4:	3105883a 	add	r2,r6,r4
  8058c8:	b0806526 	beq	r22,r2,805a60 <_dtoa_r+0xb80>
  8058cc:	d9400717 	ldw	r5,28(sp)
  8058d0:	d9001617 	ldw	r4,88(sp)
  8058d4:	01800284 	movi	r6,10
  8058d8:	000f883a 	mov	r7,zero
  8058dc:	08042540 	call	804254 <__multadd>
  8058e0:	d8800715 	stw	r2,28(sp)
  8058e4:	d8800617 	ldw	r2,24(sp)
  8058e8:	14c10c26 	beq	r2,r19,805d1c <_dtoa_r+0xe3c>
  8058ec:	d9400617 	ldw	r5,24(sp)
  8058f0:	d9001617 	ldw	r4,88(sp)
  8058f4:	01800284 	movi	r6,10
  8058f8:	000f883a 	mov	r7,zero
  8058fc:	08042540 	call	804254 <__multadd>
  805900:	d9001617 	ldw	r4,88(sp)
  805904:	980b883a 	mov	r5,r19
  805908:	01800284 	movi	r6,10
  80590c:	000f883a 	mov	r7,zero
  805910:	d8800615 	stw	r2,24(sp)
  805914:	08042540 	call	804254 <__multadd>
  805918:	1027883a 	mov	r19,r2
  80591c:	003fc206 	br	805828 <_dtoa_r+0x948>
  805920:	2445c83a 	sub	r2,r4,r17
  805924:	a088983a 	sll	r4,r20,r2
  805928:	003e4b06 	br	805258 <_dtoa_r+0x378>
  80592c:	01bfffc4 	movi	r6,-1
  805930:	00800044 	movi	r2,1
  805934:	d9800e15 	stw	r6,56(sp)
  805938:	d9800f15 	stw	r6,60(sp)
  80593c:	d8800b15 	stw	r2,44(sp)
  805940:	d8c01617 	ldw	r3,88(sp)
  805944:	008005c4 	movi	r2,23
  805948:	18001115 	stw	zero,68(r3)
  80594c:	1580082e 	bgeu	r2,r22,805970 <_dtoa_r+0xa90>
  805950:	00c00104 	movi	r3,4
  805954:	0009883a 	mov	r4,zero
  805958:	18c7883a 	add	r3,r3,r3
  80595c:	18800504 	addi	r2,r3,20
  805960:	21000044 	addi	r4,r4,1
  805964:	b0bffc2e 	bgeu	r22,r2,805958 <_dtoa_r+0xa78>
  805968:	d9801617 	ldw	r6,88(sp)
  80596c:	31001115 	stw	r4,68(r6)
  805970:	dc000f17 	ldw	r16,60(sp)
  805974:	003e4b06 	br	8052a4 <_dtoa_r+0x3c4>
  805978:	d9801717 	ldw	r6,92(sp)
  80597c:	0023883a 	mov	r17,zero
  805980:	31bfff04 	addi	r6,r6,-4
  805984:	d9801715 	stw	r6,92(sp)
  805988:	003df806 	br	80516c <_dtoa_r+0x28c>
  80598c:	00800804 	movi	r2,32
  805990:	10c9c83a 	sub	r4,r2,r3
  805994:	00c00104 	movi	r3,4
  805998:	19005a16 	blt	r3,r4,805b04 <_dtoa_r+0xc24>
  80599c:	008000c4 	movi	r2,3
  8059a0:	113f7e16 	blt	r2,r4,80579c <_dtoa_r+0x8bc>
  8059a4:	20800704 	addi	r2,r4,28
  8059a8:	003f7506 	br	805780 <_dtoa_r+0x8a0>
  8059ac:	d9801717 	ldw	r6,92(sp)
  8059b0:	00800044 	movi	r2,1
  8059b4:	1180a10e 	bge	r2,r6,805c3c <_dtoa_r+0xd5c>
  8059b8:	d9800f17 	ldw	r6,60(sp)
  8059bc:	d8c01017 	ldw	r3,64(sp)
  8059c0:	30bfffc4 	addi	r2,r6,-1
  8059c4:	1881c616 	blt	r3,r2,8060e0 <_dtoa_r+0x1200>
  8059c8:	18a5c83a 	sub	r18,r3,r2
  8059cc:	d8800f17 	ldw	r2,60(sp)
  8059d0:	10026216 	blt	r2,zero,80635c <_dtoa_r+0x147c>
  8059d4:	dc001117 	ldw	r16,68(sp)
  8059d8:	1007883a 	mov	r3,r2
  8059dc:	d9800a17 	ldw	r6,40(sp)
  8059e0:	d8801117 	ldw	r2,68(sp)
  8059e4:	d9001617 	ldw	r4,88(sp)
  8059e8:	30cd883a 	add	r6,r6,r3
  8059ec:	10c5883a 	add	r2,r2,r3
  8059f0:	01400044 	movi	r5,1
  8059f4:	d9800a15 	stw	r6,40(sp)
  8059f8:	d8801115 	stw	r2,68(sp)
  8059fc:	08042180 	call	804218 <__i2b>
  805a00:	1027883a 	mov	r19,r2
  805a04:	003f2506 	br	80569c <_dtoa_r+0x7bc>
  805a08:	00c02074 	movhi	r3,129
  805a0c:	18e6df04 	addi	r3,r3,-25732
  805a10:	003d6706 	br	804fb0 <_dtoa_r+0xd0>
  805a14:	dd800517 	ldw	r22,20(sp)
  805a18:	04000044 	movi	r16,1
  805a1c:	00000706 	br	805a3c <_dtoa_r+0xb5c>
  805a20:	d9400717 	ldw	r5,28(sp)
  805a24:	d9001617 	ldw	r4,88(sp)
  805a28:	01800284 	movi	r6,10
  805a2c:	000f883a 	mov	r7,zero
  805a30:	08042540 	call	804254 <__multadd>
  805a34:	d8800715 	stw	r2,28(sp)
  805a38:	84000044 	addi	r16,r16,1
  805a3c:	d9000717 	ldw	r4,28(sp)
  805a40:	900b883a 	mov	r5,r18
  805a44:	0804cc80 	call	804cc8 <quorem>
  805a48:	15c00c04 	addi	r23,r2,48
  805a4c:	b5c00005 	stb	r23,0(r22)
  805a50:	d8c00f17 	ldw	r3,60(sp)
  805a54:	b5800044 	addi	r22,r22,1
  805a58:	80fff116 	blt	r16,r3,805a20 <_dtoa_r+0xb40>
  805a5c:	d8000615 	stw	zero,24(sp)
  805a60:	d9400717 	ldw	r5,28(sp)
  805a64:	d9001617 	ldw	r4,88(sp)
  805a68:	01800044 	movi	r6,1
  805a6c:	0803ee40 	call	803ee4 <__lshift>
  805a70:	1009883a 	mov	r4,r2
  805a74:	900b883a 	mov	r5,r18
  805a78:	d8800715 	stw	r2,28(sp)
  805a7c:	08036fc0 	call	8036fc <__mcmp>
  805a80:	00803c0e 	bge	zero,r2,805b74 <_dtoa_r+0xc94>
  805a84:	b009883a 	mov	r4,r22
  805a88:	213fffc4 	addi	r4,r4,-1
  805a8c:	21400003 	ldbu	r5,0(r4)
  805a90:	00800e44 	movi	r2,57
  805a94:	28c03fcc 	andi	r3,r5,255
  805a98:	18c0201c 	xori	r3,r3,128
  805a9c:	18ffe004 	addi	r3,r3,-128
  805aa0:	1881981e 	bne	r3,r2,806104 <_dtoa_r+0x1224>
  805aa4:	d9800517 	ldw	r6,20(sp)
  805aa8:	21bff71e 	bne	r4,r6,805a88 <_dtoa_r+0xba8>
  805aac:	d8800d17 	ldw	r2,52(sp)
  805ab0:	37000044 	addi	fp,r6,1
  805ab4:	10800044 	addi	r2,r2,1
  805ab8:	d8800d15 	stw	r2,52(sp)
  805abc:	00800c44 	movi	r2,49
  805ac0:	30800005 	stb	r2,0(r6)
  805ac4:	d9001617 	ldw	r4,88(sp)
  805ac8:	900b883a 	mov	r5,r18
  805acc:	08035a00 	call	8035a0 <_Bfree>
  805ad0:	983ecd26 	beq	r19,zero,805608 <_dtoa_r+0x728>
  805ad4:	d8c00617 	ldw	r3,24(sp)
  805ad8:	18000426 	beq	r3,zero,805aec <_dtoa_r+0xc0c>
  805adc:	1cc00326 	beq	r3,r19,805aec <_dtoa_r+0xc0c>
  805ae0:	d9001617 	ldw	r4,88(sp)
  805ae4:	180b883a 	mov	r5,r3
  805ae8:	08035a00 	call	8035a0 <_Bfree>
  805aec:	d9001617 	ldw	r4,88(sp)
  805af0:	980b883a 	mov	r5,r19
  805af4:	08035a00 	call	8035a0 <_Bfree>
  805af8:	003ec306 	br	805608 <_dtoa_r+0x728>
  805afc:	1805883a 	mov	r2,r3
  805b00:	003eeb06 	br	8056b0 <_dtoa_r+0x7d0>
  805b04:	d9800a17 	ldw	r6,40(sp)
  805b08:	d8c01117 	ldw	r3,68(sp)
  805b0c:	20bfff04 	addi	r2,r4,-4
  805b10:	308d883a 	add	r6,r6,r2
  805b14:	1887883a 	add	r3,r3,r2
  805b18:	80a1883a 	add	r16,r16,r2
  805b1c:	d9800a15 	stw	r6,40(sp)
  805b20:	d8c01115 	stw	r3,68(sp)
  805b24:	003f1d06 	br	80579c <_dtoa_r+0x8bc>
  805b28:	a03f0c1e 	bne	r20,zero,80575c <_dtoa_r+0x87c>
  805b2c:	00800434 	movhi	r2,16
  805b30:	10bfffc4 	addi	r2,r2,-1
  805b34:	a884703a 	and	r2,r21,r2
  805b38:	103f081e 	bne	r2,zero,80575c <_dtoa_r+0x87c>
  805b3c:	a89ffc2c 	andhi	r2,r21,32752
  805b40:	103f0626 	beq	r2,zero,80575c <_dtoa_r+0x87c>
  805b44:	d8c01117 	ldw	r3,68(sp)
  805b48:	d9000a17 	ldw	r4,40(sp)
  805b4c:	18c00044 	addi	r3,r3,1
  805b50:	21000044 	addi	r4,r4,1
  805b54:	d8c01115 	stw	r3,68(sp)
  805b58:	d9000a15 	stw	r4,40(sp)
  805b5c:	003f0006 	br	805760 <_dtoa_r+0x880>
  805b60:	d9400717 	ldw	r5,28(sp)
  805b64:	d9001617 	ldw	r4,88(sp)
  805b68:	08043540 	call	804354 <__pow5mult>
  805b6c:	d8800715 	stw	r2,28(sp)
  805b70:	003eed06 	br	805728 <_dtoa_r+0x848>
  805b74:	1000021e 	bne	r2,zero,805b80 <_dtoa_r+0xca0>
  805b78:	b880004c 	andi	r2,r23,1
  805b7c:	103fc11e 	bne	r2,zero,805a84 <_dtoa_r+0xba4>
  805b80:	b5bfffc4 	addi	r22,r22,-1
  805b84:	b0c00007 	ldb	r3,0(r22)
  805b88:	00800c04 	movi	r2,48
  805b8c:	18bffc26 	beq	r3,r2,805b80 <_dtoa_r+0xca0>
  805b90:	b7000044 	addi	fp,r22,1
  805b94:	003fcb06 	br	805ac4 <_dtoa_r+0xbe4>
  805b98:	d9800d17 	ldw	r6,52(sp)
  805b9c:	018fc83a 	sub	r7,zero,r6
  805ba0:	3801f726 	beq	r7,zero,806380 <_dtoa_r+0x14a0>
  805ba4:	398003cc 	andi	r6,r7,15
  805ba8:	300c90fa 	slli	r6,r6,3
  805bac:	01402074 	movhi	r5,129
  805bb0:	29669204 	addi	r5,r5,-26040
  805bb4:	d9001217 	ldw	r4,72(sp)
  805bb8:	314d883a 	add	r6,r6,r5
  805bbc:	30c00117 	ldw	r3,4(r6)
  805bc0:	30800017 	ldw	r2,0(r6)
  805bc4:	d9401317 	ldw	r5,76(sp)
  805bc8:	3821d13a 	srai	r16,r7,4
  805bcc:	100d883a 	mov	r6,r2
  805bd0:	180f883a 	mov	r7,r3
  805bd4:	08066a40 	call	8066a4 <__muldf3>
  805bd8:	1011883a 	mov	r8,r2
  805bdc:	1813883a 	mov	r9,r3
  805be0:	1029883a 	mov	r20,r2
  805be4:	182b883a 	mov	r21,r3
  805be8:	8001e526 	beq	r16,zero,806380 <_dtoa_r+0x14a0>
  805bec:	05800084 	movi	r22,2
  805bf0:	04402074 	movhi	r17,129
  805bf4:	8c66c404 	addi	r17,r17,-25840
  805bf8:	8080004c 	andi	r2,r16,1
  805bfc:	1005003a 	cmpeq	r2,r2,zero
  805c00:	1000081e 	bne	r2,zero,805c24 <_dtoa_r+0xd44>
  805c04:	89800017 	ldw	r6,0(r17)
  805c08:	89c00117 	ldw	r7,4(r17)
  805c0c:	480b883a 	mov	r5,r9
  805c10:	4009883a 	mov	r4,r8
  805c14:	08066a40 	call	8066a4 <__muldf3>
  805c18:	1011883a 	mov	r8,r2
  805c1c:	b5800044 	addi	r22,r22,1
  805c20:	1813883a 	mov	r9,r3
  805c24:	8021d07a 	srai	r16,r16,1
  805c28:	8c400204 	addi	r17,r17,8
  805c2c:	803ff21e 	bne	r16,zero,805bf8 <_dtoa_r+0xd18>
  805c30:	4029883a 	mov	r20,r8
  805c34:	482b883a 	mov	r21,r9
  805c38:	003dca06 	br	805364 <_dtoa_r+0x484>
  805c3c:	d9000817 	ldw	r4,32(sp)
  805c40:	2005003a 	cmpeq	r2,r4,zero
  805c44:	1001f61e 	bne	r2,zero,806420 <_dtoa_r+0x1540>
  805c48:	dc001117 	ldw	r16,68(sp)
  805c4c:	dc801017 	ldw	r18,64(sp)
  805c50:	18c10cc4 	addi	r3,r3,1075
  805c54:	003f6106 	br	8059dc <_dtoa_r+0xafc>
  805c58:	d8000b15 	stw	zero,44(sp)
  805c5c:	d9802617 	ldw	r6,152(sp)
  805c60:	d8c00d17 	ldw	r3,52(sp)
  805c64:	30800044 	addi	r2,r6,1
  805c68:	18ad883a 	add	r22,r3,r2
  805c6c:	b13fffc4 	addi	r4,r22,-1
  805c70:	d9000e15 	stw	r4,56(sp)
  805c74:	0581f60e 	bge	zero,r22,806450 <_dtoa_r+0x1570>
  805c78:	dd800f15 	stw	r22,60(sp)
  805c7c:	003f3006 	br	805940 <_dtoa_r+0xa60>
  805c80:	d8000b15 	stw	zero,44(sp)
  805c84:	d9002617 	ldw	r4,152(sp)
  805c88:	0101eb0e 	bge	zero,r4,806438 <_dtoa_r+0x1558>
  805c8c:	202d883a 	mov	r22,r4
  805c90:	d9000e15 	stw	r4,56(sp)
  805c94:	d9000f15 	stw	r4,60(sp)
  805c98:	003f2906 	br	805940 <_dtoa_r+0xa60>
  805c9c:	01800044 	movi	r6,1
  805ca0:	d9800b15 	stw	r6,44(sp)
  805ca4:	003ff706 	br	805c84 <_dtoa_r+0xda4>
  805ca8:	01000044 	movi	r4,1
  805cac:	d9000b15 	stw	r4,44(sp)
  805cb0:	003fea06 	br	805c5c <_dtoa_r+0xd7c>
  805cb4:	04000c0e 	bge	zero,r16,805ce8 <_dtoa_r+0xe08>
  805cb8:	d9400717 	ldw	r5,28(sp)
  805cbc:	d9001617 	ldw	r4,88(sp)
  805cc0:	01800044 	movi	r6,1
  805cc4:	0803ee40 	call	803ee4 <__lshift>
  805cc8:	1009883a 	mov	r4,r2
  805ccc:	900b883a 	mov	r5,r18
  805cd0:	d8800715 	stw	r2,28(sp)
  805cd4:	08036fc0 	call	8036fc <__mcmp>
  805cd8:	0081e00e 	bge	zero,r2,80645c <_dtoa_r+0x157c>
  805cdc:	bdc00044 	addi	r23,r23,1
  805ce0:	00800e84 	movi	r2,58
  805ce4:	b881a226 	beq	r23,r2,806370 <_dtoa_r+0x1490>
  805ce8:	b7000044 	addi	fp,r22,1
  805cec:	b5c00005 	stb	r23,0(r22)
  805cf0:	003f7406 	br	805ac4 <_dtoa_r+0xbe4>
  805cf4:	00800e44 	movi	r2,57
  805cf8:	b8819d26 	beq	r23,r2,806370 <_dtoa_r+0x1490>
  805cfc:	053ffa0e 	bge	zero,r20,805ce8 <_dtoa_r+0xe08>
  805d00:	8dc00c44 	addi	r23,r17,49
  805d04:	003ff806 	br	805ce8 <_dtoa_r+0xe08>
  805d08:	d9001617 	ldw	r4,88(sp)
  805d0c:	a80b883a 	mov	r5,r21
  805d10:	04000044 	movi	r16,1
  805d14:	08035a00 	call	8035a0 <_Bfree>
  805d18:	003edf06 	br	805898 <_dtoa_r+0x9b8>
  805d1c:	d9001617 	ldw	r4,88(sp)
  805d20:	980b883a 	mov	r5,r19
  805d24:	01800284 	movi	r6,10
  805d28:	000f883a 	mov	r7,zero
  805d2c:	08042540 	call	804254 <__multadd>
  805d30:	1027883a 	mov	r19,r2
  805d34:	d8800615 	stw	r2,24(sp)
  805d38:	003ebb06 	br	805828 <_dtoa_r+0x948>
  805d3c:	d9801117 	ldw	r6,68(sp)
  805d40:	d8800d17 	ldw	r2,52(sp)
  805d44:	d8000915 	stw	zero,36(sp)
  805d48:	308dc83a 	sub	r6,r6,r2
  805d4c:	0087c83a 	sub	r3,zero,r2
  805d50:	d9801115 	stw	r6,68(sp)
  805d54:	d8c01015 	stw	r3,64(sp)
  805d58:	003cfe06 	br	805154 <_dtoa_r+0x274>
  805d5c:	018dc83a 	sub	r6,zero,r6
  805d60:	d9801115 	stw	r6,68(sp)
  805d64:	d8000a15 	stw	zero,40(sp)
  805d68:	003cf306 	br	805138 <_dtoa_r+0x258>
  805d6c:	d9000d17 	ldw	r4,52(sp)
  805d70:	0806d980 	call	806d98 <__floatsidf>
  805d74:	880b883a 	mov	r5,r17
  805d78:	8009883a 	mov	r4,r16
  805d7c:	180f883a 	mov	r7,r3
  805d80:	100d883a 	mov	r6,r2
  805d84:	0806af00 	call	806af0 <__nedf2>
  805d88:	103ce126 	beq	r2,zero,805110 <_dtoa_r+0x230>
  805d8c:	d9800d17 	ldw	r6,52(sp)
  805d90:	31bfffc4 	addi	r6,r6,-1
  805d94:	d9800d15 	stw	r6,52(sp)
  805d98:	003cdd06 	br	805110 <_dtoa_r+0x230>
  805d9c:	d9000717 	ldw	r4,28(sp)
  805da0:	900b883a 	mov	r5,r18
  805da4:	08036fc0 	call	8036fc <__mcmp>
  805da8:	103e8d0e 	bge	r2,zero,8057e0 <_dtoa_r+0x900>
  805dac:	d9400717 	ldw	r5,28(sp)
  805db0:	d9001617 	ldw	r4,88(sp)
  805db4:	01800284 	movi	r6,10
  805db8:	000f883a 	mov	r7,zero
  805dbc:	08042540 	call	804254 <__multadd>
  805dc0:	d9800d17 	ldw	r6,52(sp)
  805dc4:	d8800715 	stw	r2,28(sp)
  805dc8:	31bfffc4 	addi	r6,r6,-1
  805dcc:	d9800d15 	stw	r6,52(sp)
  805dd0:	b001a71e 	bne	r22,zero,806470 <_dtoa_r+0x1590>
  805dd4:	d8800e17 	ldw	r2,56(sp)
  805dd8:	d8800f15 	stw	r2,60(sp)
  805ddc:	003e8006 	br	8057e0 <_dtoa_r+0x900>
  805de0:	90800417 	ldw	r2,16(r18)
  805de4:	1085883a 	add	r2,r2,r2
  805de8:	1085883a 	add	r2,r2,r2
  805dec:	1485883a 	add	r2,r2,r18
  805df0:	11000417 	ldw	r4,16(r2)
  805df4:	08035c80 	call	8035c8 <__hi0bits>
  805df8:	00c00804 	movi	r3,32
  805dfc:	1887c83a 	sub	r3,r3,r2
  805e00:	003e5a06 	br	80576c <_dtoa_r+0x88c>
  805e04:	d9400717 	ldw	r5,28(sp)
  805e08:	d9801017 	ldw	r6,64(sp)
  805e0c:	d9001617 	ldw	r4,88(sp)
  805e10:	08043540 	call	804354 <__pow5mult>
  805e14:	d8800715 	stw	r2,28(sp)
  805e18:	003e4306 	br	805728 <_dtoa_r+0x848>
  805e1c:	d9800f17 	ldw	r6,60(sp)
  805e20:	d8800d17 	ldw	r2,52(sp)
  805e24:	d9800315 	stw	r6,12(sp)
  805e28:	d8800415 	stw	r2,16(sp)
  805e2c:	d8c00b17 	ldw	r3,44(sp)
  805e30:	1805003a 	cmpeq	r2,r3,zero
  805e34:	1000e21e 	bne	r2,zero,8061c0 <_dtoa_r+0x12e0>
  805e38:	d9000317 	ldw	r4,12(sp)
  805e3c:	0005883a 	mov	r2,zero
  805e40:	00cff834 	movhi	r3,16352
  805e44:	200c90fa 	slli	r6,r4,3
  805e48:	01002074 	movhi	r4,129
  805e4c:	21269204 	addi	r4,r4,-26040
  805e50:	180b883a 	mov	r5,r3
  805e54:	310d883a 	add	r6,r6,r4
  805e58:	327fff17 	ldw	r9,-4(r6)
  805e5c:	323ffe17 	ldw	r8,-8(r6)
  805e60:	1009883a 	mov	r4,r2
  805e64:	480f883a 	mov	r7,r9
  805e68:	400d883a 	mov	r6,r8
  805e6c:	08010880 	call	801088 <__divdf3>
  805e70:	180b883a 	mov	r5,r3
  805e74:	b00d883a 	mov	r6,r22
  805e78:	b80f883a 	mov	r7,r23
  805e7c:	1009883a 	mov	r4,r2
  805e80:	0800f940 	call	800f94 <__subdf3>
  805e84:	a80b883a 	mov	r5,r21
  805e88:	a009883a 	mov	r4,r20
  805e8c:	d8c01915 	stw	r3,100(sp)
  805e90:	d8801815 	stw	r2,96(sp)
  805e94:	0806e900 	call	806e90 <__fixdfsi>
  805e98:	1009883a 	mov	r4,r2
  805e9c:	1027883a 	mov	r19,r2
  805ea0:	0806d980 	call	806d98 <__floatsidf>
  805ea4:	a80b883a 	mov	r5,r21
  805ea8:	a009883a 	mov	r4,r20
  805eac:	180f883a 	mov	r7,r3
  805eb0:	100d883a 	mov	r6,r2
  805eb4:	0800f940 	call	800f94 <__subdf3>
  805eb8:	d9801817 	ldw	r6,96(sp)
  805ebc:	1823883a 	mov	r17,r3
  805ec0:	d8801415 	stw	r2,80(sp)
  805ec4:	302d883a 	mov	r22,r6
  805ec8:	d9800517 	ldw	r6,20(sp)
  805ecc:	9cc00c04 	addi	r19,r19,48
  805ed0:	dc401515 	stw	r17,84(sp)
  805ed4:	d8c01917 	ldw	r3,100(sp)
  805ed8:	34c00005 	stb	r19,0(r6)
  805edc:	d8800517 	ldw	r2,20(sp)
  805ee0:	d9401917 	ldw	r5,100(sp)
  805ee4:	d9801417 	ldw	r6,80(sp)
  805ee8:	b009883a 	mov	r4,r22
  805eec:	880f883a 	mov	r7,r17
  805ef0:	182f883a 	mov	r23,r3
  805ef4:	17000044 	addi	fp,r2,1
  805ef8:	0806b780 	call	806b78 <__gtdf2>
  805efc:	00804e16 	blt	zero,r2,806038 <_dtoa_r+0x1158>
  805f00:	d9801417 	ldw	r6,80(sp)
  805f04:	0005883a 	mov	r2,zero
  805f08:	00cffc34 	movhi	r3,16368
  805f0c:	180b883a 	mov	r5,r3
  805f10:	880f883a 	mov	r7,r17
  805f14:	1009883a 	mov	r4,r2
  805f18:	0800f940 	call	800f94 <__subdf3>
  805f1c:	d9401917 	ldw	r5,100(sp)
  805f20:	180f883a 	mov	r7,r3
  805f24:	b009883a 	mov	r4,r22
  805f28:	100d883a 	mov	r6,r2
  805f2c:	0806b780 	call	806b78 <__gtdf2>
  805f30:	00bda216 	blt	zero,r2,8055bc <_dtoa_r+0x6dc>
  805f34:	d8c00317 	ldw	r3,12(sp)
  805f38:	00800044 	movi	r2,1
  805f3c:	10c01216 	blt	r2,r3,805f88 <_dtoa_r+0x10a8>
  805f40:	003d4506 	br	805458 <_dtoa_r+0x578>
  805f44:	d9801417 	ldw	r6,80(sp)
  805f48:	0005883a 	mov	r2,zero
  805f4c:	00cffc34 	movhi	r3,16368
  805f50:	180b883a 	mov	r5,r3
  805f54:	880f883a 	mov	r7,r17
  805f58:	1009883a 	mov	r4,r2
  805f5c:	0800f940 	call	800f94 <__subdf3>
  805f60:	d9c01b17 	ldw	r7,108(sp)
  805f64:	180b883a 	mov	r5,r3
  805f68:	1009883a 	mov	r4,r2
  805f6c:	b00d883a 	mov	r6,r22
  805f70:	0806c880 	call	806c88 <__ltdf2>
  805f74:	103d9116 	blt	r2,zero,8055bc <_dtoa_r+0x6dc>
  805f78:	d9800517 	ldw	r6,20(sp)
  805f7c:	d9000317 	ldw	r4,12(sp)
  805f80:	3105883a 	add	r2,r6,r4
  805f84:	e0bd3426 	beq	fp,r2,805458 <_dtoa_r+0x578>
  805f88:	04500934 	movhi	r17,16420
  805f8c:	0021883a 	mov	r16,zero
  805f90:	b80b883a 	mov	r5,r23
  805f94:	b009883a 	mov	r4,r22
  805f98:	800d883a 	mov	r6,r16
  805f9c:	880f883a 	mov	r7,r17
  805fa0:	08066a40 	call	8066a4 <__muldf3>
  805fa4:	d9401517 	ldw	r5,84(sp)
  805fa8:	d9001417 	ldw	r4,80(sp)
  805fac:	880f883a 	mov	r7,r17
  805fb0:	000d883a 	mov	r6,zero
  805fb4:	d8801a15 	stw	r2,104(sp)
  805fb8:	d8c01b15 	stw	r3,108(sp)
  805fbc:	08066a40 	call	8066a4 <__muldf3>
  805fc0:	180b883a 	mov	r5,r3
  805fc4:	1009883a 	mov	r4,r2
  805fc8:	1823883a 	mov	r17,r3
  805fcc:	1021883a 	mov	r16,r2
  805fd0:	0806e900 	call	806e90 <__fixdfsi>
  805fd4:	1009883a 	mov	r4,r2
  805fd8:	102b883a 	mov	r21,r2
  805fdc:	0806d980 	call	806d98 <__floatsidf>
  805fe0:	880b883a 	mov	r5,r17
  805fe4:	8009883a 	mov	r4,r16
  805fe8:	180f883a 	mov	r7,r3
  805fec:	100d883a 	mov	r6,r2
  805ff0:	0800f940 	call	800f94 <__subdf3>
  805ff4:	1021883a 	mov	r16,r2
  805ff8:	d9001b17 	ldw	r4,108(sp)
  805ffc:	1823883a 	mov	r17,r3
  806000:	dc001415 	stw	r16,80(sp)
  806004:	ad400c04 	addi	r21,r21,48
  806008:	dc401515 	stw	r17,84(sp)
  80600c:	d8801a17 	ldw	r2,104(sp)
  806010:	e5400005 	stb	r21,0(fp)
  806014:	202f883a 	mov	r23,r4
  806018:	d9c01b17 	ldw	r7,108(sp)
  80601c:	d9001417 	ldw	r4,80(sp)
  806020:	880b883a 	mov	r5,r17
  806024:	100d883a 	mov	r6,r2
  806028:	102d883a 	mov	r22,r2
  80602c:	e7000044 	addi	fp,fp,1
  806030:	0806c880 	call	806c88 <__ltdf2>
  806034:	103fc30e 	bge	r2,zero,805f44 <_dtoa_r+0x1064>
  806038:	d9000417 	ldw	r4,16(sp)
  80603c:	d9000d15 	stw	r4,52(sp)
  806040:	003d7106 	br	805608 <_dtoa_r+0x728>
  806044:	d9801717 	ldw	r6,92(sp)
  806048:	00800084 	movi	r2,2
  80604c:	11bde60e 	bge	r2,r6,8057e8 <_dtoa_r+0x908>
  806050:	203cfb1e 	bne	r4,zero,805440 <_dtoa_r+0x560>
  806054:	d9001617 	ldw	r4,88(sp)
  806058:	900b883a 	mov	r5,r18
  80605c:	01800144 	movi	r6,5
  806060:	000f883a 	mov	r7,zero
  806064:	08042540 	call	804254 <__multadd>
  806068:	d9000717 	ldw	r4,28(sp)
  80606c:	100b883a 	mov	r5,r2
  806070:	1025883a 	mov	r18,r2
  806074:	08036fc0 	call	8036fc <__mcmp>
  806078:	00bcf10e 	bge	zero,r2,805440 <_dtoa_r+0x560>
  80607c:	d8c00d17 	ldw	r3,52(sp)
  806080:	d9000517 	ldw	r4,20(sp)
  806084:	d8000615 	stw	zero,24(sp)
  806088:	18c00044 	addi	r3,r3,1
  80608c:	d8c00d15 	stw	r3,52(sp)
  806090:	00800c44 	movi	r2,49
  806094:	27000044 	addi	fp,r4,1
  806098:	20800005 	stb	r2,0(r4)
  80609c:	003e8906 	br	805ac4 <_dtoa_r+0xbe4>
  8060a0:	d8c00517 	ldw	r3,20(sp)
  8060a4:	003bc206 	br	804fb0 <_dtoa_r+0xd0>
  8060a8:	01802074 	movhi	r6,129
  8060ac:	31a6c404 	addi	r6,r6,-25840
  8060b0:	30c00917 	ldw	r3,36(r6)
  8060b4:	30800817 	ldw	r2,32(r6)
  8060b8:	d9001217 	ldw	r4,72(sp)
  8060bc:	d9401317 	ldw	r5,76(sp)
  8060c0:	180f883a 	mov	r7,r3
  8060c4:	100d883a 	mov	r6,r2
  8060c8:	08010880 	call	801088 <__divdf3>
  8060cc:	948003cc 	andi	r18,r18,15
  8060d0:	058000c4 	movi	r22,3
  8060d4:	1029883a 	mov	r20,r2
  8060d8:	182b883a 	mov	r21,r3
  8060dc:	003c8906 	br	805304 <_dtoa_r+0x424>
  8060e0:	d9001017 	ldw	r4,64(sp)
  8060e4:	d9800917 	ldw	r6,36(sp)
  8060e8:	0025883a 	mov	r18,zero
  8060ec:	1105c83a 	sub	r2,r2,r4
  8060f0:	2089883a 	add	r4,r4,r2
  8060f4:	308d883a 	add	r6,r6,r2
  8060f8:	d9001015 	stw	r4,64(sp)
  8060fc:	d9800915 	stw	r6,36(sp)
  806100:	003e3206 	br	8059cc <_dtoa_r+0xaec>
  806104:	28800044 	addi	r2,r5,1
  806108:	27000044 	addi	fp,r4,1
  80610c:	20800005 	stb	r2,0(r4)
  806110:	003e6c06 	br	805ac4 <_dtoa_r+0xbe4>
  806114:	d8800f17 	ldw	r2,60(sp)
  806118:	00bce016 	blt	zero,r2,80549c <_dtoa_r+0x5bc>
  80611c:	d9800f17 	ldw	r6,60(sp)
  806120:	303cc51e 	bne	r6,zero,805438 <_dtoa_r+0x558>
  806124:	0005883a 	mov	r2,zero
  806128:	00d00534 	movhi	r3,16404
  80612c:	980b883a 	mov	r5,r19
  806130:	180f883a 	mov	r7,r3
  806134:	9009883a 	mov	r4,r18
  806138:	100d883a 	mov	r6,r2
  80613c:	08066a40 	call	8066a4 <__muldf3>
  806140:	180b883a 	mov	r5,r3
  806144:	a80f883a 	mov	r7,r21
  806148:	1009883a 	mov	r4,r2
  80614c:	a00d883a 	mov	r6,r20
  806150:	0806c000 	call	806c00 <__gedf2>
  806154:	103cb80e 	bge	r2,zero,805438 <_dtoa_r+0x558>
  806158:	0027883a 	mov	r19,zero
  80615c:	0025883a 	mov	r18,zero
  806160:	003fc606 	br	80607c <_dtoa_r+0x119c>
  806164:	99400117 	ldw	r5,4(r19)
  806168:	d9001617 	ldw	r4,88(sp)
  80616c:	0803b200 	call	803b20 <_Balloc>
  806170:	99800417 	ldw	r6,16(r19)
  806174:	11000304 	addi	r4,r2,12
  806178:	99400304 	addi	r5,r19,12
  80617c:	318d883a 	add	r6,r6,r6
  806180:	318d883a 	add	r6,r6,r6
  806184:	31800204 	addi	r6,r6,8
  806188:	1023883a 	mov	r17,r2
  80618c:	08025040 	call	802504 <memcpy>
  806190:	d9001617 	ldw	r4,88(sp)
  806194:	880b883a 	mov	r5,r17
  806198:	01800044 	movi	r6,1
  80619c:	0803ee40 	call	803ee4 <__lshift>
  8061a0:	100b883a 	mov	r5,r2
  8061a4:	003d9c06 	br	805818 <_dtoa_r+0x938>
  8061a8:	00800e44 	movi	r2,57
  8061ac:	b8807026 	beq	r23,r2,806370 <_dtoa_r+0x1490>
  8061b0:	b8800044 	addi	r2,r23,1
  8061b4:	b7000044 	addi	fp,r22,1
  8061b8:	b0800005 	stb	r2,0(r22)
  8061bc:	003e4106 	br	805ac4 <_dtoa_r+0xbe4>
  8061c0:	d8800317 	ldw	r2,12(sp)
  8061c4:	01802074 	movhi	r6,129
  8061c8:	31a69204 	addi	r6,r6,-26040
  8061cc:	b009883a 	mov	r4,r22
  8061d0:	100e90fa 	slli	r7,r2,3
  8061d4:	b80b883a 	mov	r5,r23
  8061d8:	398f883a 	add	r7,r7,r6
  8061dc:	38bffe17 	ldw	r2,-8(r7)
  8061e0:	d9800517 	ldw	r6,20(sp)
  8061e4:	38ffff17 	ldw	r3,-4(r7)
  8061e8:	37000044 	addi	fp,r6,1
  8061ec:	180f883a 	mov	r7,r3
  8061f0:	100d883a 	mov	r6,r2
  8061f4:	08066a40 	call	8066a4 <__muldf3>
  8061f8:	a80b883a 	mov	r5,r21
  8061fc:	a009883a 	mov	r4,r20
  806200:	182f883a 	mov	r23,r3
  806204:	102d883a 	mov	r22,r2
  806208:	0806e900 	call	806e90 <__fixdfsi>
  80620c:	1009883a 	mov	r4,r2
  806210:	1027883a 	mov	r19,r2
  806214:	0806d980 	call	806d98 <__floatsidf>
  806218:	a80b883a 	mov	r5,r21
  80621c:	a009883a 	mov	r4,r20
  806220:	180f883a 	mov	r7,r3
  806224:	100d883a 	mov	r6,r2
  806228:	0800f940 	call	800f94 <__subdf3>
  80622c:	180b883a 	mov	r5,r3
  806230:	d8c00517 	ldw	r3,20(sp)
  806234:	9cc00c04 	addi	r19,r19,48
  806238:	1009883a 	mov	r4,r2
  80623c:	1cc00005 	stb	r19,0(r3)
  806240:	2021883a 	mov	r16,r4
  806244:	d9000317 	ldw	r4,12(sp)
  806248:	00800044 	movi	r2,1
  80624c:	2823883a 	mov	r17,r5
  806250:	20802226 	beq	r4,r2,8062dc <_dtoa_r+0x13fc>
  806254:	1029883a 	mov	r20,r2
  806258:	0005883a 	mov	r2,zero
  80625c:	00d00934 	movhi	r3,16420
  806260:	180f883a 	mov	r7,r3
  806264:	100d883a 	mov	r6,r2
  806268:	880b883a 	mov	r5,r17
  80626c:	8009883a 	mov	r4,r16
  806270:	08066a40 	call	8066a4 <__muldf3>
  806274:	180b883a 	mov	r5,r3
  806278:	1009883a 	mov	r4,r2
  80627c:	1823883a 	mov	r17,r3
  806280:	1021883a 	mov	r16,r2
  806284:	0806e900 	call	806e90 <__fixdfsi>
  806288:	1009883a 	mov	r4,r2
  80628c:	102b883a 	mov	r21,r2
  806290:	0806d980 	call	806d98 <__floatsidf>
  806294:	880b883a 	mov	r5,r17
  806298:	8009883a 	mov	r4,r16
  80629c:	180f883a 	mov	r7,r3
  8062a0:	100d883a 	mov	r6,r2
  8062a4:	0800f940 	call	800f94 <__subdf3>
  8062a8:	180b883a 	mov	r5,r3
  8062ac:	d8c00517 	ldw	r3,20(sp)
  8062b0:	1009883a 	mov	r4,r2
  8062b4:	ad400c04 	addi	r21,r21,48
  8062b8:	1d05883a 	add	r2,r3,r20
  8062bc:	15400005 	stb	r21,0(r2)
  8062c0:	2021883a 	mov	r16,r4
  8062c4:	d9000317 	ldw	r4,12(sp)
  8062c8:	a5000044 	addi	r20,r20,1
  8062cc:	2823883a 	mov	r17,r5
  8062d0:	a13fe11e 	bne	r20,r4,806258 <_dtoa_r+0x1378>
  8062d4:	e505883a 	add	r2,fp,r20
  8062d8:	173fffc4 	addi	fp,r2,-1
  8062dc:	0025883a 	mov	r18,zero
  8062e0:	04cff834 	movhi	r19,16352
  8062e4:	b009883a 	mov	r4,r22
  8062e8:	b80b883a 	mov	r5,r23
  8062ec:	900d883a 	mov	r6,r18
  8062f0:	980f883a 	mov	r7,r19
  8062f4:	08010140 	call	801014 <__adddf3>
  8062f8:	180b883a 	mov	r5,r3
  8062fc:	1009883a 	mov	r4,r2
  806300:	800d883a 	mov	r6,r16
  806304:	880f883a 	mov	r7,r17
  806308:	0806c880 	call	806c88 <__ltdf2>
  80630c:	103cab16 	blt	r2,zero,8055bc <_dtoa_r+0x6dc>
  806310:	0009883a 	mov	r4,zero
  806314:	980b883a 	mov	r5,r19
  806318:	b80f883a 	mov	r7,r23
  80631c:	b00d883a 	mov	r6,r22
  806320:	0800f940 	call	800f94 <__subdf3>
  806324:	180b883a 	mov	r5,r3
  806328:	880f883a 	mov	r7,r17
  80632c:	1009883a 	mov	r4,r2
  806330:	800d883a 	mov	r6,r16
  806334:	0806b780 	call	806b78 <__gtdf2>
  806338:	00bc470e 	bge	zero,r2,805458 <_dtoa_r+0x578>
  80633c:	00c00c04 	movi	r3,48
  806340:	e73fffc4 	addi	fp,fp,-1
  806344:	e0800007 	ldb	r2,0(fp)
  806348:	10fffd26 	beq	r2,r3,806340 <_dtoa_r+0x1460>
  80634c:	d9800417 	ldw	r6,16(sp)
  806350:	e7000044 	addi	fp,fp,1
  806354:	d9800d15 	stw	r6,52(sp)
  806358:	003cab06 	br	805608 <_dtoa_r+0x728>
  80635c:	d8c00f17 	ldw	r3,60(sp)
  806360:	d9001117 	ldw	r4,68(sp)
  806364:	20e1c83a 	sub	r16,r4,r3
  806368:	0007883a 	mov	r3,zero
  80636c:	003d9b06 	br	8059dc <_dtoa_r+0xafc>
  806370:	00800e44 	movi	r2,57
  806374:	b0800005 	stb	r2,0(r22)
  806378:	b5800044 	addi	r22,r22,1
  80637c:	003dc106 	br	805a84 <_dtoa_r+0xba4>
  806380:	05800084 	movi	r22,2
  806384:	003bf706 	br	805364 <_dtoa_r+0x484>
  806388:	d9000f17 	ldw	r4,60(sp)
  80638c:	013c000e 	bge	zero,r4,805390 <_dtoa_r+0x4b0>
  806390:	d9800e17 	ldw	r6,56(sp)
  806394:	01bc300e 	bge	zero,r6,805458 <_dtoa_r+0x578>
  806398:	0005883a 	mov	r2,zero
  80639c:	00d00934 	movhi	r3,16420
  8063a0:	a80b883a 	mov	r5,r21
  8063a4:	180f883a 	mov	r7,r3
  8063a8:	a009883a 	mov	r4,r20
  8063ac:	100d883a 	mov	r6,r2
  8063b0:	08066a40 	call	8066a4 <__muldf3>
  8063b4:	b1000044 	addi	r4,r22,1
  8063b8:	1021883a 	mov	r16,r2
  8063bc:	1823883a 	mov	r17,r3
  8063c0:	0806d980 	call	806d98 <__floatsidf>
  8063c4:	880b883a 	mov	r5,r17
  8063c8:	8009883a 	mov	r4,r16
  8063cc:	180f883a 	mov	r7,r3
  8063d0:	100d883a 	mov	r6,r2
  8063d4:	08066a40 	call	8066a4 <__muldf3>
  8063d8:	0011883a 	mov	r8,zero
  8063dc:	02500734 	movhi	r9,16412
  8063e0:	180b883a 	mov	r5,r3
  8063e4:	480f883a 	mov	r7,r9
  8063e8:	1009883a 	mov	r4,r2
  8063ec:	400d883a 	mov	r6,r8
  8063f0:	08010140 	call	801014 <__adddf3>
  8063f4:	102d883a 	mov	r22,r2
  8063f8:	00bf3034 	movhi	r2,64704
  8063fc:	10ef883a 	add	r23,r2,r3
  806400:	d8800d17 	ldw	r2,52(sp)
  806404:	d8c00e17 	ldw	r3,56(sp)
  806408:	8029883a 	mov	r20,r16
  80640c:	10bfffc4 	addi	r2,r2,-1
  806410:	882b883a 	mov	r21,r17
  806414:	d8800415 	stw	r2,16(sp)
  806418:	d8c00315 	stw	r3,12(sp)
  80641c:	003e8306 	br	805e2c <_dtoa_r+0xf4c>
  806420:	d8800117 	ldw	r2,4(sp)
  806424:	dc001117 	ldw	r16,68(sp)
  806428:	dc801017 	ldw	r18,64(sp)
  80642c:	00c00d84 	movi	r3,54
  806430:	1887c83a 	sub	r3,r3,r2
  806434:	003d6906 	br	8059dc <_dtoa_r+0xafc>
  806438:	01800044 	movi	r6,1
  80643c:	3021883a 	mov	r16,r6
  806440:	d9800f15 	stw	r6,60(sp)
  806444:	d9802615 	stw	r6,152(sp)
  806448:	d9800e15 	stw	r6,56(sp)
  80644c:	003b9306 	br	80529c <_dtoa_r+0x3bc>
  806450:	b021883a 	mov	r16,r22
  806454:	dd800f15 	stw	r22,60(sp)
  806458:	003b9006 	br	80529c <_dtoa_r+0x3bc>
  80645c:	103e221e 	bne	r2,zero,805ce8 <_dtoa_r+0xe08>
  806460:	b880004c 	andi	r2,r23,1
  806464:	1005003a 	cmpeq	r2,r2,zero
  806468:	103e1f1e 	bne	r2,zero,805ce8 <_dtoa_r+0xe08>
  80646c:	003e1b06 	br	805cdc <_dtoa_r+0xdfc>
  806470:	d9001617 	ldw	r4,88(sp)
  806474:	980b883a 	mov	r5,r19
  806478:	01800284 	movi	r6,10
  80647c:	000f883a 	mov	r7,zero
  806480:	08042540 	call	804254 <__multadd>
  806484:	d8c00e17 	ldw	r3,56(sp)
  806488:	1027883a 	mov	r19,r2
  80648c:	d8c00f15 	stw	r3,60(sp)
  806490:	003cd306 	br	8057e0 <_dtoa_r+0x900>

00806494 <memmove>:
  806494:	2807883a 	mov	r3,r5
  806498:	2011883a 	mov	r8,r4
  80649c:	29000c2e 	bgeu	r5,r4,8064d0 <memmove+0x3c>
  8064a0:	298f883a 	add	r7,r5,r6
  8064a4:	21c00a2e 	bgeu	r4,r7,8064d0 <memmove+0x3c>
  8064a8:	30000726 	beq	r6,zero,8064c8 <memmove+0x34>
  8064ac:	2187883a 	add	r3,r4,r6
  8064b0:	198dc83a 	sub	r6,r3,r6
  8064b4:	39ffffc4 	addi	r7,r7,-1
  8064b8:	38800003 	ldbu	r2,0(r7)
  8064bc:	18ffffc4 	addi	r3,r3,-1
  8064c0:	18800005 	stb	r2,0(r3)
  8064c4:	19bffb1e 	bne	r3,r6,8064b4 <memmove+0x20>
  8064c8:	2005883a 	mov	r2,r4
  8064cc:	f800283a 	ret
  8064d0:	01c003c4 	movi	r7,15
  8064d4:	39800a36 	bltu	r7,r6,806500 <memmove+0x6c>
  8064d8:	303ffb26 	beq	r6,zero,8064c8 <memmove+0x34>
  8064dc:	400f883a 	mov	r7,r8
  8064e0:	320d883a 	add	r6,r6,r8
  8064e4:	28800003 	ldbu	r2,0(r5)
  8064e8:	29400044 	addi	r5,r5,1
  8064ec:	38800005 	stb	r2,0(r7)
  8064f0:	39c00044 	addi	r7,r7,1
  8064f4:	39bffb1e 	bne	r7,r6,8064e4 <memmove+0x50>
  8064f8:	2005883a 	mov	r2,r4
  8064fc:	f800283a 	ret
  806500:	1904b03a 	or	r2,r3,r4
  806504:	108000cc 	andi	r2,r2,3
  806508:	103ff31e 	bne	r2,zero,8064d8 <memmove+0x44>
  80650c:	3811883a 	mov	r8,r7
  806510:	180b883a 	mov	r5,r3
  806514:	200f883a 	mov	r7,r4
  806518:	28c00017 	ldw	r3,0(r5)
  80651c:	31bffc04 	addi	r6,r6,-16
  806520:	38c00015 	stw	r3,0(r7)
  806524:	28800117 	ldw	r2,4(r5)
  806528:	38800115 	stw	r2,4(r7)
  80652c:	28c00217 	ldw	r3,8(r5)
  806530:	38c00215 	stw	r3,8(r7)
  806534:	28800317 	ldw	r2,12(r5)
  806538:	29400404 	addi	r5,r5,16
  80653c:	38800315 	stw	r2,12(r7)
  806540:	39c00404 	addi	r7,r7,16
  806544:	41bff436 	bltu	r8,r6,806518 <memmove+0x84>
  806548:	008000c4 	movi	r2,3
  80654c:	1180072e 	bgeu	r2,r6,80656c <memmove+0xd8>
  806550:	1007883a 	mov	r3,r2
  806554:	28800017 	ldw	r2,0(r5)
  806558:	31bfff04 	addi	r6,r6,-4
  80655c:	29400104 	addi	r5,r5,4
  806560:	38800015 	stw	r2,0(r7)
  806564:	39c00104 	addi	r7,r7,4
  806568:	19bffa36 	bltu	r3,r6,806554 <memmove+0xc0>
  80656c:	3811883a 	mov	r8,r7
  806570:	003fd906 	br	8064d8 <memmove+0x44>

00806574 <memset>:
  806574:	008000c4 	movi	r2,3
  806578:	29403fcc 	andi	r5,r5,255
  80657c:	2007883a 	mov	r3,r4
  806580:	1180022e 	bgeu	r2,r6,80658c <memset+0x18>
  806584:	2084703a 	and	r2,r4,r2
  806588:	10000826 	beq	r2,zero,8065ac <memset+0x38>
  80658c:	30000526 	beq	r6,zero,8065a4 <memset+0x30>
  806590:	2805883a 	mov	r2,r5
  806594:	30cd883a 	add	r6,r6,r3
  806598:	18800005 	stb	r2,0(r3)
  80659c:	18c00044 	addi	r3,r3,1
  8065a0:	19bffd1e 	bne	r3,r6,806598 <memset+0x24>
  8065a4:	2005883a 	mov	r2,r4
  8065a8:	f800283a 	ret
  8065ac:	2804923a 	slli	r2,r5,8
  8065b0:	020003c4 	movi	r8,15
  8065b4:	200f883a 	mov	r7,r4
  8065b8:	2884b03a 	or	r2,r5,r2
  8065bc:	1006943a 	slli	r3,r2,16
  8065c0:	10c6b03a 	or	r3,r2,r3
  8065c4:	41800a2e 	bgeu	r8,r6,8065f0 <memset+0x7c>
  8065c8:	4005883a 	mov	r2,r8
  8065cc:	31bffc04 	addi	r6,r6,-16
  8065d0:	38c00015 	stw	r3,0(r7)
  8065d4:	38c00115 	stw	r3,4(r7)
  8065d8:	38c00215 	stw	r3,8(r7)
  8065dc:	38c00315 	stw	r3,12(r7)
  8065e0:	39c00404 	addi	r7,r7,16
  8065e4:	11bff936 	bltu	r2,r6,8065cc <memset+0x58>
  8065e8:	008000c4 	movi	r2,3
  8065ec:	1180052e 	bgeu	r2,r6,806604 <memset+0x90>
  8065f0:	31bfff04 	addi	r6,r6,-4
  8065f4:	008000c4 	movi	r2,3
  8065f8:	38c00015 	stw	r3,0(r7)
  8065fc:	39c00104 	addi	r7,r7,4
  806600:	11bffb36 	bltu	r2,r6,8065f0 <memset+0x7c>
  806604:	3807883a 	mov	r3,r7
  806608:	003fe006 	br	80658c <memset+0x18>

0080660c <__muldi3>:
  80660c:	2011883a 	mov	r8,r4
  806610:	427fffcc 	andi	r9,r8,65535
  806614:	4018d43a 	srli	r12,r8,16
  806618:	32bfffcc 	andi	r10,r6,65535
  80661c:	3016d43a 	srli	r11,r6,16
  806620:	4a85383a 	mul	r2,r9,r10
  806624:	6295383a 	mul	r10,r12,r10
  806628:	4ad3383a 	mul	r9,r9,r11
  80662c:	113fffcc 	andi	r4,r2,65535
  806630:	1004d43a 	srli	r2,r2,16
  806634:	4a93883a 	add	r9,r9,r10
  806638:	3807883a 	mov	r3,r7
  80663c:	1245883a 	add	r2,r2,r9
  806640:	280f883a 	mov	r7,r5
  806644:	180b883a 	mov	r5,r3
  806648:	1006943a 	slli	r3,r2,16
  80664c:	defffd04 	addi	sp,sp,-12
  806650:	dc800215 	stw	r18,8(sp)
  806654:	1907883a 	add	r3,r3,r4
  806658:	dc400115 	stw	r17,4(sp)
  80665c:	dc000015 	stw	r16,0(sp)
  806660:	4165383a 	mul	r18,r8,r5
  806664:	31e3383a 	mul	r17,r6,r7
  806668:	1012d43a 	srli	r9,r2,16
  80666c:	62d9383a 	mul	r12,r12,r11
  806670:	181f883a 	mov	r15,r3
  806674:	1280022e 	bgeu	r2,r10,806680 <__muldi3+0x74>
  806678:	00800074 	movhi	r2,1
  80667c:	6099883a 	add	r12,r12,r2
  806680:	624d883a 	add	r6,r12,r9
  806684:	9187883a 	add	r3,r18,r6
  806688:	88c7883a 	add	r3,r17,r3
  80668c:	7805883a 	mov	r2,r15
  806690:	dc800217 	ldw	r18,8(sp)
  806694:	dc400117 	ldw	r17,4(sp)
  806698:	dc000017 	ldw	r16,0(sp)
  80669c:	dec00304 	addi	sp,sp,12
  8066a0:	f800283a 	ret

008066a4 <__muldf3>:
  8066a4:	deffe004 	addi	sp,sp,-128
  8066a8:	dc401815 	stw	r17,96(sp)
  8066ac:	dc400404 	addi	r17,sp,16
  8066b0:	2011883a 	mov	r8,r4
  8066b4:	2813883a 	mov	r9,r5
  8066b8:	dc001715 	stw	r16,92(sp)
  8066bc:	d809883a 	mov	r4,sp
  8066c0:	880b883a 	mov	r5,r17
  8066c4:	dc000904 	addi	r16,sp,36
  8066c8:	dfc01f15 	stw	ra,124(sp)
  8066cc:	da400115 	stw	r9,4(sp)
  8066d0:	d9c00315 	stw	r7,12(sp)
  8066d4:	da000015 	stw	r8,0(sp)
  8066d8:	d9800215 	stw	r6,8(sp)
  8066dc:	ddc01e15 	stw	r23,120(sp)
  8066e0:	dd801d15 	stw	r22,116(sp)
  8066e4:	dd401c15 	stw	r21,112(sp)
  8066e8:	dd001b15 	stw	r20,108(sp)
  8066ec:	dcc01a15 	stw	r19,104(sp)
  8066f0:	dc801915 	stw	r18,100(sp)
  8066f4:	0801a680 	call	801a68 <__unpack_d>
  8066f8:	d9000204 	addi	r4,sp,8
  8066fc:	800b883a 	mov	r5,r16
  806700:	0801a680 	call	801a68 <__unpack_d>
  806704:	d9000417 	ldw	r4,16(sp)
  806708:	00800044 	movi	r2,1
  80670c:	1100102e 	bgeu	r2,r4,806750 <__muldf3+0xac>
  806710:	d8c00917 	ldw	r3,36(sp)
  806714:	10c0062e 	bgeu	r2,r3,806730 <__muldf3+0x8c>
  806718:	00800104 	movi	r2,4
  80671c:	20800a26 	beq	r4,r2,806748 <__muldf3+0xa4>
  806720:	1880cc26 	beq	r3,r2,806a54 <__muldf3+0x3b0>
  806724:	00800084 	movi	r2,2
  806728:	20800926 	beq	r4,r2,806750 <__muldf3+0xac>
  80672c:	1880191e 	bne	r3,r2,806794 <__muldf3+0xf0>
  806730:	d8c00a17 	ldw	r3,40(sp)
  806734:	d8800517 	ldw	r2,20(sp)
  806738:	8009883a 	mov	r4,r16
  80673c:	10c4c03a 	cmpne	r2,r2,r3
  806740:	d8800a15 	stw	r2,40(sp)
  806744:	00000706 	br	806764 <__muldf3+0xc0>
  806748:	00800084 	movi	r2,2
  80674c:	1880c326 	beq	r3,r2,806a5c <__muldf3+0x3b8>
  806750:	d8800517 	ldw	r2,20(sp)
  806754:	d8c00a17 	ldw	r3,40(sp)
  806758:	8809883a 	mov	r4,r17
  80675c:	10c4c03a 	cmpne	r2,r2,r3
  806760:	d8800515 	stw	r2,20(sp)
  806764:	08017540 	call	801754 <__pack_d>
  806768:	dfc01f17 	ldw	ra,124(sp)
  80676c:	ddc01e17 	ldw	r23,120(sp)
  806770:	dd801d17 	ldw	r22,116(sp)
  806774:	dd401c17 	ldw	r21,112(sp)
  806778:	dd001b17 	ldw	r20,108(sp)
  80677c:	dcc01a17 	ldw	r19,104(sp)
  806780:	dc801917 	ldw	r18,100(sp)
  806784:	dc401817 	ldw	r17,96(sp)
  806788:	dc001717 	ldw	r16,92(sp)
  80678c:	dec02004 	addi	sp,sp,128
  806790:	f800283a 	ret
  806794:	dd800717 	ldw	r22,28(sp)
  806798:	dc800c17 	ldw	r18,48(sp)
  80679c:	002b883a 	mov	r21,zero
  8067a0:	0023883a 	mov	r17,zero
  8067a4:	a80b883a 	mov	r5,r21
  8067a8:	b00d883a 	mov	r6,r22
  8067ac:	880f883a 	mov	r7,r17
  8067b0:	ddc00817 	ldw	r23,32(sp)
  8067b4:	dcc00d17 	ldw	r19,52(sp)
  8067b8:	9009883a 	mov	r4,r18
  8067bc:	080660c0 	call	80660c <__muldi3>
  8067c0:	001b883a 	mov	r13,zero
  8067c4:	680f883a 	mov	r7,r13
  8067c8:	b009883a 	mov	r4,r22
  8067cc:	000b883a 	mov	r5,zero
  8067d0:	980d883a 	mov	r6,r19
  8067d4:	b82d883a 	mov	r22,r23
  8067d8:	002f883a 	mov	r23,zero
  8067dc:	db401615 	stw	r13,88(sp)
  8067e0:	d8801315 	stw	r2,76(sp)
  8067e4:	d8c01415 	stw	r3,80(sp)
  8067e8:	dcc01515 	stw	r19,84(sp)
  8067ec:	080660c0 	call	80660c <__muldi3>
  8067f0:	b00d883a 	mov	r6,r22
  8067f4:	000b883a 	mov	r5,zero
  8067f8:	9009883a 	mov	r4,r18
  8067fc:	b80f883a 	mov	r7,r23
  806800:	1021883a 	mov	r16,r2
  806804:	1823883a 	mov	r17,r3
  806808:	080660c0 	call	80660c <__muldi3>
  80680c:	8085883a 	add	r2,r16,r2
  806810:	140d803a 	cmpltu	r6,r2,r16
  806814:	88c7883a 	add	r3,r17,r3
  806818:	30cd883a 	add	r6,r6,r3
  80681c:	1029883a 	mov	r20,r2
  806820:	302b883a 	mov	r21,r6
  806824:	da801317 	ldw	r10,76(sp)
  806828:	dac01417 	ldw	r11,80(sp)
  80682c:	db001517 	ldw	r12,84(sp)
  806830:	db401617 	ldw	r13,88(sp)
  806834:	3440612e 	bgeu	r6,r17,8069bc <__muldf3+0x318>
  806838:	0009883a 	mov	r4,zero
  80683c:	5105883a 	add	r2,r10,r4
  806840:	128d803a 	cmpltu	r6,r2,r10
  806844:	5d07883a 	add	r3,r11,r20
  806848:	30cd883a 	add	r6,r6,r3
  80684c:	0021883a 	mov	r16,zero
  806850:	04400044 	movi	r17,1
  806854:	1025883a 	mov	r18,r2
  806858:	3027883a 	mov	r19,r6
  80685c:	32c06236 	bltu	r6,r11,8069e8 <__muldf3+0x344>
  806860:	59807a26 	beq	r11,r6,806a4c <__muldf3+0x3a8>
  806864:	680b883a 	mov	r5,r13
  806868:	b80f883a 	mov	r7,r23
  80686c:	6009883a 	mov	r4,r12
  806870:	b00d883a 	mov	r6,r22
  806874:	080660c0 	call	80660c <__muldi3>
  806878:	1009883a 	mov	r4,r2
  80687c:	000f883a 	mov	r7,zero
  806880:	1545883a 	add	r2,r2,r21
  806884:	1111803a 	cmpltu	r8,r2,r4
  806888:	19c7883a 	add	r3,r3,r7
  80688c:	40c7883a 	add	r3,r8,r3
  806890:	88cb883a 	add	r5,r17,r3
  806894:	d8c00617 	ldw	r3,24(sp)
  806898:	8089883a 	add	r4,r16,r2
  80689c:	d8800b17 	ldw	r2,44(sp)
  8068a0:	18c00104 	addi	r3,r3,4
  8068a4:	240d803a 	cmpltu	r6,r4,r16
  8068a8:	10c7883a 	add	r3,r2,r3
  8068ac:	2013883a 	mov	r9,r4
  8068b0:	d8800a17 	ldw	r2,40(sp)
  8068b4:	d9000517 	ldw	r4,20(sp)
  8068b8:	314d883a 	add	r6,r6,r5
  8068bc:	3015883a 	mov	r10,r6
  8068c0:	2088c03a 	cmpne	r4,r4,r2
  8068c4:	00880034 	movhi	r2,8192
  8068c8:	10bfffc4 	addi	r2,r2,-1
  8068cc:	d9000f15 	stw	r4,60(sp)
  8068d0:	d8c01015 	stw	r3,64(sp)
  8068d4:	1180162e 	bgeu	r2,r6,806930 <__muldf3+0x28c>
  8068d8:	1811883a 	mov	r8,r3
  8068dc:	101f883a 	mov	r15,r2
  8068e0:	980497fa 	slli	r2,r19,31
  8068e4:	9016d07a 	srli	r11,r18,1
  8068e8:	500697fa 	slli	r3,r10,31
  8068ec:	480cd07a 	srli	r6,r9,1
  8068f0:	500ed07a 	srli	r7,r10,1
  8068f4:	12d6b03a 	or	r11,r2,r11
  8068f8:	00800044 	movi	r2,1
  8068fc:	198cb03a 	or	r6,r3,r6
  806900:	4888703a 	and	r4,r9,r2
  806904:	9818d07a 	srli	r12,r19,1
  806908:	001b883a 	mov	r13,zero
  80690c:	03a00034 	movhi	r14,32768
  806910:	3013883a 	mov	r9,r6
  806914:	3815883a 	mov	r10,r7
  806918:	4091883a 	add	r8,r8,r2
  80691c:	20000226 	beq	r4,zero,806928 <__muldf3+0x284>
  806920:	5b64b03a 	or	r18,r11,r13
  806924:	63a6b03a 	or	r19,r12,r14
  806928:	7abfed36 	bltu	r15,r10,8068e0 <__muldf3+0x23c>
  80692c:	da001015 	stw	r8,64(sp)
  806930:	00840034 	movhi	r2,4096
  806934:	10bfffc4 	addi	r2,r2,-1
  806938:	12801436 	bltu	r2,r10,80698c <__muldf3+0x2e8>
  80693c:	da001017 	ldw	r8,64(sp)
  806940:	101f883a 	mov	r15,r2
  806944:	4a45883a 	add	r2,r9,r9
  806948:	124d803a 	cmpltu	r6,r2,r9
  80694c:	5287883a 	add	r3,r10,r10
  806950:	9497883a 	add	r11,r18,r18
  806954:	5c8f803a 	cmpltu	r7,r11,r18
  806958:	9cd9883a 	add	r12,r19,r19
  80695c:	01000044 	movi	r4,1
  806960:	30cd883a 	add	r6,r6,r3
  806964:	3b0f883a 	add	r7,r7,r12
  806968:	423fffc4 	addi	r8,r8,-1
  80696c:	1013883a 	mov	r9,r2
  806970:	3015883a 	mov	r10,r6
  806974:	111ab03a 	or	r13,r2,r4
  806978:	98003016 	blt	r19,zero,806a3c <__muldf3+0x398>
  80697c:	5825883a 	mov	r18,r11
  806980:	3827883a 	mov	r19,r7
  806984:	7abfef2e 	bgeu	r15,r10,806944 <__muldf3+0x2a0>
  806988:	da001015 	stw	r8,64(sp)
  80698c:	00803fc4 	movi	r2,255
  806990:	488e703a 	and	r7,r9,r2
  806994:	00802004 	movi	r2,128
  806998:	0007883a 	mov	r3,zero
  80699c:	0011883a 	mov	r8,zero
  8069a0:	38801826 	beq	r7,r2,806a04 <__muldf3+0x360>
  8069a4:	008000c4 	movi	r2,3
  8069a8:	d9000e04 	addi	r4,sp,56
  8069ac:	da801215 	stw	r10,72(sp)
  8069b0:	d8800e15 	stw	r2,56(sp)
  8069b4:	da401115 	stw	r9,68(sp)
  8069b8:	003f6a06 	br	806764 <__muldf3+0xc0>
  8069bc:	89802126 	beq	r17,r6,806a44 <__muldf3+0x3a0>
  8069c0:	0009883a 	mov	r4,zero
  8069c4:	5105883a 	add	r2,r10,r4
  8069c8:	128d803a 	cmpltu	r6,r2,r10
  8069cc:	5d07883a 	add	r3,r11,r20
  8069d0:	30cd883a 	add	r6,r6,r3
  8069d4:	0021883a 	mov	r16,zero
  8069d8:	0023883a 	mov	r17,zero
  8069dc:	1025883a 	mov	r18,r2
  8069e0:	3027883a 	mov	r19,r6
  8069e4:	32ff9e2e 	bgeu	r6,r11,806860 <__muldf3+0x1bc>
  8069e8:	00800044 	movi	r2,1
  8069ec:	8089883a 	add	r4,r16,r2
  8069f0:	240d803a 	cmpltu	r6,r4,r16
  8069f4:	344d883a 	add	r6,r6,r17
  8069f8:	2021883a 	mov	r16,r4
  8069fc:	3023883a 	mov	r17,r6
  806a00:	003f9806 	br	806864 <__muldf3+0x1c0>
  806a04:	403fe71e 	bne	r8,zero,8069a4 <__muldf3+0x300>
  806a08:	01004004 	movi	r4,256
  806a0c:	4904703a 	and	r2,r9,r4
  806a10:	10c4b03a 	or	r2,r2,r3
  806a14:	103fe31e 	bne	r2,zero,8069a4 <__muldf3+0x300>
  806a18:	94c4b03a 	or	r2,r18,r19
  806a1c:	103fe126 	beq	r2,zero,8069a4 <__muldf3+0x300>
  806a20:	49c5883a 	add	r2,r9,r7
  806a24:	1251803a 	cmpltu	r8,r2,r9
  806a28:	4291883a 	add	r8,r8,r10
  806a2c:	013fc004 	movi	r4,-256
  806a30:	1112703a 	and	r9,r2,r4
  806a34:	4015883a 	mov	r10,r8
  806a38:	003fda06 	br	8069a4 <__muldf3+0x300>
  806a3c:	6813883a 	mov	r9,r13
  806a40:	003fce06 	br	80697c <__muldf3+0x2d8>
  806a44:	143f7c36 	bltu	r2,r16,806838 <__muldf3+0x194>
  806a48:	003fdd06 	br	8069c0 <__muldf3+0x31c>
  806a4c:	12bf852e 	bgeu	r2,r10,806864 <__muldf3+0x1c0>
  806a50:	003fe506 	br	8069e8 <__muldf3+0x344>
  806a54:	00800084 	movi	r2,2
  806a58:	20bf351e 	bne	r4,r2,806730 <__muldf3+0x8c>
  806a5c:	01002074 	movhi	r4,129
  806a60:	21264c04 	addi	r4,r4,-26320
  806a64:	003f3f06 	br	806764 <__muldf3+0xc0>

00806a68 <__eqdf2>:
  806a68:	deffef04 	addi	sp,sp,-68
  806a6c:	dc400f15 	stw	r17,60(sp)
  806a70:	dc400404 	addi	r17,sp,16
  806a74:	2005883a 	mov	r2,r4
  806a78:	2807883a 	mov	r3,r5
  806a7c:	dc000e15 	stw	r16,56(sp)
  806a80:	d809883a 	mov	r4,sp
  806a84:	880b883a 	mov	r5,r17
  806a88:	dc000904 	addi	r16,sp,36
  806a8c:	d8c00115 	stw	r3,4(sp)
  806a90:	d8800015 	stw	r2,0(sp)
  806a94:	d9800215 	stw	r6,8(sp)
  806a98:	dfc01015 	stw	ra,64(sp)
  806a9c:	d9c00315 	stw	r7,12(sp)
  806aa0:	0801a680 	call	801a68 <__unpack_d>
  806aa4:	d9000204 	addi	r4,sp,8
  806aa8:	800b883a 	mov	r5,r16
  806aac:	0801a680 	call	801a68 <__unpack_d>
  806ab0:	d8800417 	ldw	r2,16(sp)
  806ab4:	00c00044 	movi	r3,1
  806ab8:	180d883a 	mov	r6,r3
  806abc:	1880062e 	bgeu	r3,r2,806ad8 <__eqdf2+0x70>
  806ac0:	d8800917 	ldw	r2,36(sp)
  806ac4:	8809883a 	mov	r4,r17
  806ac8:	800b883a 	mov	r5,r16
  806acc:	1880022e 	bgeu	r3,r2,806ad8 <__eqdf2+0x70>
  806ad0:	08070b40 	call	8070b4 <__fpcmp_parts_d>
  806ad4:	100d883a 	mov	r6,r2
  806ad8:	3005883a 	mov	r2,r6
  806adc:	dfc01017 	ldw	ra,64(sp)
  806ae0:	dc400f17 	ldw	r17,60(sp)
  806ae4:	dc000e17 	ldw	r16,56(sp)
  806ae8:	dec01104 	addi	sp,sp,68
  806aec:	f800283a 	ret

00806af0 <__nedf2>:
  806af0:	deffef04 	addi	sp,sp,-68
  806af4:	dc400f15 	stw	r17,60(sp)
  806af8:	dc400404 	addi	r17,sp,16
  806afc:	2005883a 	mov	r2,r4
  806b00:	2807883a 	mov	r3,r5
  806b04:	dc000e15 	stw	r16,56(sp)
  806b08:	d809883a 	mov	r4,sp
  806b0c:	880b883a 	mov	r5,r17
  806b10:	dc000904 	addi	r16,sp,36
  806b14:	d8c00115 	stw	r3,4(sp)
  806b18:	d8800015 	stw	r2,0(sp)
  806b1c:	d9800215 	stw	r6,8(sp)
  806b20:	dfc01015 	stw	ra,64(sp)
  806b24:	d9c00315 	stw	r7,12(sp)
  806b28:	0801a680 	call	801a68 <__unpack_d>
  806b2c:	d9000204 	addi	r4,sp,8
  806b30:	800b883a 	mov	r5,r16
  806b34:	0801a680 	call	801a68 <__unpack_d>
  806b38:	d8800417 	ldw	r2,16(sp)
  806b3c:	00c00044 	movi	r3,1
  806b40:	180d883a 	mov	r6,r3
  806b44:	1880062e 	bgeu	r3,r2,806b60 <__nedf2+0x70>
  806b48:	d8800917 	ldw	r2,36(sp)
  806b4c:	8809883a 	mov	r4,r17
  806b50:	800b883a 	mov	r5,r16
  806b54:	1880022e 	bgeu	r3,r2,806b60 <__nedf2+0x70>
  806b58:	08070b40 	call	8070b4 <__fpcmp_parts_d>
  806b5c:	100d883a 	mov	r6,r2
  806b60:	3005883a 	mov	r2,r6
  806b64:	dfc01017 	ldw	ra,64(sp)
  806b68:	dc400f17 	ldw	r17,60(sp)
  806b6c:	dc000e17 	ldw	r16,56(sp)
  806b70:	dec01104 	addi	sp,sp,68
  806b74:	f800283a 	ret

00806b78 <__gtdf2>:
  806b78:	deffef04 	addi	sp,sp,-68
  806b7c:	dc400f15 	stw	r17,60(sp)
  806b80:	dc400404 	addi	r17,sp,16
  806b84:	2005883a 	mov	r2,r4
  806b88:	2807883a 	mov	r3,r5
  806b8c:	dc000e15 	stw	r16,56(sp)
  806b90:	d809883a 	mov	r4,sp
  806b94:	880b883a 	mov	r5,r17
  806b98:	dc000904 	addi	r16,sp,36
  806b9c:	d8c00115 	stw	r3,4(sp)
  806ba0:	d8800015 	stw	r2,0(sp)
  806ba4:	d9800215 	stw	r6,8(sp)
  806ba8:	dfc01015 	stw	ra,64(sp)
  806bac:	d9c00315 	stw	r7,12(sp)
  806bb0:	0801a680 	call	801a68 <__unpack_d>
  806bb4:	d9000204 	addi	r4,sp,8
  806bb8:	800b883a 	mov	r5,r16
  806bbc:	0801a680 	call	801a68 <__unpack_d>
  806bc0:	d8800417 	ldw	r2,16(sp)
  806bc4:	00c00044 	movi	r3,1
  806bc8:	01bfffc4 	movi	r6,-1
  806bcc:	1880062e 	bgeu	r3,r2,806be8 <__gtdf2+0x70>
  806bd0:	d8800917 	ldw	r2,36(sp)
  806bd4:	8809883a 	mov	r4,r17
  806bd8:	800b883a 	mov	r5,r16
  806bdc:	1880022e 	bgeu	r3,r2,806be8 <__gtdf2+0x70>
  806be0:	08070b40 	call	8070b4 <__fpcmp_parts_d>
  806be4:	100d883a 	mov	r6,r2
  806be8:	3005883a 	mov	r2,r6
  806bec:	dfc01017 	ldw	ra,64(sp)
  806bf0:	dc400f17 	ldw	r17,60(sp)
  806bf4:	dc000e17 	ldw	r16,56(sp)
  806bf8:	dec01104 	addi	sp,sp,68
  806bfc:	f800283a 	ret

00806c00 <__gedf2>:
  806c00:	deffef04 	addi	sp,sp,-68
  806c04:	dc400f15 	stw	r17,60(sp)
  806c08:	dc400404 	addi	r17,sp,16
  806c0c:	2005883a 	mov	r2,r4
  806c10:	2807883a 	mov	r3,r5
  806c14:	dc000e15 	stw	r16,56(sp)
  806c18:	d809883a 	mov	r4,sp
  806c1c:	880b883a 	mov	r5,r17
  806c20:	dc000904 	addi	r16,sp,36
  806c24:	d8c00115 	stw	r3,4(sp)
  806c28:	d8800015 	stw	r2,0(sp)
  806c2c:	d9800215 	stw	r6,8(sp)
  806c30:	dfc01015 	stw	ra,64(sp)
  806c34:	d9c00315 	stw	r7,12(sp)
  806c38:	0801a680 	call	801a68 <__unpack_d>
  806c3c:	d9000204 	addi	r4,sp,8
  806c40:	800b883a 	mov	r5,r16
  806c44:	0801a680 	call	801a68 <__unpack_d>
  806c48:	d8800417 	ldw	r2,16(sp)
  806c4c:	00c00044 	movi	r3,1
  806c50:	01bfffc4 	movi	r6,-1
  806c54:	1880062e 	bgeu	r3,r2,806c70 <__gedf2+0x70>
  806c58:	d8800917 	ldw	r2,36(sp)
  806c5c:	8809883a 	mov	r4,r17
  806c60:	800b883a 	mov	r5,r16
  806c64:	1880022e 	bgeu	r3,r2,806c70 <__gedf2+0x70>
  806c68:	08070b40 	call	8070b4 <__fpcmp_parts_d>
  806c6c:	100d883a 	mov	r6,r2
  806c70:	3005883a 	mov	r2,r6
  806c74:	dfc01017 	ldw	ra,64(sp)
  806c78:	dc400f17 	ldw	r17,60(sp)
  806c7c:	dc000e17 	ldw	r16,56(sp)
  806c80:	dec01104 	addi	sp,sp,68
  806c84:	f800283a 	ret

00806c88 <__ltdf2>:
  806c88:	deffef04 	addi	sp,sp,-68
  806c8c:	dc400f15 	stw	r17,60(sp)
  806c90:	dc400404 	addi	r17,sp,16
  806c94:	2005883a 	mov	r2,r4
  806c98:	2807883a 	mov	r3,r5
  806c9c:	dc000e15 	stw	r16,56(sp)
  806ca0:	d809883a 	mov	r4,sp
  806ca4:	880b883a 	mov	r5,r17
  806ca8:	dc000904 	addi	r16,sp,36
  806cac:	d8c00115 	stw	r3,4(sp)
  806cb0:	d8800015 	stw	r2,0(sp)
  806cb4:	d9800215 	stw	r6,8(sp)
  806cb8:	dfc01015 	stw	ra,64(sp)
  806cbc:	d9c00315 	stw	r7,12(sp)
  806cc0:	0801a680 	call	801a68 <__unpack_d>
  806cc4:	d9000204 	addi	r4,sp,8
  806cc8:	800b883a 	mov	r5,r16
  806ccc:	0801a680 	call	801a68 <__unpack_d>
  806cd0:	d8800417 	ldw	r2,16(sp)
  806cd4:	00c00044 	movi	r3,1
  806cd8:	180d883a 	mov	r6,r3
  806cdc:	1880062e 	bgeu	r3,r2,806cf8 <__ltdf2+0x70>
  806ce0:	d8800917 	ldw	r2,36(sp)
  806ce4:	8809883a 	mov	r4,r17
  806ce8:	800b883a 	mov	r5,r16
  806cec:	1880022e 	bgeu	r3,r2,806cf8 <__ltdf2+0x70>
  806cf0:	08070b40 	call	8070b4 <__fpcmp_parts_d>
  806cf4:	100d883a 	mov	r6,r2
  806cf8:	3005883a 	mov	r2,r6
  806cfc:	dfc01017 	ldw	ra,64(sp)
  806d00:	dc400f17 	ldw	r17,60(sp)
  806d04:	dc000e17 	ldw	r16,56(sp)
  806d08:	dec01104 	addi	sp,sp,68
  806d0c:	f800283a 	ret

00806d10 <__ledf2>:
  806d10:	deffef04 	addi	sp,sp,-68
  806d14:	dc400f15 	stw	r17,60(sp)
  806d18:	dc400404 	addi	r17,sp,16
  806d1c:	2005883a 	mov	r2,r4
  806d20:	2807883a 	mov	r3,r5
  806d24:	dc000e15 	stw	r16,56(sp)
  806d28:	d809883a 	mov	r4,sp
  806d2c:	880b883a 	mov	r5,r17
  806d30:	dc000904 	addi	r16,sp,36
  806d34:	d8c00115 	stw	r3,4(sp)
  806d38:	d8800015 	stw	r2,0(sp)
  806d3c:	d9800215 	stw	r6,8(sp)
  806d40:	dfc01015 	stw	ra,64(sp)
  806d44:	d9c00315 	stw	r7,12(sp)
  806d48:	0801a680 	call	801a68 <__unpack_d>
  806d4c:	d9000204 	addi	r4,sp,8
  806d50:	800b883a 	mov	r5,r16
  806d54:	0801a680 	call	801a68 <__unpack_d>
  806d58:	d8800417 	ldw	r2,16(sp)
  806d5c:	00c00044 	movi	r3,1
  806d60:	180d883a 	mov	r6,r3
  806d64:	1880062e 	bgeu	r3,r2,806d80 <__ledf2+0x70>
  806d68:	d8800917 	ldw	r2,36(sp)
  806d6c:	8809883a 	mov	r4,r17
  806d70:	800b883a 	mov	r5,r16
  806d74:	1880022e 	bgeu	r3,r2,806d80 <__ledf2+0x70>
  806d78:	08070b40 	call	8070b4 <__fpcmp_parts_d>
  806d7c:	100d883a 	mov	r6,r2
  806d80:	3005883a 	mov	r2,r6
  806d84:	dfc01017 	ldw	ra,64(sp)
  806d88:	dc400f17 	ldw	r17,60(sp)
  806d8c:	dc000e17 	ldw	r16,56(sp)
  806d90:	dec01104 	addi	sp,sp,68
  806d94:	f800283a 	ret

00806d98 <__floatsidf>:
  806d98:	2006d7fa 	srli	r3,r4,31
  806d9c:	defff604 	addi	sp,sp,-40
  806da0:	008000c4 	movi	r2,3
  806da4:	dfc00915 	stw	ra,36(sp)
  806da8:	dcc00815 	stw	r19,32(sp)
  806dac:	dc800715 	stw	r18,28(sp)
  806db0:	dc400615 	stw	r17,24(sp)
  806db4:	dc000515 	stw	r16,20(sp)
  806db8:	d8800015 	stw	r2,0(sp)
  806dbc:	d8c00115 	stw	r3,4(sp)
  806dc0:	20000f1e 	bne	r4,zero,806e00 <__floatsidf+0x68>
  806dc4:	00800084 	movi	r2,2
  806dc8:	d8800015 	stw	r2,0(sp)
  806dcc:	d809883a 	mov	r4,sp
  806dd0:	08017540 	call	801754 <__pack_d>
  806dd4:	1009883a 	mov	r4,r2
  806dd8:	180b883a 	mov	r5,r3
  806ddc:	2005883a 	mov	r2,r4
  806de0:	2807883a 	mov	r3,r5
  806de4:	dfc00917 	ldw	ra,36(sp)
  806de8:	dcc00817 	ldw	r19,32(sp)
  806dec:	dc800717 	ldw	r18,28(sp)
  806df0:	dc400617 	ldw	r17,24(sp)
  806df4:	dc000517 	ldw	r16,20(sp)
  806df8:	dec00a04 	addi	sp,sp,40
  806dfc:	f800283a 	ret
  806e00:	00800f04 	movi	r2,60
  806e04:	1807003a 	cmpeq	r3,r3,zero
  806e08:	d8800215 	stw	r2,8(sp)
  806e0c:	18001126 	beq	r3,zero,806e54 <__floatsidf+0xbc>
  806e10:	0027883a 	mov	r19,zero
  806e14:	2025883a 	mov	r18,r4
  806e18:	d9000315 	stw	r4,12(sp)
  806e1c:	dcc00415 	stw	r19,16(sp)
  806e20:	08014ac0 	call	8014ac <__clzsi2>
  806e24:	11000744 	addi	r4,r2,29
  806e28:	013fe80e 	bge	zero,r4,806dcc <__floatsidf+0x34>
  806e2c:	10bfff44 	addi	r2,r2,-3
  806e30:	10000c16 	blt	r2,zero,806e64 <__floatsidf+0xcc>
  806e34:	90a2983a 	sll	r17,r18,r2
  806e38:	0021883a 	mov	r16,zero
  806e3c:	d8800217 	ldw	r2,8(sp)
  806e40:	dc400415 	stw	r17,16(sp)
  806e44:	dc000315 	stw	r16,12(sp)
  806e48:	1105c83a 	sub	r2,r2,r4
  806e4c:	d8800215 	stw	r2,8(sp)
  806e50:	003fde06 	br	806dcc <__floatsidf+0x34>
  806e54:	00a00034 	movhi	r2,32768
  806e58:	20800a26 	beq	r4,r2,806e84 <__floatsidf+0xec>
  806e5c:	0109c83a 	sub	r4,zero,r4
  806e60:	003feb06 	br	806e10 <__floatsidf+0x78>
  806e64:	9006d07a 	srli	r3,r18,1
  806e68:	008007c4 	movi	r2,31
  806e6c:	1105c83a 	sub	r2,r2,r4
  806e70:	1886d83a 	srl	r3,r3,r2
  806e74:	9922983a 	sll	r17,r19,r4
  806e78:	9120983a 	sll	r16,r18,r4
  806e7c:	1c62b03a 	or	r17,r3,r17
  806e80:	003fee06 	br	806e3c <__floatsidf+0xa4>
  806e84:	0009883a 	mov	r4,zero
  806e88:	01707834 	movhi	r5,49632
  806e8c:	003fd306 	br	806ddc <__floatsidf+0x44>

00806e90 <__fixdfsi>:
  806e90:	defff804 	addi	sp,sp,-32
  806e94:	2005883a 	mov	r2,r4
  806e98:	2807883a 	mov	r3,r5
  806e9c:	d809883a 	mov	r4,sp
  806ea0:	d9400204 	addi	r5,sp,8
  806ea4:	d8c00115 	stw	r3,4(sp)
  806ea8:	d8800015 	stw	r2,0(sp)
  806eac:	dfc00715 	stw	ra,28(sp)
  806eb0:	0801a680 	call	801a68 <__unpack_d>
  806eb4:	d8c00217 	ldw	r3,8(sp)
  806eb8:	00800084 	movi	r2,2
  806ebc:	1880051e 	bne	r3,r2,806ed4 <__fixdfsi+0x44>
  806ec0:	0007883a 	mov	r3,zero
  806ec4:	1805883a 	mov	r2,r3
  806ec8:	dfc00717 	ldw	ra,28(sp)
  806ecc:	dec00804 	addi	sp,sp,32
  806ed0:	f800283a 	ret
  806ed4:	00800044 	movi	r2,1
  806ed8:	10fff92e 	bgeu	r2,r3,806ec0 <__fixdfsi+0x30>
  806edc:	00800104 	movi	r2,4
  806ee0:	18800426 	beq	r3,r2,806ef4 <__fixdfsi+0x64>
  806ee4:	d8c00417 	ldw	r3,16(sp)
  806ee8:	183ff516 	blt	r3,zero,806ec0 <__fixdfsi+0x30>
  806eec:	00800784 	movi	r2,30
  806ef0:	10c0080e 	bge	r2,r3,806f14 <__fixdfsi+0x84>
  806ef4:	d8800317 	ldw	r2,12(sp)
  806ef8:	1000121e 	bne	r2,zero,806f44 <__fixdfsi+0xb4>
  806efc:	00e00034 	movhi	r3,32768
  806f00:	18ffffc4 	addi	r3,r3,-1
  806f04:	1805883a 	mov	r2,r3
  806f08:	dfc00717 	ldw	ra,28(sp)
  806f0c:	dec00804 	addi	sp,sp,32
  806f10:	f800283a 	ret
  806f14:	00800f04 	movi	r2,60
  806f18:	10d1c83a 	sub	r8,r2,r3
  806f1c:	40bff804 	addi	r2,r8,-32
  806f20:	d9800517 	ldw	r6,20(sp)
  806f24:	d9c00617 	ldw	r7,24(sp)
  806f28:	10000816 	blt	r2,zero,806f4c <__fixdfsi+0xbc>
  806f2c:	3888d83a 	srl	r4,r7,r2
  806f30:	d8800317 	ldw	r2,12(sp)
  806f34:	2007883a 	mov	r3,r4
  806f38:	103fe226 	beq	r2,zero,806ec4 <__fixdfsi+0x34>
  806f3c:	0107c83a 	sub	r3,zero,r4
  806f40:	003fe006 	br	806ec4 <__fixdfsi+0x34>
  806f44:	00e00034 	movhi	r3,32768
  806f48:	003fde06 	br	806ec4 <__fixdfsi+0x34>
  806f4c:	39c7883a 	add	r3,r7,r7
  806f50:	008007c4 	movi	r2,31
  806f54:	1205c83a 	sub	r2,r2,r8
  806f58:	1886983a 	sll	r3,r3,r2
  806f5c:	3208d83a 	srl	r4,r6,r8
  806f60:	1908b03a 	or	r4,r3,r4
  806f64:	003ff206 	br	806f30 <__fixdfsi+0xa0>

00806f68 <udivmodsi4>:
  806f68:	29001b2e 	bgeu	r5,r4,806fd8 <udivmodsi4+0x70>
  806f6c:	28001a16 	blt	r5,zero,806fd8 <udivmodsi4+0x70>
  806f70:	00800044 	movi	r2,1
  806f74:	0007883a 	mov	r3,zero
  806f78:	01c007c4 	movi	r7,31
  806f7c:	00000306 	br	806f8c <udivmodsi4+0x24>
  806f80:	19c01326 	beq	r3,r7,806fd0 <udivmodsi4+0x68>
  806f84:	18c00044 	addi	r3,r3,1
  806f88:	28000416 	blt	r5,zero,806f9c <udivmodsi4+0x34>
  806f8c:	294b883a 	add	r5,r5,r5
  806f90:	1085883a 	add	r2,r2,r2
  806f94:	293ffa36 	bltu	r5,r4,806f80 <udivmodsi4+0x18>
  806f98:	10000d26 	beq	r2,zero,806fd0 <udivmodsi4+0x68>
  806f9c:	0007883a 	mov	r3,zero
  806fa0:	21400236 	bltu	r4,r5,806fac <udivmodsi4+0x44>
  806fa4:	2149c83a 	sub	r4,r4,r5
  806fa8:	1886b03a 	or	r3,r3,r2
  806fac:	1004d07a 	srli	r2,r2,1
  806fb0:	280ad07a 	srli	r5,r5,1
  806fb4:	103ffa1e 	bne	r2,zero,806fa0 <udivmodsi4+0x38>
  806fb8:	30000226 	beq	r6,zero,806fc4 <udivmodsi4+0x5c>
  806fbc:	2005883a 	mov	r2,r4
  806fc0:	f800283a 	ret
  806fc4:	1809883a 	mov	r4,r3
  806fc8:	2005883a 	mov	r2,r4
  806fcc:	f800283a 	ret
  806fd0:	0007883a 	mov	r3,zero
  806fd4:	003ff806 	br	806fb8 <udivmodsi4+0x50>
  806fd8:	00800044 	movi	r2,1
  806fdc:	0007883a 	mov	r3,zero
  806fe0:	003fef06 	br	806fa0 <udivmodsi4+0x38>

00806fe4 <__divsi3>:
  806fe4:	defffe04 	addi	sp,sp,-8
  806fe8:	dc000015 	stw	r16,0(sp)
  806fec:	dfc00115 	stw	ra,4(sp)
  806ff0:	0021883a 	mov	r16,zero
  806ff4:	20000c16 	blt	r4,zero,807028 <__divsi3+0x44>
  806ff8:	000d883a 	mov	r6,zero
  806ffc:	28000e16 	blt	r5,zero,807038 <__divsi3+0x54>
  807000:	0806f680 	call	806f68 <udivmodsi4>
  807004:	1007883a 	mov	r3,r2
  807008:	8005003a 	cmpeq	r2,r16,zero
  80700c:	1000011e 	bne	r2,zero,807014 <__divsi3+0x30>
  807010:	00c7c83a 	sub	r3,zero,r3
  807014:	1805883a 	mov	r2,r3
  807018:	dfc00117 	ldw	ra,4(sp)
  80701c:	dc000017 	ldw	r16,0(sp)
  807020:	dec00204 	addi	sp,sp,8
  807024:	f800283a 	ret
  807028:	0109c83a 	sub	r4,zero,r4
  80702c:	04000044 	movi	r16,1
  807030:	000d883a 	mov	r6,zero
  807034:	283ff20e 	bge	r5,zero,807000 <__divsi3+0x1c>
  807038:	014bc83a 	sub	r5,zero,r5
  80703c:	8021003a 	cmpeq	r16,r16,zero
  807040:	003fef06 	br	807000 <__divsi3+0x1c>

00807044 <__modsi3>:
  807044:	deffff04 	addi	sp,sp,-4
  807048:	dfc00015 	stw	ra,0(sp)
  80704c:	01800044 	movi	r6,1
  807050:	2807883a 	mov	r3,r5
  807054:	20000416 	blt	r4,zero,807068 <__modsi3+0x24>
  807058:	28000c16 	blt	r5,zero,80708c <__modsi3+0x48>
  80705c:	dfc00017 	ldw	ra,0(sp)
  807060:	dec00104 	addi	sp,sp,4
  807064:	0806f681 	jmpi	806f68 <udivmodsi4>
  807068:	0109c83a 	sub	r4,zero,r4
  80706c:	28000b16 	blt	r5,zero,80709c <__modsi3+0x58>
  807070:	180b883a 	mov	r5,r3
  807074:	01800044 	movi	r6,1
  807078:	0806f680 	call	806f68 <udivmodsi4>
  80707c:	0085c83a 	sub	r2,zero,r2
  807080:	dfc00017 	ldw	ra,0(sp)
  807084:	dec00104 	addi	sp,sp,4
  807088:	f800283a 	ret
  80708c:	014bc83a 	sub	r5,zero,r5
  807090:	dfc00017 	ldw	ra,0(sp)
  807094:	dec00104 	addi	sp,sp,4
  807098:	0806f681 	jmpi	806f68 <udivmodsi4>
  80709c:	0147c83a 	sub	r3,zero,r5
  8070a0:	003ff306 	br	807070 <__modsi3+0x2c>

008070a4 <__udivsi3>:
  8070a4:	000d883a 	mov	r6,zero
  8070a8:	0806f681 	jmpi	806f68 <udivmodsi4>

008070ac <__umodsi3>:
  8070ac:	01800044 	movi	r6,1
  8070b0:	0806f681 	jmpi	806f68 <udivmodsi4>

008070b4 <__fpcmp_parts_d>:
  8070b4:	21800017 	ldw	r6,0(r4)
  8070b8:	00c00044 	movi	r3,1
  8070bc:	19800a2e 	bgeu	r3,r6,8070e8 <__fpcmp_parts_d+0x34>
  8070c0:	28800017 	ldw	r2,0(r5)
  8070c4:	1880082e 	bgeu	r3,r2,8070e8 <__fpcmp_parts_d+0x34>
  8070c8:	00c00104 	movi	r3,4
  8070cc:	30c02626 	beq	r6,r3,807168 <__fpcmp_parts_d+0xb4>
  8070d0:	10c02226 	beq	r2,r3,80715c <__fpcmp_parts_d+0xa8>
  8070d4:	00c00084 	movi	r3,2
  8070d8:	30c00526 	beq	r6,r3,8070f0 <__fpcmp_parts_d+0x3c>
  8070dc:	10c0071e 	bne	r2,r3,8070fc <__fpcmp_parts_d+0x48>
  8070e0:	20800117 	ldw	r2,4(r4)
  8070e4:	1000091e 	bne	r2,zero,80710c <__fpcmp_parts_d+0x58>
  8070e8:	00800044 	movi	r2,1
  8070ec:	f800283a 	ret
  8070f0:	10c01a1e 	bne	r2,r3,80715c <__fpcmp_parts_d+0xa8>
  8070f4:	0005883a 	mov	r2,zero
  8070f8:	f800283a 	ret
  8070fc:	22000117 	ldw	r8,4(r4)
  807100:	28800117 	ldw	r2,4(r5)
  807104:	40800326 	beq	r8,r2,807114 <__fpcmp_parts_d+0x60>
  807108:	403ff726 	beq	r8,zero,8070e8 <__fpcmp_parts_d+0x34>
  80710c:	00bfffc4 	movi	r2,-1
  807110:	f800283a 	ret
  807114:	20c00217 	ldw	r3,8(r4)
  807118:	28800217 	ldw	r2,8(r5)
  80711c:	10fffa16 	blt	r2,r3,807108 <__fpcmp_parts_d+0x54>
  807120:	18800916 	blt	r3,r2,807148 <__fpcmp_parts_d+0x94>
  807124:	21c00417 	ldw	r7,16(r4)
  807128:	28c00417 	ldw	r3,16(r5)
  80712c:	21800317 	ldw	r6,12(r4)
  807130:	28800317 	ldw	r2,12(r5)
  807134:	19fff436 	bltu	r3,r7,807108 <__fpcmp_parts_d+0x54>
  807138:	38c00526 	beq	r7,r3,807150 <__fpcmp_parts_d+0x9c>
  80713c:	38c00236 	bltu	r7,r3,807148 <__fpcmp_parts_d+0x94>
  807140:	19ffec1e 	bne	r3,r7,8070f4 <__fpcmp_parts_d+0x40>
  807144:	30bfeb2e 	bgeu	r6,r2,8070f4 <__fpcmp_parts_d+0x40>
  807148:	403fe71e 	bne	r8,zero,8070e8 <__fpcmp_parts_d+0x34>
  80714c:	003fef06 	br	80710c <__fpcmp_parts_d+0x58>
  807150:	11bffa2e 	bgeu	r2,r6,80713c <__fpcmp_parts_d+0x88>
  807154:	403fe426 	beq	r8,zero,8070e8 <__fpcmp_parts_d+0x34>
  807158:	003fec06 	br	80710c <__fpcmp_parts_d+0x58>
  80715c:	28800117 	ldw	r2,4(r5)
  807160:	103fe11e 	bne	r2,zero,8070e8 <__fpcmp_parts_d+0x34>
  807164:	003fe906 	br	80710c <__fpcmp_parts_d+0x58>
  807168:	11bfdd1e 	bne	r2,r6,8070e0 <__fpcmp_parts_d+0x2c>
  80716c:	28c00117 	ldw	r3,4(r5)
  807170:	20800117 	ldw	r2,4(r4)
  807174:	1885c83a 	sub	r2,r3,r2
  807178:	f800283a 	ret

0080717c <alt_load>:
  80717c:	deffff04 	addi	sp,sp,-4
  807180:	01002074 	movhi	r4,129
  807184:	21296c04 	addi	r4,r4,-23120
  807188:	00c02074 	movhi	r3,129
  80718c:	18e6e704 	addi	r3,r3,-25700
  807190:	dfc00015 	stw	ra,0(sp)
  807194:	20c00826 	beq	r4,r3,8071b8 <alt_load+0x3c>
  807198:	01402074 	movhi	r5,129
  80719c:	29696c04 	addi	r5,r5,-23120
  8071a0:	19400526 	beq	r3,r5,8071b8 <alt_load+0x3c>
  8071a4:	20800017 	ldw	r2,0(r4)
  8071a8:	21000104 	addi	r4,r4,4
  8071ac:	18800015 	stw	r2,0(r3)
  8071b0:	18c00104 	addi	r3,r3,4
  8071b4:	28fffb1e 	bne	r5,r3,8071a4 <alt_load+0x28>
  8071b8:	01002034 	movhi	r4,128
  8071bc:	21000804 	addi	r4,r4,32
  8071c0:	00c02034 	movhi	r3,128
  8071c4:	18c00804 	addi	r3,r3,32
  8071c8:	20c00826 	beq	r4,r3,8071ec <alt_load+0x70>
  8071cc:	01402034 	movhi	r5,128
  8071d0:	29406104 	addi	r5,r5,388
  8071d4:	19400526 	beq	r3,r5,8071ec <alt_load+0x70>
  8071d8:	20800017 	ldw	r2,0(r4)
  8071dc:	21000104 	addi	r4,r4,4
  8071e0:	18800015 	stw	r2,0(r3)
  8071e4:	18c00104 	addi	r3,r3,4
  8071e8:	28fffb1e 	bne	r5,r3,8071d8 <alt_load+0x5c>
  8071ec:	01002074 	movhi	r4,129
  8071f0:	21263704 	addi	r4,r4,-26404
  8071f4:	00c02074 	movhi	r3,129
  8071f8:	18e63704 	addi	r3,r3,-26404
  8071fc:	20c00826 	beq	r4,r3,807220 <alt_load+0xa4>
  807200:	01402074 	movhi	r5,129
  807204:	2966e704 	addi	r5,r5,-25700
  807208:	19400526 	beq	r3,r5,807220 <alt_load+0xa4>
  80720c:	20800017 	ldw	r2,0(r4)
  807210:	21000104 	addi	r4,r4,4
  807214:	18800015 	stw	r2,0(r3)
  807218:	18c00104 	addi	r3,r3,4
  80721c:	28fffb1e 	bne	r5,r3,80720c <alt_load+0x90>
  807220:	080774c0 	call	80774c <alt_dcache_flush_all>
  807224:	dfc00017 	ldw	ra,0(sp)
  807228:	dec00104 	addi	sp,sp,4
  80722c:	08077d41 	jmpi	8077d4 <alt_icache_flush_all>

00807230 <alt_main>:
  807230:	defffe04 	addi	sp,sp,-8
  807234:	0009883a 	mov	r4,zero
  807238:	dfc00115 	stw	ra,4(sp)
  80723c:	dc400015 	stw	r17,0(sp)
  807240:	08074c80 	call	8074c8 <alt_irq_init>
  807244:	080748c0 	call	80748c <alt_sys_init>
  807248:	01002074 	movhi	r4,129
  80724c:	2126e004 	addi	r4,r4,-25728
  807250:	200b883a 	mov	r5,r4
  807254:	200d883a 	mov	r6,r4
  807258:	08079040 	call	807904 <alt_io_redirect>
  80725c:	d1229717 	ldw	r4,-30116(gp)
  807260:	d1629817 	ldw	r5,-30112(gp)
  807264:	d1a29917 	ldw	r6,-30108(gp)
  807268:	080053c0 	call	80053c <main>
  80726c:	1023883a 	mov	r17,r2
  807270:	01000044 	movi	r4,1
  807274:	080765c0 	call	80765c <close>
  807278:	8809883a 	mov	r4,r17
  80727c:	0807d900 	call	807d90 <exit>

00807280 <__malloc_lock>:
  807280:	f800283a 	ret

00807284 <__malloc_unlock>:
  807284:	f800283a 	ret

00807288 <alt_putstr>:
  807288:	00802074 	movhi	r2,129
  80728c:	10a95e04 	addi	r2,r2,-23176
  807290:	10c00017 	ldw	r3,0(r2)
  807294:	19400217 	ldw	r5,8(r3)
  807298:	0807e3c1 	jmpi	807e3c <fputs>

0080729c <sbrk>:
  80729c:	000b303a 	rdctl	r5,status
  8072a0:	00bfff84 	movi	r2,-2
  8072a4:	2884703a 	and	r2,r5,r2
  8072a8:	1001703a 	wrctl	status,r2
  8072ac:	d0e00417 	ldw	r3,-32752(gp)
  8072b0:	00bfff04 	movi	r2,-4
  8072b4:	18c000c4 	addi	r3,r3,3
  8072b8:	1886703a 	and	r3,r3,r2
  8072bc:	1909883a 	add	r4,r3,r4
  8072c0:	00804034 	movhi	r2,256
  8072c4:	10800004 	addi	r2,r2,0
  8072c8:	d0e00415 	stw	r3,-32752(gp)
  8072cc:	1100042e 	bgeu	r2,r4,8072e0 <sbrk+0x44>
  8072d0:	2801703a 	wrctl	status,r5
  8072d4:	00ffffc4 	movi	r3,-1
  8072d8:	1805883a 	mov	r2,r3
  8072dc:	f800283a 	ret
  8072e0:	d1200415 	stw	r4,-32752(gp)
  8072e4:	2801703a 	wrctl	status,r5
  8072e8:	1805883a 	mov	r2,r3
  8072ec:	f800283a 	ret

008072f0 <alt_alarm_stop>:
  8072f0:	000d303a 	rdctl	r6,status
  8072f4:	00bfff84 	movi	r2,-2
  8072f8:	3084703a 	and	r2,r6,r2
  8072fc:	1001703a 	wrctl	status,r2
  807300:	21400017 	ldw	r5,0(r4)
  807304:	20800117 	ldw	r2,4(r4)
  807308:	28800115 	stw	r2,4(r5)
  80730c:	20c00117 	ldw	r3,4(r4)
  807310:	21000115 	stw	r4,4(r4)
  807314:	19400015 	stw	r5,0(r3)
  807318:	21000015 	stw	r4,0(r4)
  80731c:	3001703a 	wrctl	status,r6
  807320:	f800283a 	ret

00807324 <alt_tick>:
  807324:	defffc04 	addi	sp,sp,-16
  807328:	d0a29b17 	ldw	r2,-30100(gp)
  80732c:	dc000015 	stw	r16,0(sp)
  807330:	d4200517 	ldw	r16,-32748(gp)
  807334:	dc800215 	stw	r18,8(sp)
  807338:	10800044 	addi	r2,r2,1
  80733c:	d4a00504 	addi	r18,gp,-32748
  807340:	dfc00315 	stw	ra,12(sp)
  807344:	dc400115 	stw	r17,4(sp)
  807348:	d0a29b15 	stw	r2,-30100(gp)
  80734c:	84800d26 	beq	r16,r18,807384 <alt_tick+0x60>
  807350:	80800403 	ldbu	r2,16(r16)
  807354:	84400017 	ldw	r17,0(r16)
  807358:	10000326 	beq	r2,zero,807368 <alt_tick+0x44>
  80735c:	d0a29b17 	ldw	r2,-30100(gp)
  807360:	1000011e 	bne	r2,zero,807368 <alt_tick+0x44>
  807364:	80000405 	stb	zero,16(r16)
  807368:	d0e29b17 	ldw	r3,-30100(gp)
  80736c:	80800217 	ldw	r2,8(r16)
  807370:	18800236 	bltu	r3,r2,80737c <alt_tick+0x58>
  807374:	80800403 	ldbu	r2,16(r16)
  807378:	10000826 	beq	r2,zero,80739c <alt_tick+0x78>
  80737c:	8821883a 	mov	r16,r17
  807380:	84bff31e 	bne	r16,r18,807350 <alt_tick+0x2c>
  807384:	dfc00317 	ldw	ra,12(sp)
  807388:	dc800217 	ldw	r18,8(sp)
  80738c:	dc400117 	ldw	r17,4(sp)
  807390:	dc000017 	ldw	r16,0(sp)
  807394:	dec00404 	addi	sp,sp,16
  807398:	f800283a 	ret
  80739c:	81000517 	ldw	r4,20(r16)
  8073a0:	80c00317 	ldw	r3,12(r16)
  8073a4:	183ee83a 	callr	r3
  8073a8:	1009883a 	mov	r4,r2
  8073ac:	10000926 	beq	r2,zero,8073d4 <alt_tick+0xb0>
  8073b0:	80800217 	ldw	r2,8(r16)
  8073b4:	d0e29b17 	ldw	r3,-30100(gp)
  8073b8:	2085883a 	add	r2,r4,r2
  8073bc:	80800215 	stw	r2,8(r16)
  8073c0:	10ffee2e 	bgeu	r2,r3,80737c <alt_tick+0x58>
  8073c4:	00800044 	movi	r2,1
  8073c8:	80800405 	stb	r2,16(r16)
  8073cc:	8821883a 	mov	r16,r17
  8073d0:	003feb06 	br	807380 <alt_tick+0x5c>
  8073d4:	000b303a 	rdctl	r5,status
  8073d8:	00bfff84 	movi	r2,-2
  8073dc:	2884703a 	and	r2,r5,r2
  8073e0:	1001703a 	wrctl	status,r2
  8073e4:	81000017 	ldw	r4,0(r16)
  8073e8:	80800117 	ldw	r2,4(r16)
  8073ec:	20800115 	stw	r2,4(r4)
  8073f0:	80c00117 	ldw	r3,4(r16)
  8073f4:	84000115 	stw	r16,4(r16)
  8073f8:	19000015 	stw	r4,0(r3)
  8073fc:	84000015 	stw	r16,0(r16)
  807400:	2801703a 	wrctl	status,r5
  807404:	8821883a 	mov	r16,r17
  807408:	003fdd06 	br	807380 <alt_tick+0x5c>

0080740c <times>:
  80740c:	00802074 	movhi	r2,129
  807410:	10abf804 	addi	r2,r2,-20512
  807414:	11400017 	ldw	r5,0(r2)
  807418:	deffff04 	addi	sp,sp,-4
  80741c:	00c02074 	movhi	r3,129
  807420:	18ebf904 	addi	r3,r3,-20508
  807424:	dfc00015 	stw	ra,0(sp)
  807428:	18c00017 	ldw	r3,0(r3)
  80742c:	28000f1e 	bne	r5,zero,80746c <times+0x60>
  807430:	00802074 	movhi	r2,129
  807434:	10a96a04 	addi	r2,r2,-23128
  807438:	10800017 	ldw	r2,0(r2)
  80743c:	01002074 	movhi	r4,129
  807440:	212bf404 	addi	r4,r4,-20528
  807444:	10000226 	beq	r2,zero,807450 <times+0x44>
  807448:	103ee83a 	callr	r2
  80744c:	1009883a 	mov	r4,r2
  807450:	0007883a 	mov	r3,zero
  807454:	00801604 	movi	r2,88
  807458:	20800015 	stw	r2,0(r4)
  80745c:	1805883a 	mov	r2,r3
  807460:	dfc00017 	ldw	ra,0(sp)
  807464:	dec00104 	addi	sp,sp,4
  807468:	f800283a 	ret
  80746c:	1805883a 	mov	r2,r3
  807470:	20000315 	stw	zero,12(r4)
  807474:	20000015 	stw	zero,0(r4)
  807478:	20c00115 	stw	r3,4(r4)
  80747c:	20000215 	stw	zero,8(r4)
  807480:	dfc00017 	ldw	ra,0(sp)
  807484:	dec00104 	addi	sp,sp,4
  807488:	f800283a 	ret

0080748c <alt_sys_init>:
  80748c:	deffff04 	addi	sp,sp,-4
  807490:	01004034 	movhi	r4,256
  807494:	21040004 	addi	r4,r4,4096
  807498:	000b883a 	mov	r5,zero
  80749c:	01800044 	movi	r6,1
  8074a0:	01c0fa04 	movi	r7,1000
  8074a4:	dfc00015 	stw	ra,0(sp)
  8074a8:	08075d00 	call	8075d0 <alt_avalon_timer_sc_init>
  8074ac:	01002074 	movhi	r4,129
  8074b0:	2128e904 	addi	r4,r4,-23644
  8074b4:	01402074 	movhi	r5,129
  8074b8:	29696704 	addi	r5,r5,-23140
  8074bc:	dfc00017 	ldw	ra,0(sp)
  8074c0:	dec00104 	addi	sp,sp,4
  8074c4:	08077581 	jmpi	807758 <alt_dev_llist_insert>

008074c8 <alt_irq_init>:
  8074c8:	deffff04 	addi	sp,sp,-4
  8074cc:	dfc00015 	stw	ra,0(sp)
  8074d0:	0807bac0 	call	807bac <altera_nios2_qsys_irq_init>
  8074d4:	00800044 	movi	r2,1
  8074d8:	1001703a 	wrctl	status,r2
  8074dc:	dfc00017 	ldw	ra,0(sp)
  8074e0:	dec00104 	addi	sp,sp,4
  8074e4:	f800283a 	ret

008074e8 <altera_avalon_jtag_uart_write_fd>:
  8074e8:	20800017 	ldw	r2,0(r4)
  8074ec:	21c00217 	ldw	r7,8(r4)
  8074f0:	11000a04 	addi	r4,r2,40
  8074f4:	08075941 	jmpi	807594 <altera_avalon_jtag_uart_write>

008074f8 <altera_avalon_jtag_uart_read_fd>:
  8074f8:	20800017 	ldw	r2,0(r4)
  8074fc:	21c00217 	ldw	r7,8(r4)
  807500:	11000a04 	addi	r4,r2,40
  807504:	08075081 	jmpi	807508 <altera_avalon_jtag_uart_read>

00807508 <altera_avalon_jtag_uart_read>:
  807508:	2991883a 	add	r8,r5,r6
  80750c:	21000017 	ldw	r4,0(r4)
  807510:	2a00102e 	bgeu	r5,r8,807554 <altera_avalon_jtag_uart_read+0x4c>
  807514:	39d0000c 	andi	r7,r7,16384
  807518:	3800141e 	bne	r7,zero,80756c <altera_avalon_jtag_uart_read+0x64>
  80751c:	2807883a 	mov	r3,r5
  807520:	21800037 	ldwio	r6,0(r4)
  807524:	30a0000c 	andi	r2,r6,32768
  807528:	1000061e 	bne	r2,zero,807544 <altera_avalon_jtag_uart_read+0x3c>
  80752c:	28c0031e 	bne	r5,r3,80753c <altera_avalon_jtag_uart_read+0x34>
  807530:	2807883a 	mov	r3,r5
  807534:	1a3ffa36 	bltu	r3,r8,807520 <altera_avalon_jtag_uart_read+0x18>
  807538:	28c00726 	beq	r5,r3,807558 <altera_avalon_jtag_uart_read+0x50>
  80753c:	1945c83a 	sub	r2,r3,r5
  807540:	f800283a 	ret
  807544:	19800005 	stb	r6,0(r3)
  807548:	18c00044 	addi	r3,r3,1
  80754c:	1a3ff436 	bltu	r3,r8,807520 <altera_avalon_jtag_uart_read+0x18>
  807550:	003ff906 	br	807538 <altera_avalon_jtag_uart_read+0x30>
  807554:	39d0000c 	andi	r7,r7,16384
  807558:	38000226 	beq	r7,zero,807564 <altera_avalon_jtag_uart_read+0x5c>
  80755c:	00bffd44 	movi	r2,-11
  807560:	f800283a 	ret
  807564:	00bffec4 	movi	r2,-5
  807568:	f800283a 	ret
  80756c:	2807883a 	mov	r3,r5
  807570:	21800037 	ldwio	r6,0(r4)
  807574:	30a0000c 	andi	r2,r6,32768
  807578:	10000426 	beq	r2,zero,80758c <altera_avalon_jtag_uart_read+0x84>
  80757c:	19800005 	stb	r6,0(r3)
  807580:	18c00044 	addi	r3,r3,1
  807584:	1a3ffa1e 	bne	r3,r8,807570 <altera_avalon_jtag_uart_read+0x68>
  807588:	003feb06 	br	807538 <altera_avalon_jtag_uart_read+0x30>
  80758c:	28fff326 	beq	r5,r3,80755c <altera_avalon_jtag_uart_read+0x54>
  807590:	003fea06 	br	80753c <altera_avalon_jtag_uart_read+0x34>

00807594 <altera_avalon_jtag_uart_write>:
  807594:	314f883a 	add	r7,r6,r5
  807598:	21000017 	ldw	r4,0(r4)
  80759c:	29c0052e 	bgeu	r5,r7,8075b4 <altera_avalon_jtag_uart_write+0x20>
  8075a0:	20c00104 	addi	r3,r4,4
  8075a4:	18800037 	ldwio	r2,0(r3)
  8075a8:	10bfffec 	andhi	r2,r2,65535
  8075ac:	1000031e 	bne	r2,zero,8075bc <altera_avalon_jtag_uart_write+0x28>
  8075b0:	29fffc36 	bltu	r5,r7,8075a4 <altera_avalon_jtag_uart_write+0x10>
  8075b4:	3005883a 	mov	r2,r6
  8075b8:	f800283a 	ret
  8075bc:	28800007 	ldb	r2,0(r5)
  8075c0:	29400044 	addi	r5,r5,1
  8075c4:	20800035 	stwio	r2,0(r4)
  8075c8:	29fff636 	bltu	r5,r7,8075a4 <altera_avalon_jtag_uart_write+0x10>
  8075cc:	003ff906 	br	8075b4 <altera_avalon_jtag_uart_write+0x20>

008075d0 <alt_avalon_timer_sc_init>:
  8075d0:	02002074 	movhi	r8,129
  8075d4:	422bf804 	addi	r8,r8,-20512
  8075d8:	40800017 	ldw	r2,0(r8)
  8075dc:	defffe04 	addi	sp,sp,-8
  8075e0:	3807883a 	mov	r3,r7
  8075e4:	dfc00115 	stw	ra,4(sp)
  8075e8:	200f883a 	mov	r7,r4
  8075ec:	1000011e 	bne	r2,zero,8075f4 <alt_avalon_timer_sc_init+0x24>
  8075f0:	40c00015 	stw	r3,0(r8)
  8075f4:	008001c4 	movi	r2,7
  8075f8:	38800135 	stwio	r2,4(r7)
  8075fc:	2809883a 	mov	r4,r5
  807600:	300b883a 	mov	r5,r6
  807604:	01802034 	movhi	r6,128
  807608:	319d8804 	addi	r6,r6,30240
  80760c:	d8000015 	stw	zero,0(sp)
  807610:	08078780 	call	807878 <alt_ic_isr_register>
  807614:	dfc00117 	ldw	ra,4(sp)
  807618:	dec00204 	addi	sp,sp,8
  80761c:	f800283a 	ret

00807620 <alt_avalon_timer_sc_irq>:
  807620:	defffe04 	addi	sp,sp,-8
  807624:	dfc00115 	stw	ra,4(sp)
  807628:	dc000015 	stw	r16,0(sp)
  80762c:	20000035 	stwio	zero,0(r4)
  807630:	20800137 	ldwio	r2,4(r4)
  807634:	0021303a 	rdctl	r16,status
  807638:	00bfff84 	movi	r2,-2
  80763c:	8084703a 	and	r2,r16,r2
  807640:	1001703a 	wrctl	status,r2
  807644:	08073240 	call	807324 <alt_tick>
  807648:	8001703a 	wrctl	status,r16
  80764c:	dfc00117 	ldw	ra,4(sp)
  807650:	dc000017 	ldw	r16,0(sp)
  807654:	dec00204 	addi	sp,sp,8
  807658:	f800283a 	ret

0080765c <close>:
  80765c:	defffd04 	addi	sp,sp,-12
  807660:	dc000015 	stw	r16,0(sp)
  807664:	dfc00215 	stw	ra,8(sp)
  807668:	dc400115 	stw	r17,4(sp)
  80766c:	2021883a 	mov	r16,r4
  807670:	20001516 	blt	r4,zero,8076c8 <close+0x6c>
  807674:	20c00324 	muli	r3,r4,12
  807678:	00802074 	movhi	r2,129
  80767c:	10a8fe04 	addi	r2,r2,-23560
  807680:	1887883a 	add	r3,r3,r2
  807684:	18001026 	beq	r3,zero,8076c8 <close+0x6c>
  807688:	18800017 	ldw	r2,0(r3)
  80768c:	10800417 	ldw	r2,16(r2)
  807690:	10001c26 	beq	r2,zero,807704 <close+0xa8>
  807694:	1809883a 	mov	r4,r3
  807698:	103ee83a 	callr	r2
  80769c:	1023883a 	mov	r17,r2
  8076a0:	8009883a 	mov	r4,r16
  8076a4:	0807b880 	call	807b88 <alt_release_fd>
  8076a8:	88001b16 	blt	r17,zero,807718 <close+0xbc>
  8076ac:	0007883a 	mov	r3,zero
  8076b0:	1805883a 	mov	r2,r3
  8076b4:	dfc00217 	ldw	ra,8(sp)
  8076b8:	dc400117 	ldw	r17,4(sp)
  8076bc:	dc000017 	ldw	r16,0(sp)
  8076c0:	dec00304 	addi	sp,sp,12
  8076c4:	f800283a 	ret
  8076c8:	00802074 	movhi	r2,129
  8076cc:	10a96a04 	addi	r2,r2,-23128
  8076d0:	10800017 	ldw	r2,0(r2)
  8076d4:	10000d26 	beq	r2,zero,80770c <close+0xb0>
  8076d8:	103ee83a 	callr	r2
  8076dc:	1009883a 	mov	r4,r2
  8076e0:	00ffffc4 	movi	r3,-1
  8076e4:	00801444 	movi	r2,81
  8076e8:	20800015 	stw	r2,0(r4)
  8076ec:	1805883a 	mov	r2,r3
  8076f0:	dfc00217 	ldw	ra,8(sp)
  8076f4:	dc400117 	ldw	r17,4(sp)
  8076f8:	dc000017 	ldw	r16,0(sp)
  8076fc:	dec00304 	addi	sp,sp,12
  807700:	f800283a 	ret
  807704:	0807b880 	call	807b88 <alt_release_fd>
  807708:	003fe806 	br	8076ac <close+0x50>
  80770c:	01002074 	movhi	r4,129
  807710:	212bf404 	addi	r4,r4,-20528
  807714:	003ff206 	br	8076e0 <close+0x84>
  807718:	00802074 	movhi	r2,129
  80771c:	10a96a04 	addi	r2,r2,-23128
  807720:	10800017 	ldw	r2,0(r2)
  807724:	10000626 	beq	r2,zero,807740 <close+0xe4>
  807728:	103ee83a 	callr	r2
  80772c:	1009883a 	mov	r4,r2
  807730:	0445c83a 	sub	r2,zero,r17
  807734:	00ffffc4 	movi	r3,-1
  807738:	20800015 	stw	r2,0(r4)
  80773c:	003fdc06 	br	8076b0 <close+0x54>
  807740:	01002074 	movhi	r4,129
  807744:	212bf404 	addi	r4,r4,-20528
  807748:	003ff906 	br	807730 <close+0xd4>

0080774c <alt_dcache_flush_all>:
  80774c:	f800283a 	ret

00807750 <alt_dev_null_write>:
  807750:	3005883a 	mov	r2,r6
  807754:	f800283a 	ret

00807758 <alt_dev_llist_insert>:
  807758:	deffff04 	addi	sp,sp,-4
  80775c:	dfc00015 	stw	ra,0(sp)
  807760:	20000d26 	beq	r4,zero,807798 <alt_dev_llist_insert+0x40>
  807764:	20800217 	ldw	r2,8(r4)
  807768:	000d883a 	mov	r6,zero
  80776c:	10000a26 	beq	r2,zero,807798 <alt_dev_llist_insert+0x40>
  807770:	28c00017 	ldw	r3,0(r5)
  807774:	21400115 	stw	r5,4(r4)
  807778:	20c00015 	stw	r3,0(r4)
  80777c:	28800017 	ldw	r2,0(r5)
  807780:	29000015 	stw	r4,0(r5)
  807784:	11000115 	stw	r4,4(r2)
  807788:	3005883a 	mov	r2,r6
  80778c:	dfc00017 	ldw	ra,0(sp)
  807790:	dec00104 	addi	sp,sp,4
  807794:	f800283a 	ret
  807798:	00802074 	movhi	r2,129
  80779c:	10a96a04 	addi	r2,r2,-23128
  8077a0:	10800017 	ldw	r2,0(r2)
  8077a4:	00c02074 	movhi	r3,129
  8077a8:	18ebf404 	addi	r3,r3,-20528
  8077ac:	10000226 	beq	r2,zero,8077b8 <alt_dev_llist_insert+0x60>
  8077b0:	103ee83a 	callr	r2
  8077b4:	1007883a 	mov	r3,r2
  8077b8:	01bffa84 	movi	r6,-22
  8077bc:	00800584 	movi	r2,22
  8077c0:	18800015 	stw	r2,0(r3)
  8077c4:	3005883a 	mov	r2,r6
  8077c8:	dfc00017 	ldw	ra,0(sp)
  8077cc:	dec00104 	addi	sp,sp,4
  8077d0:	f800283a 	ret

008077d4 <alt_icache_flush_all>:
  8077d4:	0009883a 	mov	r4,zero
  8077d8:	01420004 	movi	r5,2048
  8077dc:	0807d581 	jmpi	807d58 <alt_icache_flush>

008077e0 <alt_ic_irq_enabled>:
  8077e0:	000530fa 	rdctl	r2,ienable
  8077e4:	00c00044 	movi	r3,1
  8077e8:	1946983a 	sll	r3,r3,r5
  8077ec:	10c4703a 	and	r2,r2,r3
  8077f0:	1004c03a 	cmpne	r2,r2,zero
  8077f4:	f800283a 	ret

008077f8 <alt_ic_irq_enable>:
  8077f8:	000d303a 	rdctl	r6,status
  8077fc:	00bfff84 	movi	r2,-2
  807800:	3084703a 	and	r2,r6,r2
  807804:	1001703a 	wrctl	status,r2
  807808:	01002074 	movhi	r4,129
  80780c:	212bfa04 	addi	r4,r4,-20504
  807810:	00800044 	movi	r2,1
  807814:	20c00017 	ldw	r3,0(r4)
  807818:	1144983a 	sll	r2,r2,r5
  80781c:	10c4b03a 	or	r2,r2,r3
  807820:	20800015 	stw	r2,0(r4)
  807824:	20c00017 	ldw	r3,0(r4)
  807828:	180170fa 	wrctl	ienable,r3
  80782c:	3001703a 	wrctl	status,r6
  807830:	0005883a 	mov	r2,zero
  807834:	f800283a 	ret

00807838 <alt_ic_irq_disable>:
  807838:	000d303a 	rdctl	r6,status
  80783c:	00bfff84 	movi	r2,-2
  807840:	3084703a 	and	r2,r6,r2
  807844:	1001703a 	wrctl	status,r2
  807848:	01002074 	movhi	r4,129
  80784c:	212bfa04 	addi	r4,r4,-20504
  807850:	00bfff84 	movi	r2,-2
  807854:	20c00017 	ldw	r3,0(r4)
  807858:	1144183a 	rol	r2,r2,r5
  80785c:	10c4703a 	and	r2,r2,r3
  807860:	20800015 	stw	r2,0(r4)
  807864:	20c00017 	ldw	r3,0(r4)
  807868:	180170fa 	wrctl	ienable,r3
  80786c:	3001703a 	wrctl	status,r6
  807870:	0005883a 	mov	r2,zero
  807874:	f800283a 	ret

00807878 <alt_ic_isr_register>:
  807878:	080787c1 	jmpi	80787c <alt_iic_isr_register>

0080787c <alt_iic_isr_register>:
  80787c:	defffe04 	addi	sp,sp,-8
  807880:	008007c4 	movi	r2,31
  807884:	dfc00115 	stw	ra,4(sp)
  807888:	dc000015 	stw	r16,0(sp)
  80788c:	023ffa84 	movi	r8,-22
  807890:	1140050e 	bge	r2,r5,8078a8 <alt_iic_isr_register+0x2c>
  807894:	4005883a 	mov	r2,r8
  807898:	dfc00117 	ldw	ra,4(sp)
  80789c:	dc000017 	ldw	r16,0(sp)
  8078a0:	dec00204 	addi	sp,sp,8
  8078a4:	f800283a 	ret
  8078a8:	0021303a 	rdctl	r16,status
  8078ac:	00bfff84 	movi	r2,-2
  8078b0:	8084703a 	and	r2,r16,r2
  8078b4:	1001703a 	wrctl	status,r2
  8078b8:	280690fa 	slli	r3,r5,3
  8078bc:	00802074 	movhi	r2,129
  8078c0:	10ac0504 	addi	r2,r2,-20460
  8078c4:	1887883a 	add	r3,r3,r2
  8078c8:	19c00115 	stw	r7,4(r3)
  8078cc:	19800015 	stw	r6,0(r3)
  8078d0:	30000826 	beq	r6,zero,8078f4 <alt_iic_isr_register+0x78>
  8078d4:	08077f80 	call	8077f8 <alt_ic_irq_enable>
  8078d8:	1011883a 	mov	r8,r2
  8078dc:	8001703a 	wrctl	status,r16
  8078e0:	4005883a 	mov	r2,r8
  8078e4:	dfc00117 	ldw	ra,4(sp)
  8078e8:	dc000017 	ldw	r16,0(sp)
  8078ec:	dec00204 	addi	sp,sp,8
  8078f0:	f800283a 	ret
  8078f4:	08078380 	call	807838 <alt_ic_irq_disable>
  8078f8:	1011883a 	mov	r8,r2
  8078fc:	8001703a 	wrctl	status,r16
  807900:	003ff706 	br	8078e0 <alt_iic_isr_register+0x64>

00807904 <alt_io_redirect>:
  807904:	defffd04 	addi	sp,sp,-12
  807908:	dc400115 	stw	r17,4(sp)
  80790c:	dc000015 	stw	r16,0(sp)
  807910:	3023883a 	mov	r17,r6
  807914:	2821883a 	mov	r16,r5
  807918:	01807fc4 	movi	r6,511
  80791c:	01400044 	movi	r5,1
  807920:	dfc00215 	stw	ra,8(sp)
  807924:	0807a080 	call	807a08 <open>
  807928:	10c00324 	muli	r3,r2,12
  80792c:	01802074 	movhi	r6,129
  807930:	31a8fe04 	addi	r6,r6,-23560
  807934:	1009883a 	mov	r4,r2
  807938:	198b883a 	add	r5,r3,r6
  80793c:	10000716 	blt	r2,zero,80795c <alt_io_redirect+0x58>
  807940:	28800217 	ldw	r2,8(r5)
  807944:	28c00017 	ldw	r3,0(r5)
  807948:	29400117 	ldw	r5,4(r5)
  80794c:	30800515 	stw	r2,20(r6)
  807950:	30c00315 	stw	r3,12(r6)
  807954:	31400415 	stw	r5,16(r6)
  807958:	0807b880 	call	807b88 <alt_release_fd>
  80795c:	8009883a 	mov	r4,r16
  807960:	000b883a 	mov	r5,zero
  807964:	01807fc4 	movi	r6,511
  807968:	0807a080 	call	807a08 <open>
  80796c:	10c00324 	muli	r3,r2,12
  807970:	01802074 	movhi	r6,129
  807974:	31a8fe04 	addi	r6,r6,-23560
  807978:	1009883a 	mov	r4,r2
  80797c:	198b883a 	add	r5,r3,r6
  807980:	10000716 	blt	r2,zero,8079a0 <alt_io_redirect+0x9c>
  807984:	28800217 	ldw	r2,8(r5)
  807988:	28c00017 	ldw	r3,0(r5)
  80798c:	29400117 	ldw	r5,4(r5)
  807990:	30800215 	stw	r2,8(r6)
  807994:	30c00015 	stw	r3,0(r6)
  807998:	31400115 	stw	r5,4(r6)
  80799c:	0807b880 	call	807b88 <alt_release_fd>
  8079a0:	8809883a 	mov	r4,r17
  8079a4:	01400044 	movi	r5,1
  8079a8:	01807fc4 	movi	r6,511
  8079ac:	0807a080 	call	807a08 <open>
  8079b0:	10c00324 	muli	r3,r2,12
  8079b4:	01802074 	movhi	r6,129
  8079b8:	31a8fe04 	addi	r6,r6,-23560
  8079bc:	1009883a 	mov	r4,r2
  8079c0:	198b883a 	add	r5,r3,r6
  8079c4:	10000b16 	blt	r2,zero,8079f4 <alt_io_redirect+0xf0>
  8079c8:	28800217 	ldw	r2,8(r5)
  8079cc:	28c00017 	ldw	r3,0(r5)
  8079d0:	29400117 	ldw	r5,4(r5)
  8079d4:	30800815 	stw	r2,32(r6)
  8079d8:	30c00615 	stw	r3,24(r6)
  8079dc:	31400715 	stw	r5,28(r6)
  8079e0:	dfc00217 	ldw	ra,8(sp)
  8079e4:	dc400117 	ldw	r17,4(sp)
  8079e8:	dc000017 	ldw	r16,0(sp)
  8079ec:	dec00304 	addi	sp,sp,12
  8079f0:	0807b881 	jmpi	807b88 <alt_release_fd>
  8079f4:	dfc00217 	ldw	ra,8(sp)
  8079f8:	dc400117 	ldw	r17,4(sp)
  8079fc:	dc000017 	ldw	r16,0(sp)
  807a00:	dec00304 	addi	sp,sp,12
  807a04:	f800283a 	ret

00807a08 <open>:
  807a08:	defff904 	addi	sp,sp,-28
  807a0c:	dcc00315 	stw	r19,12(sp)
  807a10:	2827883a 	mov	r19,r5
  807a14:	01402074 	movhi	r5,129
  807a18:	29696704 	addi	r5,r5,-23140
  807a1c:	dd400515 	stw	r21,20(sp)
  807a20:	dd000415 	stw	r20,16(sp)
  807a24:	dc400115 	stw	r17,4(sp)
  807a28:	dfc00615 	stw	ra,24(sp)
  807a2c:	dc800215 	stw	r18,8(sp)
  807a30:	dc000015 	stw	r16,0(sp)
  807a34:	302b883a 	mov	r21,r6
  807a38:	2029883a 	mov	r20,r4
  807a3c:	0807bb40 	call	807bb4 <alt_find_dev>
  807a40:	1023883a 	mov	r17,r2
  807a44:	10004726 	beq	r2,zero,807b64 <open+0x15c>
  807a48:	0025883a 	mov	r18,zero
  807a4c:	8809883a 	mov	r4,r17
  807a50:	0807cf80 	call	807cf8 <alt_get_fd>
  807a54:	1021883a 	mov	r16,r2
  807a58:	10002d16 	blt	r2,zero,807b10 <open+0x108>
  807a5c:	10800324 	muli	r2,r2,12
  807a60:	01402074 	movhi	r5,129
  807a64:	2968fe04 	addi	r5,r5,-23560
  807a68:	00d00034 	movhi	r3,16384
  807a6c:	18ffffc4 	addi	r3,r3,-1
  807a70:	1149883a 	add	r4,r2,r5
  807a74:	98c6703a 	and	r3,r19,r3
  807a78:	9004c03a 	cmpne	r2,r18,zero
  807a7c:	20c00215 	stw	r3,8(r4)
  807a80:	1000121e 	bne	r2,zero,807acc <open+0xc4>
  807a84:	00802074 	movhi	r2,129
  807a88:	10a96904 	addi	r2,r2,-23132
  807a8c:	11c00017 	ldw	r7,0(r2)
  807a90:	21800017 	ldw	r6,0(r4)
  807a94:	18900034 	orhi	r2,r3,16384
  807a98:	0007883a 	mov	r3,zero
  807a9c:	20800215 	stw	r2,8(r4)
  807aa0:	00000206 	br	807aac <open+0xa4>
  807aa4:	29400304 	addi	r5,r5,12
  807aa8:	38c00836 	bltu	r7,r3,807acc <open+0xc4>
  807aac:	28800017 	ldw	r2,0(r5)
  807ab0:	18c00044 	addi	r3,r3,1
  807ab4:	11bffb1e 	bne	r2,r6,807aa4 <open+0x9c>
  807ab8:	28800217 	ldw	r2,8(r5)
  807abc:	103ff90e 	bge	r2,zero,807aa4 <open+0x9c>
  807ac0:	293ff826 	beq	r5,r4,807aa4 <open+0x9c>
  807ac4:	04400344 	movi	r17,13
  807ac8:	00001206 	br	807b14 <open+0x10c>
  807acc:	88800317 	ldw	r2,12(r17)
  807ad0:	10000526 	beq	r2,zero,807ae8 <open+0xe0>
  807ad4:	a00b883a 	mov	r5,r20
  807ad8:	980d883a 	mov	r6,r19
  807adc:	a80f883a 	mov	r7,r21
  807ae0:	103ee83a 	callr	r2
  807ae4:	10001516 	blt	r2,zero,807b3c <open+0x134>
  807ae8:	8005883a 	mov	r2,r16
  807aec:	dfc00617 	ldw	ra,24(sp)
  807af0:	dd400517 	ldw	r21,20(sp)
  807af4:	dd000417 	ldw	r20,16(sp)
  807af8:	dcc00317 	ldw	r19,12(sp)
  807afc:	dc800217 	ldw	r18,8(sp)
  807b00:	dc400117 	ldw	r17,4(sp)
  807b04:	dc000017 	ldw	r16,0(sp)
  807b08:	dec00704 	addi	sp,sp,28
  807b0c:	f800283a 	ret
  807b10:	00a3c83a 	sub	r17,zero,r2
  807b14:	8009883a 	mov	r4,r16
  807b18:	0807b880 	call	807b88 <alt_release_fd>
  807b1c:	00802074 	movhi	r2,129
  807b20:	10a96a04 	addi	r2,r2,-23128
  807b24:	10800017 	ldw	r2,0(r2)
  807b28:	10000b26 	beq	r2,zero,807b58 <open+0x150>
  807b2c:	103ee83a 	callr	r2
  807b30:	043fffc4 	movi	r16,-1
  807b34:	14400015 	stw	r17,0(r2)
  807b38:	003feb06 	br	807ae8 <open+0xe0>
  807b3c:	8009883a 	mov	r4,r16
  807b40:	00a3c83a 	sub	r17,zero,r2
  807b44:	0807b880 	call	807b88 <alt_release_fd>
  807b48:	00802074 	movhi	r2,129
  807b4c:	10a96a04 	addi	r2,r2,-23128
  807b50:	10800017 	ldw	r2,0(r2)
  807b54:	103ff51e 	bne	r2,zero,807b2c <open+0x124>
  807b58:	00802074 	movhi	r2,129
  807b5c:	10abf404 	addi	r2,r2,-20528
  807b60:	003ff306 	br	807b30 <open+0x128>
  807b64:	a009883a 	mov	r4,r20
  807b68:	0807c480 	call	807c48 <alt_find_file>
  807b6c:	1023883a 	mov	r17,r2
  807b70:	10000226 	beq	r2,zero,807b7c <open+0x174>
  807b74:	04800044 	movi	r18,1
  807b78:	003fb406 	br	807a4c <open+0x44>
  807b7c:	043fffc4 	movi	r16,-1
  807b80:	044004c4 	movi	r17,19
  807b84:	003fe306 	br	807b14 <open+0x10c>

00807b88 <alt_release_fd>:
  807b88:	00800084 	movi	r2,2
  807b8c:	20c00324 	muli	r3,r4,12
  807b90:	1100050e 	bge	r2,r4,807ba8 <alt_release_fd+0x20>
  807b94:	00802074 	movhi	r2,129
  807b98:	10a8fe04 	addi	r2,r2,-23560
  807b9c:	1885883a 	add	r2,r3,r2
  807ba0:	10000015 	stw	zero,0(r2)
  807ba4:	10000215 	stw	zero,8(r2)
  807ba8:	f800283a 	ret

00807bac <altera_nios2_qsys_irq_init>:
  807bac:	000170fa 	wrctl	ienable,zero
  807bb0:	f800283a 	ret

00807bb4 <alt_find_dev>:
  807bb4:	defffb04 	addi	sp,sp,-20
  807bb8:	dc000015 	stw	r16,0(sp)
  807bbc:	2c000017 	ldw	r16,0(r5)
  807bc0:	dcc00315 	stw	r19,12(sp)
  807bc4:	dc400115 	stw	r17,4(sp)
  807bc8:	dfc00415 	stw	ra,16(sp)
  807bcc:	2823883a 	mov	r17,r5
  807bd0:	dc800215 	stw	r18,8(sp)
  807bd4:	2027883a 	mov	r19,r4
  807bd8:	080844c0 	call	80844c <strlen>
  807bdc:	84401126 	beq	r16,r17,807c24 <alt_find_dev+0x70>
  807be0:	14800044 	addi	r18,r2,1
  807be4:	00000206 	br	807bf0 <alt_find_dev+0x3c>
  807be8:	84000017 	ldw	r16,0(r16)
  807bec:	84400d26 	beq	r16,r17,807c24 <alt_find_dev+0x70>
  807bf0:	81000217 	ldw	r4,8(r16)
  807bf4:	980b883a 	mov	r5,r19
  807bf8:	900d883a 	mov	r6,r18
  807bfc:	08083d80 	call	8083d8 <memcmp>
  807c00:	103ff91e 	bne	r2,zero,807be8 <alt_find_dev+0x34>
  807c04:	8005883a 	mov	r2,r16
  807c08:	dfc00417 	ldw	ra,16(sp)
  807c0c:	dcc00317 	ldw	r19,12(sp)
  807c10:	dc800217 	ldw	r18,8(sp)
  807c14:	dc400117 	ldw	r17,4(sp)
  807c18:	dc000017 	ldw	r16,0(sp)
  807c1c:	dec00504 	addi	sp,sp,20
  807c20:	f800283a 	ret
  807c24:	0021883a 	mov	r16,zero
  807c28:	8005883a 	mov	r2,r16
  807c2c:	dfc00417 	ldw	ra,16(sp)
  807c30:	dcc00317 	ldw	r19,12(sp)
  807c34:	dc800217 	ldw	r18,8(sp)
  807c38:	dc400117 	ldw	r17,4(sp)
  807c3c:	dc000017 	ldw	r16,0(sp)
  807c40:	dec00504 	addi	sp,sp,20
  807c44:	f800283a 	ret

00807c48 <alt_find_file>:
  807c48:	defffa04 	addi	sp,sp,-24
  807c4c:	00802074 	movhi	r2,129
  807c50:	10a96504 	addi	r2,r2,-23148
  807c54:	dc000015 	stw	r16,0(sp)
  807c58:	14000017 	ldw	r16,0(r2)
  807c5c:	dd000415 	stw	r20,16(sp)
  807c60:	dc800215 	stw	r18,8(sp)
  807c64:	dfc00515 	stw	ra,20(sp)
  807c68:	dcc00315 	stw	r19,12(sp)
  807c6c:	dc400115 	stw	r17,4(sp)
  807c70:	1029883a 	mov	r20,r2
  807c74:	2025883a 	mov	r18,r4
  807c78:	80801526 	beq	r16,r2,807cd0 <alt_find_file+0x88>
  807c7c:	04c00bc4 	movi	r19,47
  807c80:	00000806 	br	807ca4 <alt_find_file+0x5c>
  807c84:	3485883a 	add	r2,r6,r18
  807c88:	10800007 	ldb	r2,0(r2)
  807c8c:	14c00126 	beq	r2,r19,807c94 <alt_find_file+0x4c>
  807c90:	1000021e 	bne	r2,zero,807c9c <alt_find_file+0x54>
  807c94:	08083d80 	call	8083d8 <memcmp>
  807c98:	10000e26 	beq	r2,zero,807cd4 <alt_find_file+0x8c>
  807c9c:	84000017 	ldw	r16,0(r16)
  807ca0:	85000b26 	beq	r16,r20,807cd0 <alt_find_file+0x88>
  807ca4:	84400217 	ldw	r17,8(r16)
  807ca8:	8809883a 	mov	r4,r17
  807cac:	080844c0 	call	80844c <strlen>
  807cb0:	100d883a 	mov	r6,r2
  807cb4:	8885883a 	add	r2,r17,r2
  807cb8:	10ffffc7 	ldb	r3,-1(r2)
  807cbc:	8809883a 	mov	r4,r17
  807cc0:	900b883a 	mov	r5,r18
  807cc4:	1cffef1e 	bne	r3,r19,807c84 <alt_find_file+0x3c>
  807cc8:	31bfffc4 	addi	r6,r6,-1
  807ccc:	003fed06 	br	807c84 <alt_find_file+0x3c>
  807cd0:	0021883a 	mov	r16,zero
  807cd4:	8005883a 	mov	r2,r16
  807cd8:	dfc00517 	ldw	ra,20(sp)
  807cdc:	dd000417 	ldw	r20,16(sp)
  807ce0:	dcc00317 	ldw	r19,12(sp)
  807ce4:	dc800217 	ldw	r18,8(sp)
  807ce8:	dc400117 	ldw	r17,4(sp)
  807cec:	dc000017 	ldw	r16,0(sp)
  807cf0:	dec00604 	addi	sp,sp,24
  807cf4:	f800283a 	ret

00807cf8 <alt_get_fd>:
  807cf8:	01402074 	movhi	r5,129
  807cfc:	2968fe04 	addi	r5,r5,-23560
  807d00:	0007883a 	mov	r3,zero
  807d04:	01c00804 	movi	r7,32
  807d08:	280d883a 	mov	r6,r5
  807d0c:	00000306 	br	807d1c <alt_get_fd+0x24>
  807d10:	18c00044 	addi	r3,r3,1
  807d14:	31800304 	addi	r6,r6,12
  807d18:	19c00d26 	beq	r3,r7,807d50 <alt_get_fd+0x58>
  807d1c:	28800017 	ldw	r2,0(r5)
  807d20:	29400304 	addi	r5,r5,12
  807d24:	103ffa1e 	bne	r2,zero,807d10 <alt_get_fd+0x18>
  807d28:	01402074 	movhi	r5,129
  807d2c:	29696904 	addi	r5,r5,-23132
  807d30:	28800017 	ldw	r2,0(r5)
  807d34:	31000015 	stw	r4,0(r6)
  807d38:	10c0030e 	bge	r2,r3,807d48 <alt_get_fd+0x50>
  807d3c:	1805883a 	mov	r2,r3
  807d40:	28c00015 	stw	r3,0(r5)
  807d44:	f800283a 	ret
  807d48:	1805883a 	mov	r2,r3
  807d4c:	f800283a 	ret
  807d50:	00bffa04 	movi	r2,-24
  807d54:	f800283a 	ret

00807d58 <alt_icache_flush>:
  807d58:	00820004 	movi	r2,2048
  807d5c:	2007883a 	mov	r3,r4
  807d60:	1140012e 	bgeu	r2,r5,807d68 <alt_icache_flush+0x10>
  807d64:	100b883a 	mov	r5,r2
  807d68:	194b883a 	add	r5,r3,r5
  807d6c:	1940032e 	bgeu	r3,r5,807d7c <alt_icache_flush+0x24>
  807d70:	1800603a 	flushi	r3
  807d74:	18c00804 	addi	r3,r3,32
  807d78:	197ffd36 	bltu	r3,r5,807d70 <alt_icache_flush+0x18>
  807d7c:	208007cc 	andi	r2,r4,31
  807d80:	10000126 	beq	r2,zero,807d88 <alt_icache_flush+0x30>
  807d84:	1800603a 	flushi	r3
  807d88:	0000203a 	flushp
  807d8c:	f800283a 	ret

00807d90 <exit>:
  807d90:	defffe04 	addi	sp,sp,-8
  807d94:	000b883a 	mov	r5,zero
  807d98:	dc000015 	stw	r16,0(sp)
  807d9c:	dfc00115 	stw	ra,4(sp)
  807da0:	2021883a 	mov	r16,r4
  807da4:	08086000 	call	808600 <__call_exitprocs>
  807da8:	00802074 	movhi	r2,129
  807dac:	10a95f04 	addi	r2,r2,-23172
  807db0:	11000017 	ldw	r4,0(r2)
  807db4:	20800f17 	ldw	r2,60(r4)
  807db8:	10000126 	beq	r2,zero,807dc0 <exit+0x30>
  807dbc:	103ee83a 	callr	r2
  807dc0:	8009883a 	mov	r4,r16
  807dc4:	08094e00 	call	8094e0 <_exit>

00807dc8 <_fputs_r>:
  807dc8:	defff804 	addi	sp,sp,-32
  807dcc:	dc000515 	stw	r16,20(sp)
  807dd0:	2021883a 	mov	r16,r4
  807dd4:	2809883a 	mov	r4,r5
  807dd8:	dc400615 	stw	r17,24(sp)
  807ddc:	dfc00715 	stw	ra,28(sp)
  807de0:	3023883a 	mov	r17,r6
  807de4:	d9400015 	stw	r5,0(sp)
  807de8:	080844c0 	call	80844c <strlen>
  807dec:	00c00044 	movi	r3,1
  807df0:	d8800115 	stw	r2,4(sp)
  807df4:	d8c00315 	stw	r3,12(sp)
  807df8:	d8800415 	stw	r2,16(sp)
  807dfc:	dec00215 	stw	sp,8(sp)
  807e00:	80000326 	beq	r16,zero,807e10 <_fputs_r+0x48>
  807e04:	80800e17 	ldw	r2,56(r16)
  807e08:	8009883a 	mov	r4,r16
  807e0c:	10000926 	beq	r2,zero,807e34 <_fputs_r+0x6c>
  807e10:	8009883a 	mov	r4,r16
  807e14:	880b883a 	mov	r5,r17
  807e18:	d9800204 	addi	r6,sp,8
  807e1c:	0807e580 	call	807e58 <__sfvwrite_r>
  807e20:	dfc00717 	ldw	ra,28(sp)
  807e24:	dc400617 	ldw	r17,24(sp)
  807e28:	dc000517 	ldw	r16,20(sp)
  807e2c:	dec00804 	addi	sp,sp,32
  807e30:	f800283a 	ret
  807e34:	0808a480 	call	808a48 <__sinit>
  807e38:	003ff506 	br	807e10 <_fputs_r+0x48>

00807e3c <fputs>:
  807e3c:	01802074 	movhi	r6,129
  807e40:	31a95e04 	addi	r6,r6,-23176
  807e44:	2007883a 	mov	r3,r4
  807e48:	31000017 	ldw	r4,0(r6)
  807e4c:	280d883a 	mov	r6,r5
  807e50:	180b883a 	mov	r5,r3
  807e54:	0807dc81 	jmpi	807dc8 <_fputs_r>

00807e58 <__sfvwrite_r>:
  807e58:	30800217 	ldw	r2,8(r6)
  807e5c:	defff504 	addi	sp,sp,-44
  807e60:	df000915 	stw	fp,36(sp)
  807e64:	dd800715 	stw	r22,28(sp)
  807e68:	dc800315 	stw	r18,12(sp)
  807e6c:	dfc00a15 	stw	ra,40(sp)
  807e70:	ddc00815 	stw	r23,32(sp)
  807e74:	dd400615 	stw	r21,24(sp)
  807e78:	dd000515 	stw	r20,20(sp)
  807e7c:	dcc00415 	stw	r19,16(sp)
  807e80:	dc400215 	stw	r17,8(sp)
  807e84:	dc000115 	stw	r16,4(sp)
  807e88:	302d883a 	mov	r22,r6
  807e8c:	2039883a 	mov	fp,r4
  807e90:	2825883a 	mov	r18,r5
  807e94:	10001c26 	beq	r2,zero,807f08 <__sfvwrite_r+0xb0>
  807e98:	29c0030b 	ldhu	r7,12(r5)
  807e9c:	3880020c 	andi	r2,r7,8
  807ea0:	10002726 	beq	r2,zero,807f40 <__sfvwrite_r+0xe8>
  807ea4:	28800417 	ldw	r2,16(r5)
  807ea8:	10002526 	beq	r2,zero,807f40 <__sfvwrite_r+0xe8>
  807eac:	3880008c 	andi	r2,r7,2
  807eb0:	b5400017 	ldw	r21,0(r22)
  807eb4:	10002826 	beq	r2,zero,807f58 <__sfvwrite_r+0x100>
  807eb8:	0021883a 	mov	r16,zero
  807ebc:	0023883a 	mov	r17,zero
  807ec0:	880d883a 	mov	r6,r17
  807ec4:	e009883a 	mov	r4,fp
  807ec8:	00810004 	movi	r2,1024
  807ecc:	80006e26 	beq	r16,zero,808088 <__sfvwrite_r+0x230>
  807ed0:	800f883a 	mov	r7,r16
  807ed4:	91400717 	ldw	r5,28(r18)
  807ed8:	1400012e 	bgeu	r2,r16,807ee0 <__sfvwrite_r+0x88>
  807edc:	100f883a 	mov	r7,r2
  807ee0:	90c00917 	ldw	r3,36(r18)
  807ee4:	183ee83a 	callr	r3
  807ee8:	1007883a 	mov	r3,r2
  807eec:	80a1c83a 	sub	r16,r16,r2
  807ef0:	88a3883a 	add	r17,r17,r2
  807ef4:	00806d0e 	bge	zero,r2,8080ac <__sfvwrite_r+0x254>
  807ef8:	b0800217 	ldw	r2,8(r22)
  807efc:	10c5c83a 	sub	r2,r2,r3
  807f00:	b0800215 	stw	r2,8(r22)
  807f04:	103fee1e 	bne	r2,zero,807ec0 <__sfvwrite_r+0x68>
  807f08:	0009883a 	mov	r4,zero
  807f0c:	2005883a 	mov	r2,r4
  807f10:	dfc00a17 	ldw	ra,40(sp)
  807f14:	df000917 	ldw	fp,36(sp)
  807f18:	ddc00817 	ldw	r23,32(sp)
  807f1c:	dd800717 	ldw	r22,28(sp)
  807f20:	dd400617 	ldw	r21,24(sp)
  807f24:	dd000517 	ldw	r20,20(sp)
  807f28:	dcc00417 	ldw	r19,16(sp)
  807f2c:	dc800317 	ldw	r18,12(sp)
  807f30:	dc400217 	ldw	r17,8(sp)
  807f34:	dc000117 	ldw	r16,4(sp)
  807f38:	dec00b04 	addi	sp,sp,44
  807f3c:	f800283a 	ret
  807f40:	08084c00 	call	8084c0 <__swsetup_r>
  807f44:	1000e41e 	bne	r2,zero,8082d8 <__sfvwrite_r+0x480>
  807f48:	91c0030b 	ldhu	r7,12(r18)
  807f4c:	b5400017 	ldw	r21,0(r22)
  807f50:	3880008c 	andi	r2,r7,2
  807f54:	103fd81e 	bne	r2,zero,807eb8 <__sfvwrite_r+0x60>
  807f58:	3880004c 	andi	r2,r7,1
  807f5c:	1005003a 	cmpeq	r2,r2,zero
  807f60:	10005726 	beq	r2,zero,8080c0 <__sfvwrite_r+0x268>
  807f64:	0029883a 	mov	r20,zero
  807f68:	002f883a 	mov	r23,zero
  807f6c:	a0004226 	beq	r20,zero,808078 <__sfvwrite_r+0x220>
  807f70:	3880800c 	andi	r2,r7,512
  807f74:	94000217 	ldw	r16,8(r18)
  807f78:	10008b26 	beq	r2,zero,8081a8 <__sfvwrite_r+0x350>
  807f7c:	800d883a 	mov	r6,r16
  807f80:	a400a536 	bltu	r20,r16,808218 <__sfvwrite_r+0x3c0>
  807f84:	3881200c 	andi	r2,r7,1152
  807f88:	10002726 	beq	r2,zero,808028 <__sfvwrite_r+0x1d0>
  807f8c:	90800517 	ldw	r2,20(r18)
  807f90:	92000417 	ldw	r8,16(r18)
  807f94:	91400017 	ldw	r5,0(r18)
  807f98:	1087883a 	add	r3,r2,r2
  807f9c:	1887883a 	add	r3,r3,r2
  807fa0:	1808d7fa 	srli	r4,r3,31
  807fa4:	2a21c83a 	sub	r16,r5,r8
  807fa8:	80800044 	addi	r2,r16,1
  807fac:	20c9883a 	add	r4,r4,r3
  807fb0:	2027d07a 	srai	r19,r4,1
  807fb4:	a085883a 	add	r2,r20,r2
  807fb8:	980d883a 	mov	r6,r19
  807fbc:	9880022e 	bgeu	r19,r2,807fc8 <__sfvwrite_r+0x170>
  807fc0:	1027883a 	mov	r19,r2
  807fc4:	100d883a 	mov	r6,r2
  807fc8:	3881000c 	andi	r2,r7,1024
  807fcc:	1000b826 	beq	r2,zero,8082b0 <__sfvwrite_r+0x458>
  807fd0:	300b883a 	mov	r5,r6
  807fd4:	e009883a 	mov	r4,fp
  807fd8:	0801dc40 	call	801dc4 <_malloc_r>
  807fdc:	10003126 	beq	r2,zero,8080a4 <__sfvwrite_r+0x24c>
  807fe0:	91400417 	ldw	r5,16(r18)
  807fe4:	1009883a 	mov	r4,r2
  807fe8:	800d883a 	mov	r6,r16
  807fec:	1023883a 	mov	r17,r2
  807ff0:	08025040 	call	802504 <memcpy>
  807ff4:	90c0030b 	ldhu	r3,12(r18)
  807ff8:	00beffc4 	movi	r2,-1025
  807ffc:	1886703a 	and	r3,r3,r2
  808000:	18c02014 	ori	r3,r3,128
  808004:	90c0030d 	sth	r3,12(r18)
  808008:	9c07c83a 	sub	r3,r19,r16
  80800c:	8c05883a 	add	r2,r17,r16
  808010:	a00d883a 	mov	r6,r20
  808014:	a021883a 	mov	r16,r20
  808018:	90800015 	stw	r2,0(r18)
  80801c:	90c00215 	stw	r3,8(r18)
  808020:	94400415 	stw	r17,16(r18)
  808024:	94c00515 	stw	r19,20(r18)
  808028:	91000017 	ldw	r4,0(r18)
  80802c:	b80b883a 	mov	r5,r23
  808030:	a023883a 	mov	r17,r20
  808034:	08064940 	call	806494 <memmove>
  808038:	90c00217 	ldw	r3,8(r18)
  80803c:	90800017 	ldw	r2,0(r18)
  808040:	a027883a 	mov	r19,r20
  808044:	1c07c83a 	sub	r3,r3,r16
  808048:	1405883a 	add	r2,r2,r16
  80804c:	90c00215 	stw	r3,8(r18)
  808050:	a021883a 	mov	r16,r20
  808054:	90800015 	stw	r2,0(r18)
  808058:	b0800217 	ldw	r2,8(r22)
  80805c:	1405c83a 	sub	r2,r2,r16
  808060:	b0800215 	stw	r2,8(r22)
  808064:	103fa826 	beq	r2,zero,807f08 <__sfvwrite_r+0xb0>
  808068:	a469c83a 	sub	r20,r20,r17
  80806c:	91c0030b 	ldhu	r7,12(r18)
  808070:	bcef883a 	add	r23,r23,r19
  808074:	a03fbe1e 	bne	r20,zero,807f70 <__sfvwrite_r+0x118>
  808078:	adc00017 	ldw	r23,0(r21)
  80807c:	ad000117 	ldw	r20,4(r21)
  808080:	ad400204 	addi	r21,r21,8
  808084:	003fb906 	br	807f6c <__sfvwrite_r+0x114>
  808088:	ac400017 	ldw	r17,0(r21)
  80808c:	ac000117 	ldw	r16,4(r21)
  808090:	ad400204 	addi	r21,r21,8
  808094:	003f8a06 	br	807ec0 <__sfvwrite_r+0x68>
  808098:	91400417 	ldw	r5,16(r18)
  80809c:	e009883a 	mov	r4,fp
  8080a0:	080328c0 	call	80328c <_free_r>
  8080a4:	00800304 	movi	r2,12
  8080a8:	e0800015 	stw	r2,0(fp)
  8080ac:	9080030b 	ldhu	r2,12(r18)
  8080b0:	013fffc4 	movi	r4,-1
  8080b4:	10801014 	ori	r2,r2,64
  8080b8:	9080030d 	sth	r2,12(r18)
  8080bc:	003f9306 	br	807f0c <__sfvwrite_r+0xb4>
  8080c0:	0027883a 	mov	r19,zero
  8080c4:	002f883a 	mov	r23,zero
  8080c8:	d8000015 	stw	zero,0(sp)
  8080cc:	0029883a 	mov	r20,zero
  8080d0:	98001e26 	beq	r19,zero,80814c <__sfvwrite_r+0x2f4>
  8080d4:	d8c00017 	ldw	r3,0(sp)
  8080d8:	1804c03a 	cmpne	r2,r3,zero
  8080dc:	10005e26 	beq	r2,zero,808258 <__sfvwrite_r+0x400>
  8080e0:	9821883a 	mov	r16,r19
  8080e4:	a4c0012e 	bgeu	r20,r19,8080ec <__sfvwrite_r+0x294>
  8080e8:	a021883a 	mov	r16,r20
  8080ec:	91000017 	ldw	r4,0(r18)
  8080f0:	90800417 	ldw	r2,16(r18)
  8080f4:	91800217 	ldw	r6,8(r18)
  8080f8:	91c00517 	ldw	r7,20(r18)
  8080fc:	1100022e 	bgeu	r2,r4,808108 <__sfvwrite_r+0x2b0>
  808100:	31e3883a 	add	r17,r6,r7
  808104:	8c001616 	blt	r17,r16,808160 <__sfvwrite_r+0x308>
  808108:	81c03816 	blt	r16,r7,8081ec <__sfvwrite_r+0x394>
  80810c:	90c00917 	ldw	r3,36(r18)
  808110:	91400717 	ldw	r5,28(r18)
  808114:	e009883a 	mov	r4,fp
  808118:	b80d883a 	mov	r6,r23
  80811c:	183ee83a 	callr	r3
  808120:	1023883a 	mov	r17,r2
  808124:	00bfe10e 	bge	zero,r2,8080ac <__sfvwrite_r+0x254>
  808128:	a469c83a 	sub	r20,r20,r17
  80812c:	a0001826 	beq	r20,zero,808190 <__sfvwrite_r+0x338>
  808130:	b0800217 	ldw	r2,8(r22)
  808134:	1445c83a 	sub	r2,r2,r17
  808138:	b0800215 	stw	r2,8(r22)
  80813c:	103f7226 	beq	r2,zero,807f08 <__sfvwrite_r+0xb0>
  808140:	9c67c83a 	sub	r19,r19,r17
  808144:	bc6f883a 	add	r23,r23,r17
  808148:	983fe21e 	bne	r19,zero,8080d4 <__sfvwrite_r+0x27c>
  80814c:	adc00017 	ldw	r23,0(r21)
  808150:	acc00117 	ldw	r19,4(r21)
  808154:	ad400204 	addi	r21,r21,8
  808158:	d8000015 	stw	zero,0(sp)
  80815c:	003fdc06 	br	8080d0 <__sfvwrite_r+0x278>
  808160:	b80b883a 	mov	r5,r23
  808164:	880d883a 	mov	r6,r17
  808168:	08064940 	call	806494 <memmove>
  80816c:	90c00017 	ldw	r3,0(r18)
  808170:	e009883a 	mov	r4,fp
  808174:	900b883a 	mov	r5,r18
  808178:	1c47883a 	add	r3,r3,r17
  80817c:	90c00015 	stw	r3,0(r18)
  808180:	08087b00 	call	8087b0 <_fflush_r>
  808184:	103fc91e 	bne	r2,zero,8080ac <__sfvwrite_r+0x254>
  808188:	a469c83a 	sub	r20,r20,r17
  80818c:	a03fe81e 	bne	r20,zero,808130 <__sfvwrite_r+0x2d8>
  808190:	e009883a 	mov	r4,fp
  808194:	900b883a 	mov	r5,r18
  808198:	08087b00 	call	8087b0 <_fflush_r>
  80819c:	103fc31e 	bne	r2,zero,8080ac <__sfvwrite_r+0x254>
  8081a0:	d8000015 	stw	zero,0(sp)
  8081a4:	003fe206 	br	808130 <__sfvwrite_r+0x2d8>
  8081a8:	91000017 	ldw	r4,0(r18)
  8081ac:	90800417 	ldw	r2,16(r18)
  8081b0:	1100022e 	bgeu	r2,r4,8081bc <__sfvwrite_r+0x364>
  8081b4:	8023883a 	mov	r17,r16
  8081b8:	85003136 	bltu	r16,r20,808280 <__sfvwrite_r+0x428>
  8081bc:	91c00517 	ldw	r7,20(r18)
  8081c0:	a1c01836 	bltu	r20,r7,808224 <__sfvwrite_r+0x3cc>
  8081c4:	90c00917 	ldw	r3,36(r18)
  8081c8:	91400717 	ldw	r5,28(r18)
  8081cc:	e009883a 	mov	r4,fp
  8081d0:	b80d883a 	mov	r6,r23
  8081d4:	183ee83a 	callr	r3
  8081d8:	1021883a 	mov	r16,r2
  8081dc:	00bfb30e 	bge	zero,r2,8080ac <__sfvwrite_r+0x254>
  8081e0:	1023883a 	mov	r17,r2
  8081e4:	1027883a 	mov	r19,r2
  8081e8:	003f9b06 	br	808058 <__sfvwrite_r+0x200>
  8081ec:	b80b883a 	mov	r5,r23
  8081f0:	800d883a 	mov	r6,r16
  8081f4:	08064940 	call	806494 <memmove>
  8081f8:	90c00217 	ldw	r3,8(r18)
  8081fc:	90800017 	ldw	r2,0(r18)
  808200:	8023883a 	mov	r17,r16
  808204:	1c07c83a 	sub	r3,r3,r16
  808208:	1405883a 	add	r2,r2,r16
  80820c:	90c00215 	stw	r3,8(r18)
  808210:	90800015 	stw	r2,0(r18)
  808214:	003fc406 	br	808128 <__sfvwrite_r+0x2d0>
  808218:	a00d883a 	mov	r6,r20
  80821c:	a021883a 	mov	r16,r20
  808220:	003f8106 	br	808028 <__sfvwrite_r+0x1d0>
  808224:	b80b883a 	mov	r5,r23
  808228:	a00d883a 	mov	r6,r20
  80822c:	08064940 	call	806494 <memmove>
  808230:	90c00217 	ldw	r3,8(r18)
  808234:	90800017 	ldw	r2,0(r18)
  808238:	a021883a 	mov	r16,r20
  80823c:	1d07c83a 	sub	r3,r3,r20
  808240:	1505883a 	add	r2,r2,r20
  808244:	a023883a 	mov	r17,r20
  808248:	a027883a 	mov	r19,r20
  80824c:	90c00215 	stw	r3,8(r18)
  808250:	90800015 	stw	r2,0(r18)
  808254:	003f8006 	br	808058 <__sfvwrite_r+0x200>
  808258:	b809883a 	mov	r4,r23
  80825c:	01400284 	movi	r5,10
  808260:	980d883a 	mov	r6,r19
  808264:	08082f40 	call	8082f4 <memchr>
  808268:	10001726 	beq	r2,zero,8082c8 <__sfvwrite_r+0x470>
  80826c:	15c5c83a 	sub	r2,r2,r23
  808270:	15000044 	addi	r20,r2,1
  808274:	00800044 	movi	r2,1
  808278:	d8800015 	stw	r2,0(sp)
  80827c:	003f9806 	br	8080e0 <__sfvwrite_r+0x288>
  808280:	b80b883a 	mov	r5,r23
  808284:	800d883a 	mov	r6,r16
  808288:	08064940 	call	806494 <memmove>
  80828c:	90c00017 	ldw	r3,0(r18)
  808290:	e009883a 	mov	r4,fp
  808294:	900b883a 	mov	r5,r18
  808298:	1c07883a 	add	r3,r3,r16
  80829c:	90c00015 	stw	r3,0(r18)
  8082a0:	8027883a 	mov	r19,r16
  8082a4:	08087b00 	call	8087b0 <_fflush_r>
  8082a8:	103f6b26 	beq	r2,zero,808058 <__sfvwrite_r+0x200>
  8082ac:	003f7f06 	br	8080ac <__sfvwrite_r+0x254>
  8082b0:	400b883a 	mov	r5,r8
  8082b4:	e009883a 	mov	r4,fp
  8082b8:	08045940 	call	804594 <_realloc_r>
  8082bc:	103f7626 	beq	r2,zero,808098 <__sfvwrite_r+0x240>
  8082c0:	1023883a 	mov	r17,r2
  8082c4:	003f5006 	br	808008 <__sfvwrite_r+0x1b0>
  8082c8:	00c00044 	movi	r3,1
  8082cc:	9d000044 	addi	r20,r19,1
  8082d0:	d8c00015 	stw	r3,0(sp)
  8082d4:	003f8206 	br	8080e0 <__sfvwrite_r+0x288>
  8082d8:	9080030b 	ldhu	r2,12(r18)
  8082dc:	00c00244 	movi	r3,9
  8082e0:	013fffc4 	movi	r4,-1
  8082e4:	10801014 	ori	r2,r2,64
  8082e8:	9080030d 	sth	r2,12(r18)
  8082ec:	e0c00015 	stw	r3,0(fp)
  8082f0:	003f0606 	br	807f0c <__sfvwrite_r+0xb4>

008082f4 <memchr>:
  8082f4:	008000c4 	movi	r2,3
  8082f8:	29403fcc 	andi	r5,r5,255
  8082fc:	2007883a 	mov	r3,r4
  808300:	1180022e 	bgeu	r2,r6,80830c <memchr+0x18>
  808304:	2084703a 	and	r2,r4,r2
  808308:	10000b26 	beq	r2,zero,808338 <memchr+0x44>
  80830c:	313fffc4 	addi	r4,r6,-1
  808310:	3000051e 	bne	r6,zero,808328 <memchr+0x34>
  808314:	00002c06 	br	8083c8 <memchr+0xd4>
  808318:	213fffc4 	addi	r4,r4,-1
  80831c:	00bfffc4 	movi	r2,-1
  808320:	18c00044 	addi	r3,r3,1
  808324:	20802826 	beq	r4,r2,8083c8 <memchr+0xd4>
  808328:	18800003 	ldbu	r2,0(r3)
  80832c:	28bffa1e 	bne	r5,r2,808318 <memchr+0x24>
  808330:	1805883a 	mov	r2,r3
  808334:	f800283a 	ret
  808338:	0011883a 	mov	r8,zero
  80833c:	0007883a 	mov	r3,zero
  808340:	01c00104 	movi	r7,4
  808344:	4004923a 	slli	r2,r8,8
  808348:	18c00044 	addi	r3,r3,1
  80834c:	1151883a 	add	r8,r2,r5
  808350:	19fffc1e 	bne	r3,r7,808344 <memchr+0x50>
  808354:	02bfbff4 	movhi	r10,65279
  808358:	52bfbfc4 	addi	r10,r10,-257
  80835c:	02602074 	movhi	r9,32897
  808360:	4a602004 	addi	r9,r9,-32640
  808364:	02c000c4 	movi	r11,3
  808368:	20800017 	ldw	r2,0(r4)
  80836c:	31bfff04 	addi	r6,r6,-4
  808370:	200f883a 	mov	r7,r4
  808374:	1204f03a 	xor	r2,r2,r8
  808378:	1287883a 	add	r3,r2,r10
  80837c:	1a46703a 	and	r3,r3,r9
  808380:	0084303a 	nor	r2,zero,r2
  808384:	10c4703a 	and	r2,r2,r3
  808388:	10000b26 	beq	r2,zero,8083b8 <memchr+0xc4>
  80838c:	20800003 	ldbu	r2,0(r4)
  808390:	28800f26 	beq	r5,r2,8083d0 <memchr+0xdc>
  808394:	20800043 	ldbu	r2,1(r4)
  808398:	21c00044 	addi	r7,r4,1
  80839c:	28800c26 	beq	r5,r2,8083d0 <memchr+0xdc>
  8083a0:	20800083 	ldbu	r2,2(r4)
  8083a4:	21c00084 	addi	r7,r4,2
  8083a8:	28800926 	beq	r5,r2,8083d0 <memchr+0xdc>
  8083ac:	208000c3 	ldbu	r2,3(r4)
  8083b0:	21c000c4 	addi	r7,r4,3
  8083b4:	28800626 	beq	r5,r2,8083d0 <memchr+0xdc>
  8083b8:	21000104 	addi	r4,r4,4
  8083bc:	59bfea36 	bltu	r11,r6,808368 <memchr+0x74>
  8083c0:	2007883a 	mov	r3,r4
  8083c4:	003fd106 	br	80830c <memchr+0x18>
  8083c8:	0005883a 	mov	r2,zero
  8083cc:	f800283a 	ret
  8083d0:	3805883a 	mov	r2,r7
  8083d4:	f800283a 	ret

008083d8 <memcmp>:
  8083d8:	00c000c4 	movi	r3,3
  8083dc:	1980032e 	bgeu	r3,r6,8083ec <memcmp+0x14>
  8083e0:	2144b03a 	or	r2,r4,r5
  8083e4:	10c4703a 	and	r2,r2,r3
  8083e8:	10000f26 	beq	r2,zero,808428 <memcmp+0x50>
  8083ec:	31ffffc4 	addi	r7,r6,-1
  8083f0:	3000061e 	bne	r6,zero,80840c <memcmp+0x34>
  8083f4:	00000a06 	br	808420 <memcmp+0x48>
  8083f8:	39ffffc4 	addi	r7,r7,-1
  8083fc:	00bfffc4 	movi	r2,-1
  808400:	21000044 	addi	r4,r4,1
  808404:	29400044 	addi	r5,r5,1
  808408:	38800526 	beq	r7,r2,808420 <memcmp+0x48>
  80840c:	20c00003 	ldbu	r3,0(r4)
  808410:	28800003 	ldbu	r2,0(r5)
  808414:	18bff826 	beq	r3,r2,8083f8 <memcmp+0x20>
  808418:	1885c83a 	sub	r2,r3,r2
  80841c:	f800283a 	ret
  808420:	0005883a 	mov	r2,zero
  808424:	f800283a 	ret
  808428:	180f883a 	mov	r7,r3
  80842c:	20c00017 	ldw	r3,0(r4)
  808430:	28800017 	ldw	r2,0(r5)
  808434:	18bfed1e 	bne	r3,r2,8083ec <memcmp+0x14>
  808438:	31bfff04 	addi	r6,r6,-4
  80843c:	21000104 	addi	r4,r4,4
  808440:	29400104 	addi	r5,r5,4
  808444:	39bff936 	bltu	r7,r6,80842c <memcmp+0x54>
  808448:	003fe806 	br	8083ec <memcmp+0x14>

0080844c <strlen>:
  80844c:	208000cc 	andi	r2,r4,3
  808450:	2011883a 	mov	r8,r4
  808454:	1000161e 	bne	r2,zero,8084b0 <strlen+0x64>
  808458:	20c00017 	ldw	r3,0(r4)
  80845c:	017fbff4 	movhi	r5,65279
  808460:	297fbfc4 	addi	r5,r5,-257
  808464:	01e02074 	movhi	r7,32897
  808468:	39e02004 	addi	r7,r7,-32640
  80846c:	1945883a 	add	r2,r3,r5
  808470:	11c4703a 	and	r2,r2,r7
  808474:	00c6303a 	nor	r3,zero,r3
  808478:	1886703a 	and	r3,r3,r2
  80847c:	18000c1e 	bne	r3,zero,8084b0 <strlen+0x64>
  808480:	280d883a 	mov	r6,r5
  808484:	380b883a 	mov	r5,r7
  808488:	21000104 	addi	r4,r4,4
  80848c:	20800017 	ldw	r2,0(r4)
  808490:	1187883a 	add	r3,r2,r6
  808494:	1946703a 	and	r3,r3,r5
  808498:	0084303a 	nor	r2,zero,r2
  80849c:	10c4703a 	and	r2,r2,r3
  8084a0:	103ff926 	beq	r2,zero,808488 <strlen+0x3c>
  8084a4:	20800007 	ldb	r2,0(r4)
  8084a8:	10000326 	beq	r2,zero,8084b8 <strlen+0x6c>
  8084ac:	21000044 	addi	r4,r4,1
  8084b0:	20800007 	ldb	r2,0(r4)
  8084b4:	103ffd1e 	bne	r2,zero,8084ac <strlen+0x60>
  8084b8:	2205c83a 	sub	r2,r4,r8
  8084bc:	f800283a 	ret

008084c0 <__swsetup_r>:
  8084c0:	00802074 	movhi	r2,129
  8084c4:	10a95e04 	addi	r2,r2,-23176
  8084c8:	10c00017 	ldw	r3,0(r2)
  8084cc:	defffd04 	addi	sp,sp,-12
  8084d0:	dc400115 	stw	r17,4(sp)
  8084d4:	dc000015 	stw	r16,0(sp)
  8084d8:	dfc00215 	stw	ra,8(sp)
  8084dc:	2023883a 	mov	r17,r4
  8084e0:	2821883a 	mov	r16,r5
  8084e4:	18000226 	beq	r3,zero,8084f0 <__swsetup_r+0x30>
  8084e8:	18800e17 	ldw	r2,56(r3)
  8084ec:	10001f26 	beq	r2,zero,80856c <__swsetup_r+0xac>
  8084f0:	8100030b 	ldhu	r4,12(r16)
  8084f4:	2080020c 	andi	r2,r4,8
  8084f8:	10002826 	beq	r2,zero,80859c <__swsetup_r+0xdc>
  8084fc:	81400417 	ldw	r5,16(r16)
  808500:	28001d26 	beq	r5,zero,808578 <__swsetup_r+0xb8>
  808504:	2080004c 	andi	r2,r4,1
  808508:	1005003a 	cmpeq	r2,r2,zero
  80850c:	10000b26 	beq	r2,zero,80853c <__swsetup_r+0x7c>
  808510:	2080008c 	andi	r2,r4,2
  808514:	10001226 	beq	r2,zero,808560 <__swsetup_r+0xa0>
  808518:	0005883a 	mov	r2,zero
  80851c:	80800215 	stw	r2,8(r16)
  808520:	28000b26 	beq	r5,zero,808550 <__swsetup_r+0x90>
  808524:	0005883a 	mov	r2,zero
  808528:	dfc00217 	ldw	ra,8(sp)
  80852c:	dc400117 	ldw	r17,4(sp)
  808530:	dc000017 	ldw	r16,0(sp)
  808534:	dec00304 	addi	sp,sp,12
  808538:	f800283a 	ret
  80853c:	80800517 	ldw	r2,20(r16)
  808540:	80000215 	stw	zero,8(r16)
  808544:	0085c83a 	sub	r2,zero,r2
  808548:	80800615 	stw	r2,24(r16)
  80854c:	283ff51e 	bne	r5,zero,808524 <__swsetup_r+0x64>
  808550:	2080200c 	andi	r2,r4,128
  808554:	103ff326 	beq	r2,zero,808524 <__swsetup_r+0x64>
  808558:	00bfffc4 	movi	r2,-1
  80855c:	003ff206 	br	808528 <__swsetup_r+0x68>
  808560:	80800517 	ldw	r2,20(r16)
  808564:	80800215 	stw	r2,8(r16)
  808568:	003fed06 	br	808520 <__swsetup_r+0x60>
  80856c:	1809883a 	mov	r4,r3
  808570:	0808a480 	call	808a48 <__sinit>
  808574:	003fde06 	br	8084f0 <__swsetup_r+0x30>
  808578:	20c0a00c 	andi	r3,r4,640
  80857c:	00808004 	movi	r2,512
  808580:	18bfe026 	beq	r3,r2,808504 <__swsetup_r+0x44>
  808584:	8809883a 	mov	r4,r17
  808588:	800b883a 	mov	r5,r16
  80858c:	0808e200 	call	808e20 <__smakebuf_r>
  808590:	8100030b 	ldhu	r4,12(r16)
  808594:	81400417 	ldw	r5,16(r16)
  808598:	003fda06 	br	808504 <__swsetup_r+0x44>
  80859c:	2080040c 	andi	r2,r4,16
  8085a0:	103fed26 	beq	r2,zero,808558 <__swsetup_r+0x98>
  8085a4:	2080010c 	andi	r2,r4,4
  8085a8:	10001226 	beq	r2,zero,8085f4 <__swsetup_r+0x134>
  8085ac:	81400c17 	ldw	r5,48(r16)
  8085b0:	28000526 	beq	r5,zero,8085c8 <__swsetup_r+0x108>
  8085b4:	80801004 	addi	r2,r16,64
  8085b8:	28800226 	beq	r5,r2,8085c4 <__swsetup_r+0x104>
  8085bc:	8809883a 	mov	r4,r17
  8085c0:	080328c0 	call	80328c <_free_r>
  8085c4:	80000c15 	stw	zero,48(r16)
  8085c8:	8080030b 	ldhu	r2,12(r16)
  8085cc:	81400417 	ldw	r5,16(r16)
  8085d0:	80000115 	stw	zero,4(r16)
  8085d4:	10bff6cc 	andi	r2,r2,65499
  8085d8:	8080030d 	sth	r2,12(r16)
  8085dc:	81400015 	stw	r5,0(r16)
  8085e0:	8080030b 	ldhu	r2,12(r16)
  8085e4:	10800214 	ori	r2,r2,8
  8085e8:	113fffcc 	andi	r4,r2,65535
  8085ec:	8080030d 	sth	r2,12(r16)
  8085f0:	003fc306 	br	808500 <__swsetup_r+0x40>
  8085f4:	81400417 	ldw	r5,16(r16)
  8085f8:	003ff906 	br	8085e0 <__swsetup_r+0x120>

008085fc <register_fini>:
  8085fc:	f800283a 	ret

00808600 <__call_exitprocs>:
  808600:	00802074 	movhi	r2,129
  808604:	10a95f04 	addi	r2,r2,-23172
  808608:	10800017 	ldw	r2,0(r2)
  80860c:	defff304 	addi	sp,sp,-52
  808610:	df000b15 	stw	fp,44(sp)
  808614:	d8800115 	stw	r2,4(sp)
  808618:	00802034 	movhi	r2,128
  80861c:	10876704 	addi	r2,r2,7580
  808620:	1005003a 	cmpeq	r2,r2,zero
  808624:	d8800215 	stw	r2,8(sp)
  808628:	d8800117 	ldw	r2,4(sp)
  80862c:	dd400815 	stw	r21,32(sp)
  808630:	dd000715 	stw	r20,28(sp)
  808634:	10805204 	addi	r2,r2,328
  808638:	dfc00c15 	stw	ra,48(sp)
  80863c:	ddc00a15 	stw	r23,40(sp)
  808640:	dd800915 	stw	r22,36(sp)
  808644:	dcc00615 	stw	r19,24(sp)
  808648:	dc800515 	stw	r18,20(sp)
  80864c:	dc400415 	stw	r17,16(sp)
  808650:	dc000315 	stw	r16,12(sp)
  808654:	282b883a 	mov	r21,r5
  808658:	2039883a 	mov	fp,r4
  80865c:	d8800015 	stw	r2,0(sp)
  808660:	2829003a 	cmpeq	r20,r5,zero
  808664:	d8800117 	ldw	r2,4(sp)
  808668:	14405217 	ldw	r17,328(r2)
  80866c:	88001026 	beq	r17,zero,8086b0 <__call_exitprocs+0xb0>
  808670:	ddc00017 	ldw	r23,0(sp)
  808674:	88800117 	ldw	r2,4(r17)
  808678:	8c802204 	addi	r18,r17,136
  80867c:	143fffc4 	addi	r16,r2,-1
  808680:	80000916 	blt	r16,zero,8086a8 <__call_exitprocs+0xa8>
  808684:	05bfffc4 	movi	r22,-1
  808688:	a000151e 	bne	r20,zero,8086e0 <__call_exitprocs+0xe0>
  80868c:	8409883a 	add	r4,r16,r16
  808690:	2105883a 	add	r2,r4,r4
  808694:	1485883a 	add	r2,r2,r18
  808698:	10c02017 	ldw	r3,128(r2)
  80869c:	a8c01126 	beq	r21,r3,8086e4 <__call_exitprocs+0xe4>
  8086a0:	843fffc4 	addi	r16,r16,-1
  8086a4:	85bff81e 	bne	r16,r22,808688 <__call_exitprocs+0x88>
  8086a8:	d8800217 	ldw	r2,8(sp)
  8086ac:	10003126 	beq	r2,zero,808774 <__call_exitprocs+0x174>
  8086b0:	dfc00c17 	ldw	ra,48(sp)
  8086b4:	df000b17 	ldw	fp,44(sp)
  8086b8:	ddc00a17 	ldw	r23,40(sp)
  8086bc:	dd800917 	ldw	r22,36(sp)
  8086c0:	dd400817 	ldw	r21,32(sp)
  8086c4:	dd000717 	ldw	r20,28(sp)
  8086c8:	dcc00617 	ldw	r19,24(sp)
  8086cc:	dc800517 	ldw	r18,20(sp)
  8086d0:	dc400417 	ldw	r17,16(sp)
  8086d4:	dc000317 	ldw	r16,12(sp)
  8086d8:	dec00d04 	addi	sp,sp,52
  8086dc:	f800283a 	ret
  8086e0:	8409883a 	add	r4,r16,r16
  8086e4:	88c00117 	ldw	r3,4(r17)
  8086e8:	2105883a 	add	r2,r4,r4
  8086ec:	1445883a 	add	r2,r2,r17
  8086f0:	18ffffc4 	addi	r3,r3,-1
  8086f4:	11800217 	ldw	r6,8(r2)
  8086f8:	1c001526 	beq	r3,r16,808750 <__call_exitprocs+0x150>
  8086fc:	10000215 	stw	zero,8(r2)
  808700:	303fe726 	beq	r6,zero,8086a0 <__call_exitprocs+0xa0>
  808704:	00c00044 	movi	r3,1
  808708:	1c06983a 	sll	r3,r3,r16
  80870c:	90804017 	ldw	r2,256(r18)
  808710:	8cc00117 	ldw	r19,4(r17)
  808714:	1884703a 	and	r2,r3,r2
  808718:	10001426 	beq	r2,zero,80876c <__call_exitprocs+0x16c>
  80871c:	90804117 	ldw	r2,260(r18)
  808720:	1884703a 	and	r2,r3,r2
  808724:	10000c1e 	bne	r2,zero,808758 <__call_exitprocs+0x158>
  808728:	2105883a 	add	r2,r4,r4
  80872c:	1485883a 	add	r2,r2,r18
  808730:	11400017 	ldw	r5,0(r2)
  808734:	e009883a 	mov	r4,fp
  808738:	303ee83a 	callr	r6
  80873c:	88800117 	ldw	r2,4(r17)
  808740:	98bfc81e 	bne	r19,r2,808664 <__call_exitprocs+0x64>
  808744:	b8800017 	ldw	r2,0(r23)
  808748:	147fd526 	beq	r2,r17,8086a0 <__call_exitprocs+0xa0>
  80874c:	003fc506 	br	808664 <__call_exitprocs+0x64>
  808750:	8c000115 	stw	r16,4(r17)
  808754:	003fea06 	br	808700 <__call_exitprocs+0x100>
  808758:	2105883a 	add	r2,r4,r4
  80875c:	1485883a 	add	r2,r2,r18
  808760:	11000017 	ldw	r4,0(r2)
  808764:	303ee83a 	callr	r6
  808768:	003ff406 	br	80873c <__call_exitprocs+0x13c>
  80876c:	303ee83a 	callr	r6
  808770:	003ff206 	br	80873c <__call_exitprocs+0x13c>
  808774:	88800117 	ldw	r2,4(r17)
  808778:	1000081e 	bne	r2,zero,80879c <__call_exitprocs+0x19c>
  80877c:	89000017 	ldw	r4,0(r17)
  808780:	20000726 	beq	r4,zero,8087a0 <__call_exitprocs+0x1a0>
  808784:	b9000015 	stw	r4,0(r23)
  808788:	8809883a 	mov	r4,r17
  80878c:	0801d9c0 	call	801d9c <free>
  808790:	bc400017 	ldw	r17,0(r23)
  808794:	883fb71e 	bne	r17,zero,808674 <__call_exitprocs+0x74>
  808798:	003fc506 	br	8086b0 <__call_exitprocs+0xb0>
  80879c:	89000017 	ldw	r4,0(r17)
  8087a0:	882f883a 	mov	r23,r17
  8087a4:	2023883a 	mov	r17,r4
  8087a8:	883fb21e 	bne	r17,zero,808674 <__call_exitprocs+0x74>
  8087ac:	003fc006 	br	8086b0 <__call_exitprocs+0xb0>

008087b0 <_fflush_r>:
  8087b0:	defffb04 	addi	sp,sp,-20
  8087b4:	dcc00315 	stw	r19,12(sp)
  8087b8:	dc800215 	stw	r18,8(sp)
  8087bc:	dfc00415 	stw	ra,16(sp)
  8087c0:	dc400115 	stw	r17,4(sp)
  8087c4:	dc000015 	stw	r16,0(sp)
  8087c8:	2027883a 	mov	r19,r4
  8087cc:	2825883a 	mov	r18,r5
  8087d0:	20000226 	beq	r4,zero,8087dc <_fflush_r+0x2c>
  8087d4:	20800e17 	ldw	r2,56(r4)
  8087d8:	10005626 	beq	r2,zero,808934 <_fflush_r+0x184>
  8087dc:	9100030b 	ldhu	r4,12(r18)
  8087e0:	20ffffcc 	andi	r3,r4,65535
  8087e4:	18e0001c 	xori	r3,r3,32768
  8087e8:	18e00004 	addi	r3,r3,-32768
  8087ec:	1880020c 	andi	r2,r3,8
  8087f0:	1000261e 	bne	r2,zero,80888c <_fflush_r+0xdc>
  8087f4:	90c00117 	ldw	r3,4(r18)
  8087f8:	20820014 	ori	r2,r4,2048
  8087fc:	9080030d 	sth	r2,12(r18)
  808800:	1009883a 	mov	r4,r2
  808804:	00c0400e 	bge	zero,r3,808908 <_fflush_r+0x158>
  808808:	92000a17 	ldw	r8,40(r18)
  80880c:	40004026 	beq	r8,zero,808910 <_fflush_r+0x160>
  808810:	2084000c 	andi	r2,r4,4096
  808814:	10005326 	beq	r2,zero,808964 <_fflush_r+0x1b4>
  808818:	94001417 	ldw	r16,80(r18)
  80881c:	9080030b 	ldhu	r2,12(r18)
  808820:	1080010c 	andi	r2,r2,4
  808824:	1000481e 	bne	r2,zero,808948 <_fflush_r+0x198>
  808828:	91400717 	ldw	r5,28(r18)
  80882c:	9809883a 	mov	r4,r19
  808830:	800d883a 	mov	r6,r16
  808834:	000f883a 	mov	r7,zero
  808838:	403ee83a 	callr	r8
  80883c:	8080261e 	bne	r16,r2,8088d8 <_fflush_r+0x128>
  808840:	9080030b 	ldhu	r2,12(r18)
  808844:	91000417 	ldw	r4,16(r18)
  808848:	90000115 	stw	zero,4(r18)
  80884c:	10bdffcc 	andi	r2,r2,63487
  808850:	10ffffcc 	andi	r3,r2,65535
  808854:	18c4000c 	andi	r3,r3,4096
  808858:	9080030d 	sth	r2,12(r18)
  80885c:	91000015 	stw	r4,0(r18)
  808860:	18002b26 	beq	r3,zero,808910 <_fflush_r+0x160>
  808864:	0007883a 	mov	r3,zero
  808868:	1805883a 	mov	r2,r3
  80886c:	94001415 	stw	r16,80(r18)
  808870:	dfc00417 	ldw	ra,16(sp)
  808874:	dcc00317 	ldw	r19,12(sp)
  808878:	dc800217 	ldw	r18,8(sp)
  80887c:	dc400117 	ldw	r17,4(sp)
  808880:	dc000017 	ldw	r16,0(sp)
  808884:	dec00504 	addi	sp,sp,20
  808888:	f800283a 	ret
  80888c:	94400417 	ldw	r17,16(r18)
  808890:	88001f26 	beq	r17,zero,808910 <_fflush_r+0x160>
  808894:	90800017 	ldw	r2,0(r18)
  808898:	18c000cc 	andi	r3,r3,3
  80889c:	94400015 	stw	r17,0(r18)
  8088a0:	1461c83a 	sub	r16,r2,r17
  8088a4:	18002526 	beq	r3,zero,80893c <_fflush_r+0x18c>
  8088a8:	0005883a 	mov	r2,zero
  8088ac:	90800215 	stw	r2,8(r18)
  8088b0:	0400170e 	bge	zero,r16,808910 <_fflush_r+0x160>
  8088b4:	90c00917 	ldw	r3,36(r18)
  8088b8:	91400717 	ldw	r5,28(r18)
  8088bc:	880d883a 	mov	r6,r17
  8088c0:	800f883a 	mov	r7,r16
  8088c4:	9809883a 	mov	r4,r19
  8088c8:	183ee83a 	callr	r3
  8088cc:	88a3883a 	add	r17,r17,r2
  8088d0:	80a1c83a 	sub	r16,r16,r2
  8088d4:	00bff616 	blt	zero,r2,8088b0 <_fflush_r+0x100>
  8088d8:	9080030b 	ldhu	r2,12(r18)
  8088dc:	00ffffc4 	movi	r3,-1
  8088e0:	10801014 	ori	r2,r2,64
  8088e4:	9080030d 	sth	r2,12(r18)
  8088e8:	1805883a 	mov	r2,r3
  8088ec:	dfc00417 	ldw	ra,16(sp)
  8088f0:	dcc00317 	ldw	r19,12(sp)
  8088f4:	dc800217 	ldw	r18,8(sp)
  8088f8:	dc400117 	ldw	r17,4(sp)
  8088fc:	dc000017 	ldw	r16,0(sp)
  808900:	dec00504 	addi	sp,sp,20
  808904:	f800283a 	ret
  808908:	90800f17 	ldw	r2,60(r18)
  80890c:	00bfbe16 	blt	zero,r2,808808 <_fflush_r+0x58>
  808910:	0007883a 	mov	r3,zero
  808914:	1805883a 	mov	r2,r3
  808918:	dfc00417 	ldw	ra,16(sp)
  80891c:	dcc00317 	ldw	r19,12(sp)
  808920:	dc800217 	ldw	r18,8(sp)
  808924:	dc400117 	ldw	r17,4(sp)
  808928:	dc000017 	ldw	r16,0(sp)
  80892c:	dec00504 	addi	sp,sp,20
  808930:	f800283a 	ret
  808934:	0808a480 	call	808a48 <__sinit>
  808938:	003fa806 	br	8087dc <_fflush_r+0x2c>
  80893c:	90800517 	ldw	r2,20(r18)
  808940:	90800215 	stw	r2,8(r18)
  808944:	003fda06 	br	8088b0 <_fflush_r+0x100>
  808948:	90800117 	ldw	r2,4(r18)
  80894c:	90c00c17 	ldw	r3,48(r18)
  808950:	80a1c83a 	sub	r16,r16,r2
  808954:	183fb426 	beq	r3,zero,808828 <_fflush_r+0x78>
  808958:	90800f17 	ldw	r2,60(r18)
  80895c:	80a1c83a 	sub	r16,r16,r2
  808960:	003fb106 	br	808828 <_fflush_r+0x78>
  808964:	91400717 	ldw	r5,28(r18)
  808968:	9809883a 	mov	r4,r19
  80896c:	000d883a 	mov	r6,zero
  808970:	01c00044 	movi	r7,1
  808974:	403ee83a 	callr	r8
  808978:	1021883a 	mov	r16,r2
  80897c:	00bfffc4 	movi	r2,-1
  808980:	80800226 	beq	r16,r2,80898c <_fflush_r+0x1dc>
  808984:	92000a17 	ldw	r8,40(r18)
  808988:	003fa406 	br	80881c <_fflush_r+0x6c>
  80898c:	98c00017 	ldw	r3,0(r19)
  808990:	00800744 	movi	r2,29
  808994:	18bfde26 	beq	r3,r2,808910 <_fflush_r+0x160>
  808998:	9080030b 	ldhu	r2,12(r18)
  80899c:	8007883a 	mov	r3,r16
  8089a0:	10801014 	ori	r2,r2,64
  8089a4:	9080030d 	sth	r2,12(r18)
  8089a8:	003fcf06 	br	8088e8 <_fflush_r+0x138>

008089ac <fflush>:
  8089ac:	01402074 	movhi	r5,129
  8089b0:	2961ec04 	addi	r5,r5,-30800
  8089b4:	2007883a 	mov	r3,r4
  8089b8:	20000526 	beq	r4,zero,8089d0 <fflush+0x24>
  8089bc:	00802074 	movhi	r2,129
  8089c0:	10a95e04 	addi	r2,r2,-23176
  8089c4:	11000017 	ldw	r4,0(r2)
  8089c8:	180b883a 	mov	r5,r3
  8089cc:	08087b01 	jmpi	8087b0 <_fflush_r>
  8089d0:	00802074 	movhi	r2,129
  8089d4:	10a95f04 	addi	r2,r2,-23172
  8089d8:	11000017 	ldw	r4,0(r2)
  8089dc:	0808ca01 	jmpi	808ca0 <_fwalk_reent>

008089e0 <std>:
  8089e0:	00802074 	movhi	r2,129
  8089e4:	10a3ed04 	addi	r2,r2,-28748
  8089e8:	20800b15 	stw	r2,44(r4)
  8089ec:	00802074 	movhi	r2,129
  8089f0:	10a42804 	addi	r2,r2,-28512
  8089f4:	20800815 	stw	r2,32(r4)
  8089f8:	00c02074 	movhi	r3,129
  8089fc:	18e40904 	addi	r3,r3,-28636
  808a00:	00802074 	movhi	r2,129
  808a04:	10a3ef04 	addi	r2,r2,-28740
  808a08:	2140030d 	sth	r5,12(r4)
  808a0c:	2180038d 	sth	r6,14(r4)
  808a10:	20c00915 	stw	r3,36(r4)
  808a14:	20800a15 	stw	r2,40(r4)
  808a18:	20000015 	stw	zero,0(r4)
  808a1c:	20000115 	stw	zero,4(r4)
  808a20:	20000215 	stw	zero,8(r4)
  808a24:	20000415 	stw	zero,16(r4)
  808a28:	20000515 	stw	zero,20(r4)
  808a2c:	20000615 	stw	zero,24(r4)
  808a30:	21000715 	stw	r4,28(r4)
  808a34:	f800283a 	ret

00808a38 <__sfp_lock_acquire>:
  808a38:	f800283a 	ret

00808a3c <__sfp_lock_release>:
  808a3c:	f800283a 	ret

00808a40 <__sinit_lock_acquire>:
  808a40:	f800283a 	ret

00808a44 <__sinit_lock_release>:
  808a44:	f800283a 	ret

00808a48 <__sinit>:
  808a48:	20800e17 	ldw	r2,56(r4)
  808a4c:	defffd04 	addi	sp,sp,-12
  808a50:	dc400115 	stw	r17,4(sp)
  808a54:	dc000015 	stw	r16,0(sp)
  808a58:	dfc00215 	stw	ra,8(sp)
  808a5c:	04400044 	movi	r17,1
  808a60:	01400104 	movi	r5,4
  808a64:	000d883a 	mov	r6,zero
  808a68:	2021883a 	mov	r16,r4
  808a6c:	2200bb04 	addi	r8,r4,748
  808a70:	200f883a 	mov	r7,r4
  808a74:	10000526 	beq	r2,zero,808a8c <__sinit+0x44>
  808a78:	dfc00217 	ldw	ra,8(sp)
  808a7c:	dc400117 	ldw	r17,4(sp)
  808a80:	dc000017 	ldw	r16,0(sp)
  808a84:	dec00304 	addi	sp,sp,12
  808a88:	f800283a 	ret
  808a8c:	21000117 	ldw	r4,4(r4)
  808a90:	00802074 	movhi	r2,129
  808a94:	10a2cb04 	addi	r2,r2,-29908
  808a98:	00c000c4 	movi	r3,3
  808a9c:	80800f15 	stw	r2,60(r16)
  808aa0:	80c0b915 	stw	r3,740(r16)
  808aa4:	8200ba15 	stw	r8,744(r16)
  808aa8:	84400e15 	stw	r17,56(r16)
  808aac:	8000b815 	stw	zero,736(r16)
  808ab0:	08089e00 	call	8089e0 <std>
  808ab4:	81000217 	ldw	r4,8(r16)
  808ab8:	880d883a 	mov	r6,r17
  808abc:	800f883a 	mov	r7,r16
  808ac0:	01400284 	movi	r5,10
  808ac4:	08089e00 	call	8089e0 <std>
  808ac8:	81000317 	ldw	r4,12(r16)
  808acc:	800f883a 	mov	r7,r16
  808ad0:	01400484 	movi	r5,18
  808ad4:	01800084 	movi	r6,2
  808ad8:	dfc00217 	ldw	ra,8(sp)
  808adc:	dc400117 	ldw	r17,4(sp)
  808ae0:	dc000017 	ldw	r16,0(sp)
  808ae4:	dec00304 	addi	sp,sp,12
  808ae8:	08089e01 	jmpi	8089e0 <std>

00808aec <__fp_lock>:
  808aec:	0005883a 	mov	r2,zero
  808af0:	f800283a 	ret

00808af4 <__fp_unlock>:
  808af4:	0005883a 	mov	r2,zero
  808af8:	f800283a 	ret

00808afc <__fp_unlock_all>:
  808afc:	00802074 	movhi	r2,129
  808b00:	10a95e04 	addi	r2,r2,-23176
  808b04:	11000017 	ldw	r4,0(r2)
  808b08:	01402074 	movhi	r5,129
  808b0c:	2962bd04 	addi	r5,r5,-29964
  808b10:	0808d681 	jmpi	808d68 <_fwalk>

00808b14 <__fp_lock_all>:
  808b14:	00802074 	movhi	r2,129
  808b18:	10a95e04 	addi	r2,r2,-23176
  808b1c:	11000017 	ldw	r4,0(r2)
  808b20:	01402074 	movhi	r5,129
  808b24:	2962bb04 	addi	r5,r5,-29972
  808b28:	0808d681 	jmpi	808d68 <_fwalk>

00808b2c <_cleanup_r>:
  808b2c:	01402074 	movhi	r5,129
  808b30:	2964be04 	addi	r5,r5,-27912
  808b34:	0808d681 	jmpi	808d68 <_fwalk>

00808b38 <_cleanup>:
  808b38:	00802074 	movhi	r2,129
  808b3c:	10a95f04 	addi	r2,r2,-23172
  808b40:	11000017 	ldw	r4,0(r2)
  808b44:	0808b2c1 	jmpi	808b2c <_cleanup_r>

00808b48 <__sfmoreglue>:
  808b48:	defffc04 	addi	sp,sp,-16
  808b4c:	dc400115 	stw	r17,4(sp)
  808b50:	2c401724 	muli	r17,r5,92
  808b54:	dc800215 	stw	r18,8(sp)
  808b58:	2825883a 	mov	r18,r5
  808b5c:	89400304 	addi	r5,r17,12
  808b60:	dc000015 	stw	r16,0(sp)
  808b64:	dfc00315 	stw	ra,12(sp)
  808b68:	0801dc40 	call	801dc4 <_malloc_r>
  808b6c:	0021883a 	mov	r16,zero
  808b70:	880d883a 	mov	r6,r17
  808b74:	000b883a 	mov	r5,zero
  808b78:	10000626 	beq	r2,zero,808b94 <__sfmoreglue+0x4c>
  808b7c:	11000304 	addi	r4,r2,12
  808b80:	14800115 	stw	r18,4(r2)
  808b84:	10000015 	stw	zero,0(r2)
  808b88:	11000215 	stw	r4,8(r2)
  808b8c:	1021883a 	mov	r16,r2
  808b90:	08065740 	call	806574 <memset>
  808b94:	8005883a 	mov	r2,r16
  808b98:	dfc00317 	ldw	ra,12(sp)
  808b9c:	dc800217 	ldw	r18,8(sp)
  808ba0:	dc400117 	ldw	r17,4(sp)
  808ba4:	dc000017 	ldw	r16,0(sp)
  808ba8:	dec00404 	addi	sp,sp,16
  808bac:	f800283a 	ret

00808bb0 <__sfp>:
  808bb0:	defffd04 	addi	sp,sp,-12
  808bb4:	00802074 	movhi	r2,129
  808bb8:	10a95f04 	addi	r2,r2,-23172
  808bbc:	dc000015 	stw	r16,0(sp)
  808bc0:	14000017 	ldw	r16,0(r2)
  808bc4:	dc400115 	stw	r17,4(sp)
  808bc8:	dfc00215 	stw	ra,8(sp)
  808bcc:	80800e17 	ldw	r2,56(r16)
  808bd0:	2023883a 	mov	r17,r4
  808bd4:	10002626 	beq	r2,zero,808c70 <__sfp+0xc0>
  808bd8:	8400b804 	addi	r16,r16,736
  808bdc:	80800117 	ldw	r2,4(r16)
  808be0:	81000217 	ldw	r4,8(r16)
  808be4:	10ffffc4 	addi	r3,r2,-1
  808be8:	18000916 	blt	r3,zero,808c10 <__sfp+0x60>
  808bec:	2080030f 	ldh	r2,12(r4)
  808bf0:	10000b26 	beq	r2,zero,808c20 <__sfp+0x70>
  808bf4:	017fffc4 	movi	r5,-1
  808bf8:	00000206 	br	808c04 <__sfp+0x54>
  808bfc:	2080030f 	ldh	r2,12(r4)
  808c00:	10000726 	beq	r2,zero,808c20 <__sfp+0x70>
  808c04:	18ffffc4 	addi	r3,r3,-1
  808c08:	21001704 	addi	r4,r4,92
  808c0c:	197ffb1e 	bne	r3,r5,808bfc <__sfp+0x4c>
  808c10:	80800017 	ldw	r2,0(r16)
  808c14:	10001926 	beq	r2,zero,808c7c <__sfp+0xcc>
  808c18:	1021883a 	mov	r16,r2
  808c1c:	003fef06 	br	808bdc <__sfp+0x2c>
  808c20:	00bfffc4 	movi	r2,-1
  808c24:	00c00044 	movi	r3,1
  808c28:	2080038d 	sth	r2,14(r4)
  808c2c:	20c0030d 	sth	r3,12(r4)
  808c30:	20000015 	stw	zero,0(r4)
  808c34:	20000215 	stw	zero,8(r4)
  808c38:	20000115 	stw	zero,4(r4)
  808c3c:	20000415 	stw	zero,16(r4)
  808c40:	20000515 	stw	zero,20(r4)
  808c44:	20000615 	stw	zero,24(r4)
  808c48:	20000c15 	stw	zero,48(r4)
  808c4c:	20000d15 	stw	zero,52(r4)
  808c50:	20001115 	stw	zero,68(r4)
  808c54:	20001215 	stw	zero,72(r4)
  808c58:	2005883a 	mov	r2,r4
  808c5c:	dfc00217 	ldw	ra,8(sp)
  808c60:	dc400117 	ldw	r17,4(sp)
  808c64:	dc000017 	ldw	r16,0(sp)
  808c68:	dec00304 	addi	sp,sp,12
  808c6c:	f800283a 	ret
  808c70:	8009883a 	mov	r4,r16
  808c74:	0808a480 	call	808a48 <__sinit>
  808c78:	003fd706 	br	808bd8 <__sfp+0x28>
  808c7c:	8809883a 	mov	r4,r17
  808c80:	01400104 	movi	r5,4
  808c84:	0808b480 	call	808b48 <__sfmoreglue>
  808c88:	80800015 	stw	r2,0(r16)
  808c8c:	103fe21e 	bne	r2,zero,808c18 <__sfp+0x68>
  808c90:	00800304 	movi	r2,12
  808c94:	0009883a 	mov	r4,zero
  808c98:	88800015 	stw	r2,0(r17)
  808c9c:	003fee06 	br	808c58 <__sfp+0xa8>

00808ca0 <_fwalk_reent>:
  808ca0:	defff704 	addi	sp,sp,-36
  808ca4:	dcc00315 	stw	r19,12(sp)
  808ca8:	24c0b804 	addi	r19,r4,736
  808cac:	dd800615 	stw	r22,24(sp)
  808cb0:	dd400515 	stw	r21,20(sp)
  808cb4:	dfc00815 	stw	ra,32(sp)
  808cb8:	ddc00715 	stw	r23,28(sp)
  808cbc:	dd000415 	stw	r20,16(sp)
  808cc0:	dc800215 	stw	r18,8(sp)
  808cc4:	dc400115 	stw	r17,4(sp)
  808cc8:	dc000015 	stw	r16,0(sp)
  808ccc:	202b883a 	mov	r21,r4
  808cd0:	282d883a 	mov	r22,r5
  808cd4:	0808a380 	call	808a38 <__sfp_lock_acquire>
  808cd8:	98002126 	beq	r19,zero,808d60 <_fwalk_reent+0xc0>
  808cdc:	002f883a 	mov	r23,zero
  808ce0:	9c800117 	ldw	r18,4(r19)
  808ce4:	9c000217 	ldw	r16,8(r19)
  808ce8:	90bfffc4 	addi	r2,r18,-1
  808cec:	10000d16 	blt	r2,zero,808d24 <_fwalk_reent+0x84>
  808cf0:	0023883a 	mov	r17,zero
  808cf4:	053fffc4 	movi	r20,-1
  808cf8:	8080030f 	ldh	r2,12(r16)
  808cfc:	8c400044 	addi	r17,r17,1
  808d00:	10000626 	beq	r2,zero,808d1c <_fwalk_reent+0x7c>
  808d04:	8080038f 	ldh	r2,14(r16)
  808d08:	800b883a 	mov	r5,r16
  808d0c:	a809883a 	mov	r4,r21
  808d10:	15000226 	beq	r2,r20,808d1c <_fwalk_reent+0x7c>
  808d14:	b03ee83a 	callr	r22
  808d18:	b8aeb03a 	or	r23,r23,r2
  808d1c:	84001704 	addi	r16,r16,92
  808d20:	947ff51e 	bne	r18,r17,808cf8 <_fwalk_reent+0x58>
  808d24:	9cc00017 	ldw	r19,0(r19)
  808d28:	983fed1e 	bne	r19,zero,808ce0 <_fwalk_reent+0x40>
  808d2c:	0808a3c0 	call	808a3c <__sfp_lock_release>
  808d30:	b805883a 	mov	r2,r23
  808d34:	dfc00817 	ldw	ra,32(sp)
  808d38:	ddc00717 	ldw	r23,28(sp)
  808d3c:	dd800617 	ldw	r22,24(sp)
  808d40:	dd400517 	ldw	r21,20(sp)
  808d44:	dd000417 	ldw	r20,16(sp)
  808d48:	dcc00317 	ldw	r19,12(sp)
  808d4c:	dc800217 	ldw	r18,8(sp)
  808d50:	dc400117 	ldw	r17,4(sp)
  808d54:	dc000017 	ldw	r16,0(sp)
  808d58:	dec00904 	addi	sp,sp,36
  808d5c:	f800283a 	ret
  808d60:	002f883a 	mov	r23,zero
  808d64:	003ff106 	br	808d2c <_fwalk_reent+0x8c>

00808d68 <_fwalk>:
  808d68:	defff804 	addi	sp,sp,-32
  808d6c:	dcc00315 	stw	r19,12(sp)
  808d70:	24c0b804 	addi	r19,r4,736
  808d74:	dd400515 	stw	r21,20(sp)
  808d78:	dfc00715 	stw	ra,28(sp)
  808d7c:	dd800615 	stw	r22,24(sp)
  808d80:	dd000415 	stw	r20,16(sp)
  808d84:	dc800215 	stw	r18,8(sp)
  808d88:	dc400115 	stw	r17,4(sp)
  808d8c:	dc000015 	stw	r16,0(sp)
  808d90:	282b883a 	mov	r21,r5
  808d94:	0808a380 	call	808a38 <__sfp_lock_acquire>
  808d98:	98001f26 	beq	r19,zero,808e18 <_fwalk+0xb0>
  808d9c:	002d883a 	mov	r22,zero
  808da0:	9c800117 	ldw	r18,4(r19)
  808da4:	9c000217 	ldw	r16,8(r19)
  808da8:	90bfffc4 	addi	r2,r18,-1
  808dac:	10000c16 	blt	r2,zero,808de0 <_fwalk+0x78>
  808db0:	0023883a 	mov	r17,zero
  808db4:	053fffc4 	movi	r20,-1
  808db8:	8080030f 	ldh	r2,12(r16)
  808dbc:	8c400044 	addi	r17,r17,1
  808dc0:	10000526 	beq	r2,zero,808dd8 <_fwalk+0x70>
  808dc4:	8080038f 	ldh	r2,14(r16)
  808dc8:	8009883a 	mov	r4,r16
  808dcc:	15000226 	beq	r2,r20,808dd8 <_fwalk+0x70>
  808dd0:	a83ee83a 	callr	r21
  808dd4:	b0acb03a 	or	r22,r22,r2
  808dd8:	84001704 	addi	r16,r16,92
  808ddc:	947ff61e 	bne	r18,r17,808db8 <_fwalk+0x50>
  808de0:	9cc00017 	ldw	r19,0(r19)
  808de4:	983fee1e 	bne	r19,zero,808da0 <_fwalk+0x38>
  808de8:	0808a3c0 	call	808a3c <__sfp_lock_release>
  808dec:	b005883a 	mov	r2,r22
  808df0:	dfc00717 	ldw	ra,28(sp)
  808df4:	dd800617 	ldw	r22,24(sp)
  808df8:	dd400517 	ldw	r21,20(sp)
  808dfc:	dd000417 	ldw	r20,16(sp)
  808e00:	dcc00317 	ldw	r19,12(sp)
  808e04:	dc800217 	ldw	r18,8(sp)
  808e08:	dc400117 	ldw	r17,4(sp)
  808e0c:	dc000017 	ldw	r16,0(sp)
  808e10:	dec00804 	addi	sp,sp,32
  808e14:	f800283a 	ret
  808e18:	002d883a 	mov	r22,zero
  808e1c:	003ff206 	br	808de8 <_fwalk+0x80>

00808e20 <__smakebuf_r>:
  808e20:	2880030b 	ldhu	r2,12(r5)
  808e24:	deffed04 	addi	sp,sp,-76
  808e28:	dc401015 	stw	r17,64(sp)
  808e2c:	1080008c 	andi	r2,r2,2
  808e30:	dc000f15 	stw	r16,60(sp)
  808e34:	dfc01215 	stw	ra,72(sp)
  808e38:	dc801115 	stw	r18,68(sp)
  808e3c:	2821883a 	mov	r16,r5
  808e40:	2023883a 	mov	r17,r4
  808e44:	10000b26 	beq	r2,zero,808e74 <__smakebuf_r+0x54>
  808e48:	28c010c4 	addi	r3,r5,67
  808e4c:	00800044 	movi	r2,1
  808e50:	28800515 	stw	r2,20(r5)
  808e54:	28c00415 	stw	r3,16(r5)
  808e58:	28c00015 	stw	r3,0(r5)
  808e5c:	dfc01217 	ldw	ra,72(sp)
  808e60:	dc801117 	ldw	r18,68(sp)
  808e64:	dc401017 	ldw	r17,64(sp)
  808e68:	dc000f17 	ldw	r16,60(sp)
  808e6c:	dec01304 	addi	sp,sp,76
  808e70:	f800283a 	ret
  808e74:	2940038f 	ldh	r5,14(r5)
  808e78:	28002116 	blt	r5,zero,808f00 <__smakebuf_r+0xe0>
  808e7c:	d80d883a 	mov	r6,sp
  808e80:	080930c0 	call	80930c <_fstat_r>
  808e84:	10001e16 	blt	r2,zero,808f00 <__smakebuf_r+0xe0>
  808e88:	d8800117 	ldw	r2,4(sp)
  808e8c:	00e00014 	movui	r3,32768
  808e90:	113c000c 	andi	r4,r2,61440
  808e94:	20c03126 	beq	r4,r3,808f5c <__smakebuf_r+0x13c>
  808e98:	8080030b 	ldhu	r2,12(r16)
  808e9c:	00c80004 	movi	r3,8192
  808ea0:	10820014 	ori	r2,r2,2048
  808ea4:	8080030d 	sth	r2,12(r16)
  808ea8:	20c01e26 	beq	r4,r3,808f24 <__smakebuf_r+0x104>
  808eac:	04810004 	movi	r18,1024
  808eb0:	8809883a 	mov	r4,r17
  808eb4:	900b883a 	mov	r5,r18
  808eb8:	0801dc40 	call	801dc4 <_malloc_r>
  808ebc:	1009883a 	mov	r4,r2
  808ec0:	10003126 	beq	r2,zero,808f88 <__smakebuf_r+0x168>
  808ec4:	80c0030b 	ldhu	r3,12(r16)
  808ec8:	00802074 	movhi	r2,129
  808ecc:	10a2cb04 	addi	r2,r2,-29908
  808ed0:	88800f15 	stw	r2,60(r17)
  808ed4:	18c02014 	ori	r3,r3,128
  808ed8:	84800515 	stw	r18,20(r16)
  808edc:	80c0030d 	sth	r3,12(r16)
  808ee0:	81000415 	stw	r4,16(r16)
  808ee4:	81000015 	stw	r4,0(r16)
  808ee8:	dfc01217 	ldw	ra,72(sp)
  808eec:	dc801117 	ldw	r18,68(sp)
  808ef0:	dc401017 	ldw	r17,64(sp)
  808ef4:	dc000f17 	ldw	r16,60(sp)
  808ef8:	dec01304 	addi	sp,sp,76
  808efc:	f800283a 	ret
  808f00:	80c0030b 	ldhu	r3,12(r16)
  808f04:	1880200c 	andi	r2,r3,128
  808f08:	10000426 	beq	r2,zero,808f1c <__smakebuf_r+0xfc>
  808f0c:	04801004 	movi	r18,64
  808f10:	18820014 	ori	r2,r3,2048
  808f14:	8080030d 	sth	r2,12(r16)
  808f18:	003fe506 	br	808eb0 <__smakebuf_r+0x90>
  808f1c:	04810004 	movi	r18,1024
  808f20:	003ffb06 	br	808f10 <__smakebuf_r+0xf0>
  808f24:	8140038f 	ldh	r5,14(r16)
  808f28:	8809883a 	mov	r4,r17
  808f2c:	08093800 	call	809380 <_isatty_r>
  808f30:	103fde26 	beq	r2,zero,808eac <__smakebuf_r+0x8c>
  808f34:	8080030b 	ldhu	r2,12(r16)
  808f38:	80c010c4 	addi	r3,r16,67
  808f3c:	04810004 	movi	r18,1024
  808f40:	10800054 	ori	r2,r2,1
  808f44:	8080030d 	sth	r2,12(r16)
  808f48:	00800044 	movi	r2,1
  808f4c:	80c00415 	stw	r3,16(r16)
  808f50:	80800515 	stw	r2,20(r16)
  808f54:	80c00015 	stw	r3,0(r16)
  808f58:	003fd506 	br	808eb0 <__smakebuf_r+0x90>
  808f5c:	80c00a17 	ldw	r3,40(r16)
  808f60:	00802074 	movhi	r2,129
  808f64:	10a3ef04 	addi	r2,r2,-28740
  808f68:	18bfcb1e 	bne	r3,r2,808e98 <__smakebuf_r+0x78>
  808f6c:	8080030b 	ldhu	r2,12(r16)
  808f70:	00c10004 	movi	r3,1024
  808f74:	1825883a 	mov	r18,r3
  808f78:	10c4b03a 	or	r2,r2,r3
  808f7c:	8080030d 	sth	r2,12(r16)
  808f80:	80c01315 	stw	r3,76(r16)
  808f84:	003fca06 	br	808eb0 <__smakebuf_r+0x90>
  808f88:	8100030b 	ldhu	r4,12(r16)
  808f8c:	2080800c 	andi	r2,r4,512
  808f90:	103fb21e 	bne	r2,zero,808e5c <__smakebuf_r+0x3c>
  808f94:	80c010c4 	addi	r3,r16,67
  808f98:	21000094 	ori	r4,r4,2
  808f9c:	00800044 	movi	r2,1
  808fa0:	80800515 	stw	r2,20(r16)
  808fa4:	8100030d 	sth	r4,12(r16)
  808fa8:	80c00415 	stw	r3,16(r16)
  808fac:	80c00015 	stw	r3,0(r16)
  808fb0:	003faa06 	br	808e5c <__smakebuf_r+0x3c>

00808fb4 <__sclose>:
  808fb4:	2940038f 	ldh	r5,14(r5)
  808fb8:	08091781 	jmpi	809178 <_close_r>

00808fbc <__sseek>:
  808fbc:	defffe04 	addi	sp,sp,-8
  808fc0:	dc000015 	stw	r16,0(sp)
  808fc4:	2821883a 	mov	r16,r5
  808fc8:	2940038f 	ldh	r5,14(r5)
  808fcc:	dfc00115 	stw	ra,4(sp)
  808fd0:	08093f00 	call	8093f0 <_lseek_r>
  808fd4:	1007883a 	mov	r3,r2
  808fd8:	00bfffc4 	movi	r2,-1
  808fdc:	18800926 	beq	r3,r2,809004 <__sseek+0x48>
  808fe0:	8080030b 	ldhu	r2,12(r16)
  808fe4:	80c01415 	stw	r3,80(r16)
  808fe8:	10840014 	ori	r2,r2,4096
  808fec:	8080030d 	sth	r2,12(r16)
  808ff0:	1805883a 	mov	r2,r3
  808ff4:	dfc00117 	ldw	ra,4(sp)
  808ff8:	dc000017 	ldw	r16,0(sp)
  808ffc:	dec00204 	addi	sp,sp,8
  809000:	f800283a 	ret
  809004:	8080030b 	ldhu	r2,12(r16)
  809008:	10bbffcc 	andi	r2,r2,61439
  80900c:	8080030d 	sth	r2,12(r16)
  809010:	1805883a 	mov	r2,r3
  809014:	dfc00117 	ldw	ra,4(sp)
  809018:	dc000017 	ldw	r16,0(sp)
  80901c:	dec00204 	addi	sp,sp,8
  809020:	f800283a 	ret

00809024 <__swrite>:
  809024:	2880030b 	ldhu	r2,12(r5)
  809028:	defffb04 	addi	sp,sp,-20
  80902c:	dcc00315 	stw	r19,12(sp)
  809030:	1080400c 	andi	r2,r2,256
  809034:	dc800215 	stw	r18,8(sp)
  809038:	dc400115 	stw	r17,4(sp)
  80903c:	dc000015 	stw	r16,0(sp)
  809040:	3027883a 	mov	r19,r6
  809044:	3825883a 	mov	r18,r7
  809048:	dfc00415 	stw	ra,16(sp)
  80904c:	2821883a 	mov	r16,r5
  809050:	000d883a 	mov	r6,zero
  809054:	01c00084 	movi	r7,2
  809058:	2023883a 	mov	r17,r4
  80905c:	10000226 	beq	r2,zero,809068 <__swrite+0x44>
  809060:	2940038f 	ldh	r5,14(r5)
  809064:	08093f00 	call	8093f0 <_lseek_r>
  809068:	8080030b 	ldhu	r2,12(r16)
  80906c:	8140038f 	ldh	r5,14(r16)
  809070:	8809883a 	mov	r4,r17
  809074:	10bbffcc 	andi	r2,r2,61439
  809078:	980d883a 	mov	r6,r19
  80907c:	900f883a 	mov	r7,r18
  809080:	8080030d 	sth	r2,12(r16)
  809084:	dfc00417 	ldw	ra,16(sp)
  809088:	dcc00317 	ldw	r19,12(sp)
  80908c:	dc800217 	ldw	r18,8(sp)
  809090:	dc400117 	ldw	r17,4(sp)
  809094:	dc000017 	ldw	r16,0(sp)
  809098:	dec00504 	addi	sp,sp,20
  80909c:	08091001 	jmpi	809100 <_write_r>

008090a0 <__sread>:
  8090a0:	defffe04 	addi	sp,sp,-8
  8090a4:	dc000015 	stw	r16,0(sp)
  8090a8:	2821883a 	mov	r16,r5
  8090ac:	2940038f 	ldh	r5,14(r5)
  8090b0:	dfc00115 	stw	ra,4(sp)
  8090b4:	08094680 	call	809468 <_read_r>
  8090b8:	1007883a 	mov	r3,r2
  8090bc:	10000816 	blt	r2,zero,8090e0 <__sread+0x40>
  8090c0:	80801417 	ldw	r2,80(r16)
  8090c4:	10c5883a 	add	r2,r2,r3
  8090c8:	80801415 	stw	r2,80(r16)
  8090cc:	1805883a 	mov	r2,r3
  8090d0:	dfc00117 	ldw	ra,4(sp)
  8090d4:	dc000017 	ldw	r16,0(sp)
  8090d8:	dec00204 	addi	sp,sp,8
  8090dc:	f800283a 	ret
  8090e0:	8080030b 	ldhu	r2,12(r16)
  8090e4:	10bbffcc 	andi	r2,r2,61439
  8090e8:	8080030d 	sth	r2,12(r16)
  8090ec:	1805883a 	mov	r2,r3
  8090f0:	dfc00117 	ldw	ra,4(sp)
  8090f4:	dc000017 	ldw	r16,0(sp)
  8090f8:	dec00204 	addi	sp,sp,8
  8090fc:	f800283a 	ret

00809100 <_write_r>:
  809100:	defffd04 	addi	sp,sp,-12
  809104:	dc000015 	stw	r16,0(sp)
  809108:	04002074 	movhi	r16,129
  80910c:	842bf404 	addi	r16,r16,-20528
  809110:	dc400115 	stw	r17,4(sp)
  809114:	80000015 	stw	zero,0(r16)
  809118:	2023883a 	mov	r17,r4
  80911c:	2809883a 	mov	r4,r5
  809120:	300b883a 	mov	r5,r6
  809124:	380d883a 	mov	r6,r7
  809128:	dfc00215 	stw	ra,8(sp)
  80912c:	08097c00 	call	8097c0 <write>
  809130:	1007883a 	mov	r3,r2
  809134:	00bfffc4 	movi	r2,-1
  809138:	18800626 	beq	r3,r2,809154 <_write_r+0x54>
  80913c:	1805883a 	mov	r2,r3
  809140:	dfc00217 	ldw	ra,8(sp)
  809144:	dc400117 	ldw	r17,4(sp)
  809148:	dc000017 	ldw	r16,0(sp)
  80914c:	dec00304 	addi	sp,sp,12
  809150:	f800283a 	ret
  809154:	80800017 	ldw	r2,0(r16)
  809158:	103ff826 	beq	r2,zero,80913c <_write_r+0x3c>
  80915c:	88800015 	stw	r2,0(r17)
  809160:	1805883a 	mov	r2,r3
  809164:	dfc00217 	ldw	ra,8(sp)
  809168:	dc400117 	ldw	r17,4(sp)
  80916c:	dc000017 	ldw	r16,0(sp)
  809170:	dec00304 	addi	sp,sp,12
  809174:	f800283a 	ret

00809178 <_close_r>:
  809178:	defffd04 	addi	sp,sp,-12
  80917c:	dc000015 	stw	r16,0(sp)
  809180:	04002074 	movhi	r16,129
  809184:	842bf404 	addi	r16,r16,-20528
  809188:	dc400115 	stw	r17,4(sp)
  80918c:	80000015 	stw	zero,0(r16)
  809190:	2023883a 	mov	r17,r4
  809194:	2809883a 	mov	r4,r5
  809198:	dfc00215 	stw	ra,8(sp)
  80919c:	080765c0 	call	80765c <close>
  8091a0:	1007883a 	mov	r3,r2
  8091a4:	00bfffc4 	movi	r2,-1
  8091a8:	18800626 	beq	r3,r2,8091c4 <_close_r+0x4c>
  8091ac:	1805883a 	mov	r2,r3
  8091b0:	dfc00217 	ldw	ra,8(sp)
  8091b4:	dc400117 	ldw	r17,4(sp)
  8091b8:	dc000017 	ldw	r16,0(sp)
  8091bc:	dec00304 	addi	sp,sp,12
  8091c0:	f800283a 	ret
  8091c4:	80800017 	ldw	r2,0(r16)
  8091c8:	103ff826 	beq	r2,zero,8091ac <_close_r+0x34>
  8091cc:	88800015 	stw	r2,0(r17)
  8091d0:	1805883a 	mov	r2,r3
  8091d4:	dfc00217 	ldw	ra,8(sp)
  8091d8:	dc400117 	ldw	r17,4(sp)
  8091dc:	dc000017 	ldw	r16,0(sp)
  8091e0:	dec00304 	addi	sp,sp,12
  8091e4:	f800283a 	ret

008091e8 <_fclose_r>:
  8091e8:	defffc04 	addi	sp,sp,-16
  8091ec:	dc400115 	stw	r17,4(sp)
  8091f0:	dc000015 	stw	r16,0(sp)
  8091f4:	dfc00315 	stw	ra,12(sp)
  8091f8:	dc800215 	stw	r18,8(sp)
  8091fc:	2821883a 	mov	r16,r5
  809200:	2023883a 	mov	r17,r4
  809204:	28002926 	beq	r5,zero,8092ac <_fclose_r+0xc4>
  809208:	0808a380 	call	808a38 <__sfp_lock_acquire>
  80920c:	88000226 	beq	r17,zero,809218 <_fclose_r+0x30>
  809210:	88800e17 	ldw	r2,56(r17)
  809214:	10002d26 	beq	r2,zero,8092cc <_fclose_r+0xe4>
  809218:	8080030f 	ldh	r2,12(r16)
  80921c:	10002226 	beq	r2,zero,8092a8 <_fclose_r+0xc0>
  809220:	8809883a 	mov	r4,r17
  809224:	800b883a 	mov	r5,r16
  809228:	08087b00 	call	8087b0 <_fflush_r>
  80922c:	1025883a 	mov	r18,r2
  809230:	80800b17 	ldw	r2,44(r16)
  809234:	10000426 	beq	r2,zero,809248 <_fclose_r+0x60>
  809238:	81400717 	ldw	r5,28(r16)
  80923c:	8809883a 	mov	r4,r17
  809240:	103ee83a 	callr	r2
  809244:	10002a16 	blt	r2,zero,8092f0 <_fclose_r+0x108>
  809248:	8080030b 	ldhu	r2,12(r16)
  80924c:	1080200c 	andi	r2,r2,128
  809250:	1000231e 	bne	r2,zero,8092e0 <_fclose_r+0xf8>
  809254:	81400c17 	ldw	r5,48(r16)
  809258:	28000526 	beq	r5,zero,809270 <_fclose_r+0x88>
  80925c:	80801004 	addi	r2,r16,64
  809260:	28800226 	beq	r5,r2,80926c <_fclose_r+0x84>
  809264:	8809883a 	mov	r4,r17
  809268:	080328c0 	call	80328c <_free_r>
  80926c:	80000c15 	stw	zero,48(r16)
  809270:	81401117 	ldw	r5,68(r16)
  809274:	28000326 	beq	r5,zero,809284 <_fclose_r+0x9c>
  809278:	8809883a 	mov	r4,r17
  80927c:	080328c0 	call	80328c <_free_r>
  809280:	80001115 	stw	zero,68(r16)
  809284:	8000030d 	sth	zero,12(r16)
  809288:	0808a3c0 	call	808a3c <__sfp_lock_release>
  80928c:	9005883a 	mov	r2,r18
  809290:	dfc00317 	ldw	ra,12(sp)
  809294:	dc800217 	ldw	r18,8(sp)
  809298:	dc400117 	ldw	r17,4(sp)
  80929c:	dc000017 	ldw	r16,0(sp)
  8092a0:	dec00404 	addi	sp,sp,16
  8092a4:	f800283a 	ret
  8092a8:	0808a3c0 	call	808a3c <__sfp_lock_release>
  8092ac:	0025883a 	mov	r18,zero
  8092b0:	9005883a 	mov	r2,r18
  8092b4:	dfc00317 	ldw	ra,12(sp)
  8092b8:	dc800217 	ldw	r18,8(sp)
  8092bc:	dc400117 	ldw	r17,4(sp)
  8092c0:	dc000017 	ldw	r16,0(sp)
  8092c4:	dec00404 	addi	sp,sp,16
  8092c8:	f800283a 	ret
  8092cc:	8809883a 	mov	r4,r17
  8092d0:	0808a480 	call	808a48 <__sinit>
  8092d4:	8080030f 	ldh	r2,12(r16)
  8092d8:	103fd11e 	bne	r2,zero,809220 <_fclose_r+0x38>
  8092dc:	003ff206 	br	8092a8 <_fclose_r+0xc0>
  8092e0:	81400417 	ldw	r5,16(r16)
  8092e4:	8809883a 	mov	r4,r17
  8092e8:	080328c0 	call	80328c <_free_r>
  8092ec:	003fd906 	br	809254 <_fclose_r+0x6c>
  8092f0:	04bfffc4 	movi	r18,-1
  8092f4:	003fd406 	br	809248 <_fclose_r+0x60>

008092f8 <fclose>:
  8092f8:	00802074 	movhi	r2,129
  8092fc:	10a95e04 	addi	r2,r2,-23176
  809300:	200b883a 	mov	r5,r4
  809304:	11000017 	ldw	r4,0(r2)
  809308:	08091e81 	jmpi	8091e8 <_fclose_r>

0080930c <_fstat_r>:
  80930c:	defffd04 	addi	sp,sp,-12
  809310:	dc000015 	stw	r16,0(sp)
  809314:	04002074 	movhi	r16,129
  809318:	842bf404 	addi	r16,r16,-20528
  80931c:	dc400115 	stw	r17,4(sp)
  809320:	80000015 	stw	zero,0(r16)
  809324:	2023883a 	mov	r17,r4
  809328:	2809883a 	mov	r4,r5
  80932c:	300b883a 	mov	r5,r6
  809330:	dfc00215 	stw	ra,8(sp)
  809334:	08094f40 	call	8094f4 <fstat>
  809338:	1007883a 	mov	r3,r2
  80933c:	00bfffc4 	movi	r2,-1
  809340:	18800626 	beq	r3,r2,80935c <_fstat_r+0x50>
  809344:	1805883a 	mov	r2,r3
  809348:	dfc00217 	ldw	ra,8(sp)
  80934c:	dc400117 	ldw	r17,4(sp)
  809350:	dc000017 	ldw	r16,0(sp)
  809354:	dec00304 	addi	sp,sp,12
  809358:	f800283a 	ret
  80935c:	80800017 	ldw	r2,0(r16)
  809360:	103ff826 	beq	r2,zero,809344 <_fstat_r+0x38>
  809364:	88800015 	stw	r2,0(r17)
  809368:	1805883a 	mov	r2,r3
  80936c:	dfc00217 	ldw	ra,8(sp)
  809370:	dc400117 	ldw	r17,4(sp)
  809374:	dc000017 	ldw	r16,0(sp)
  809378:	dec00304 	addi	sp,sp,12
  80937c:	f800283a 	ret

00809380 <_isatty_r>:
  809380:	defffd04 	addi	sp,sp,-12
  809384:	dc000015 	stw	r16,0(sp)
  809388:	04002074 	movhi	r16,129
  80938c:	842bf404 	addi	r16,r16,-20528
  809390:	dc400115 	stw	r17,4(sp)
  809394:	80000015 	stw	zero,0(r16)
  809398:	2023883a 	mov	r17,r4
  80939c:	2809883a 	mov	r4,r5
  8093a0:	dfc00215 	stw	ra,8(sp)
  8093a4:	08095840 	call	809584 <isatty>
  8093a8:	1007883a 	mov	r3,r2
  8093ac:	00bfffc4 	movi	r2,-1
  8093b0:	18800626 	beq	r3,r2,8093cc <_isatty_r+0x4c>
  8093b4:	1805883a 	mov	r2,r3
  8093b8:	dfc00217 	ldw	ra,8(sp)
  8093bc:	dc400117 	ldw	r17,4(sp)
  8093c0:	dc000017 	ldw	r16,0(sp)
  8093c4:	dec00304 	addi	sp,sp,12
  8093c8:	f800283a 	ret
  8093cc:	80800017 	ldw	r2,0(r16)
  8093d0:	103ff826 	beq	r2,zero,8093b4 <_isatty_r+0x34>
  8093d4:	88800015 	stw	r2,0(r17)
  8093d8:	1805883a 	mov	r2,r3
  8093dc:	dfc00217 	ldw	ra,8(sp)
  8093e0:	dc400117 	ldw	r17,4(sp)
  8093e4:	dc000017 	ldw	r16,0(sp)
  8093e8:	dec00304 	addi	sp,sp,12
  8093ec:	f800283a 	ret

008093f0 <_lseek_r>:
  8093f0:	defffd04 	addi	sp,sp,-12
  8093f4:	dc000015 	stw	r16,0(sp)
  8093f8:	04002074 	movhi	r16,129
  8093fc:	842bf404 	addi	r16,r16,-20528
  809400:	dc400115 	stw	r17,4(sp)
  809404:	80000015 	stw	zero,0(r16)
  809408:	2023883a 	mov	r17,r4
  80940c:	2809883a 	mov	r4,r5
  809410:	300b883a 	mov	r5,r6
  809414:	380d883a 	mov	r6,r7
  809418:	dfc00215 	stw	ra,8(sp)
  80941c:	08096080 	call	809608 <lseek>
  809420:	1007883a 	mov	r3,r2
  809424:	00bfffc4 	movi	r2,-1
  809428:	18800626 	beq	r3,r2,809444 <_lseek_r+0x54>
  80942c:	1805883a 	mov	r2,r3
  809430:	dfc00217 	ldw	ra,8(sp)
  809434:	dc400117 	ldw	r17,4(sp)
  809438:	dc000017 	ldw	r16,0(sp)
  80943c:	dec00304 	addi	sp,sp,12
  809440:	f800283a 	ret
  809444:	80800017 	ldw	r2,0(r16)
  809448:	103ff826 	beq	r2,zero,80942c <_lseek_r+0x3c>
  80944c:	88800015 	stw	r2,0(r17)
  809450:	1805883a 	mov	r2,r3
  809454:	dfc00217 	ldw	ra,8(sp)
  809458:	dc400117 	ldw	r17,4(sp)
  80945c:	dc000017 	ldw	r16,0(sp)
  809460:	dec00304 	addi	sp,sp,12
  809464:	f800283a 	ret

00809468 <_read_r>:
  809468:	defffd04 	addi	sp,sp,-12
  80946c:	dc000015 	stw	r16,0(sp)
  809470:	04002074 	movhi	r16,129
  809474:	842bf404 	addi	r16,r16,-20528
  809478:	dc400115 	stw	r17,4(sp)
  80947c:	80000015 	stw	zero,0(r16)
  809480:	2023883a 	mov	r17,r4
  809484:	2809883a 	mov	r4,r5
  809488:	300b883a 	mov	r5,r6
  80948c:	380d883a 	mov	r6,r7
  809490:	dfc00215 	stw	ra,8(sp)
  809494:	08096a40 	call	8096a4 <read>
  809498:	1007883a 	mov	r3,r2
  80949c:	00bfffc4 	movi	r2,-1
  8094a0:	18800626 	beq	r3,r2,8094bc <_read_r+0x54>
  8094a4:	1805883a 	mov	r2,r3
  8094a8:	dfc00217 	ldw	ra,8(sp)
  8094ac:	dc400117 	ldw	r17,4(sp)
  8094b0:	dc000017 	ldw	r16,0(sp)
  8094b4:	dec00304 	addi	sp,sp,12
  8094b8:	f800283a 	ret
  8094bc:	80800017 	ldw	r2,0(r16)
  8094c0:	103ff826 	beq	r2,zero,8094a4 <_read_r+0x3c>
  8094c4:	88800015 	stw	r2,0(r17)
  8094c8:	1805883a 	mov	r2,r3
  8094cc:	dfc00217 	ldw	ra,8(sp)
  8094d0:	dc400117 	ldw	r17,4(sp)
  8094d4:	dc000017 	ldw	r16,0(sp)
  8094d8:	dec00304 	addi	sp,sp,12
  8094dc:	f800283a 	ret

008094e0 <_exit>:
  8094e0:	20000226 	beq	r4,zero,8094ec <_exit+0xc>
  8094e4:	002af070 	cmpltui	zero,zero,43969
  8094e8:	003fff06 	br	8094e8 <_exit+0x8>
  8094ec:	002af0b0 	cmpltui	zero,zero,43970
  8094f0:	003ffd06 	br	8094e8 <_exit+0x8>

008094f4 <fstat>:
  8094f4:	deffff04 	addi	sp,sp,-4
  8094f8:	dfc00015 	stw	ra,0(sp)
  8094fc:	20c00324 	muli	r3,r4,12
  809500:	20001116 	blt	r4,zero,809548 <fstat+0x54>
  809504:	00802074 	movhi	r2,129
  809508:	10a8fe04 	addi	r2,r2,-23560
  80950c:	1889883a 	add	r4,r3,r2
  809510:	20000d26 	beq	r4,zero,809548 <fstat+0x54>
  809514:	20800017 	ldw	r2,0(r4)
  809518:	0007883a 	mov	r3,zero
  80951c:	10800817 	ldw	r2,32(r2)
  809520:	10000326 	beq	r2,zero,809530 <fstat+0x3c>
  809524:	dfc00017 	ldw	ra,0(sp)
  809528:	dec00104 	addi	sp,sp,4
  80952c:	1000683a 	jmp	r2
  809530:	00880004 	movi	r2,8192
  809534:	28800115 	stw	r2,4(r5)
  809538:	1805883a 	mov	r2,r3
  80953c:	dfc00017 	ldw	ra,0(sp)
  809540:	dec00104 	addi	sp,sp,4
  809544:	f800283a 	ret
  809548:	00802074 	movhi	r2,129
  80954c:	10a96a04 	addi	r2,r2,-23128
  809550:	10800017 	ldw	r2,0(r2)
  809554:	00c02074 	movhi	r3,129
  809558:	18ebf404 	addi	r3,r3,-20528
  80955c:	10000226 	beq	r2,zero,809568 <fstat+0x74>
  809560:	103ee83a 	callr	r2
  809564:	1007883a 	mov	r3,r2
  809568:	00801444 	movi	r2,81
  80956c:	18800015 	stw	r2,0(r3)
  809570:	00ffffc4 	movi	r3,-1
  809574:	1805883a 	mov	r2,r3
  809578:	dfc00017 	ldw	ra,0(sp)
  80957c:	dec00104 	addi	sp,sp,4
  809580:	f800283a 	ret

00809584 <isatty>:
  809584:	defff004 	addi	sp,sp,-64
  809588:	dfc00f15 	stw	ra,60(sp)
  80958c:	20c00324 	muli	r3,r4,12
  809590:	20000f16 	blt	r4,zero,8095d0 <isatty+0x4c>
  809594:	00802074 	movhi	r2,129
  809598:	10a8fe04 	addi	r2,r2,-23560
  80959c:	1885883a 	add	r2,r3,r2
  8095a0:	10000b26 	beq	r2,zero,8095d0 <isatty+0x4c>
  8095a4:	10800017 	ldw	r2,0(r2)
  8095a8:	d80b883a 	mov	r5,sp
  8095ac:	10c00817 	ldw	r3,32(r2)
  8095b0:	00800044 	movi	r2,1
  8095b4:	18000326 	beq	r3,zero,8095c4 <isatty+0x40>
  8095b8:	08094f40 	call	8094f4 <fstat>
  8095bc:	d8c00117 	ldw	r3,4(sp)
  8095c0:	18880020 	cmpeqi	r2,r3,8192
  8095c4:	dfc00f17 	ldw	ra,60(sp)
  8095c8:	dec01004 	addi	sp,sp,64
  8095cc:	f800283a 	ret
  8095d0:	00802074 	movhi	r2,129
  8095d4:	10a96a04 	addi	r2,r2,-23128
  8095d8:	10800017 	ldw	r2,0(r2)
  8095dc:	00c02074 	movhi	r3,129
  8095e0:	18ebf404 	addi	r3,r3,-20528
  8095e4:	10000226 	beq	r2,zero,8095f0 <isatty+0x6c>
  8095e8:	103ee83a 	callr	r2
  8095ec:	1007883a 	mov	r3,r2
  8095f0:	00801444 	movi	r2,81
  8095f4:	18800015 	stw	r2,0(r3)
  8095f8:	0005883a 	mov	r2,zero
  8095fc:	dfc00f17 	ldw	ra,60(sp)
  809600:	dec01004 	addi	sp,sp,64
  809604:	f800283a 	ret

00809608 <lseek>:
  809608:	defffe04 	addi	sp,sp,-8
  80960c:	dfc00115 	stw	ra,4(sp)
  809610:	dc000015 	stw	r16,0(sp)
  809614:	20001f16 	blt	r4,zero,809694 <lseek+0x8c>
  809618:	20c00324 	muli	r3,r4,12
  80961c:	00802074 	movhi	r2,129
  809620:	10a8fe04 	addi	r2,r2,-23560
  809624:	1889883a 	add	r4,r3,r2
  809628:	20001c26 	beq	r4,zero,80969c <lseek+0x94>
  80962c:	20800017 	ldw	r2,0(r4)
  809630:	10800717 	ldw	r2,28(r2)
  809634:	10000626 	beq	r2,zero,809650 <lseek+0x48>
  809638:	103ee83a 	callr	r2
  80963c:	10000516 	blt	r2,zero,809654 <lseek+0x4c>
  809640:	dfc00117 	ldw	ra,4(sp)
  809644:	dc000017 	ldw	r16,0(sp)
  809648:	dec00204 	addi	sp,sp,8
  80964c:	f800283a 	ret
  809650:	00bfde84 	movi	r2,-134
  809654:	00a1c83a 	sub	r16,zero,r2
  809658:	00802074 	movhi	r2,129
  80965c:	10a96a04 	addi	r2,r2,-23128
  809660:	10800017 	ldw	r2,0(r2)
  809664:	10000826 	beq	r2,zero,809688 <lseek+0x80>
  809668:	103ee83a 	callr	r2
  80966c:	1007883a 	mov	r3,r2
  809670:	00bfffc4 	movi	r2,-1
  809674:	1c000015 	stw	r16,0(r3)
  809678:	dfc00117 	ldw	ra,4(sp)
  80967c:	dc000017 	ldw	r16,0(sp)
  809680:	dec00204 	addi	sp,sp,8
  809684:	f800283a 	ret
  809688:	00c02074 	movhi	r3,129
  80968c:	18ebf404 	addi	r3,r3,-20528
  809690:	003ff706 	br	809670 <lseek+0x68>
  809694:	04001444 	movi	r16,81
  809698:	003fef06 	br	809658 <lseek+0x50>
  80969c:	00bfebc4 	movi	r2,-81
  8096a0:	003fec06 	br	809654 <lseek+0x4c>

008096a4 <read>:
  8096a4:	defffe04 	addi	sp,sp,-8
  8096a8:	dfc00115 	stw	ra,4(sp)
  8096ac:	dc000015 	stw	r16,0(sp)
  8096b0:	20002516 	blt	r4,zero,809748 <read+0xa4>
  8096b4:	20c00324 	muli	r3,r4,12
  8096b8:	00802074 	movhi	r2,129
  8096bc:	10a8fe04 	addi	r2,r2,-23560
  8096c0:	1889883a 	add	r4,r3,r2
  8096c4:	20002026 	beq	r4,zero,809748 <read+0xa4>
  8096c8:	20800217 	ldw	r2,8(r4)
  8096cc:	00c00044 	movi	r3,1
  8096d0:	108000cc 	andi	r2,r2,3
  8096d4:	10c00b26 	beq	r2,r3,809704 <read+0x60>
  8096d8:	20800017 	ldw	r2,0(r4)
  8096dc:	10800517 	ldw	r2,20(r2)
  8096e0:	10000826 	beq	r2,zero,809704 <read+0x60>
  8096e4:	103ee83a 	callr	r2
  8096e8:	1021883a 	mov	r16,r2
  8096ec:	10002716 	blt	r2,zero,80978c <read+0xe8>
  8096f0:	8005883a 	mov	r2,r16
  8096f4:	dfc00117 	ldw	ra,4(sp)
  8096f8:	dc000017 	ldw	r16,0(sp)
  8096fc:	dec00204 	addi	sp,sp,8
  809700:	f800283a 	ret
  809704:	00802074 	movhi	r2,129
  809708:	10a96a04 	addi	r2,r2,-23128
  80970c:	10800017 	ldw	r2,0(r2)
  809710:	10000a26 	beq	r2,zero,80973c <read+0x98>
  809714:	103ee83a 	callr	r2
  809718:	1007883a 	mov	r3,r2
  80971c:	043fffc4 	movi	r16,-1
  809720:	00800344 	movi	r2,13
  809724:	18800015 	stw	r2,0(r3)
  809728:	8005883a 	mov	r2,r16
  80972c:	dfc00117 	ldw	ra,4(sp)
  809730:	dc000017 	ldw	r16,0(sp)
  809734:	dec00204 	addi	sp,sp,8
  809738:	f800283a 	ret
  80973c:	00c02074 	movhi	r3,129
  809740:	18ebf404 	addi	r3,r3,-20528
  809744:	003ff506 	br	80971c <read+0x78>
  809748:	00802074 	movhi	r2,129
  80974c:	10a96a04 	addi	r2,r2,-23128
  809750:	10800017 	ldw	r2,0(r2)
  809754:	10000a26 	beq	r2,zero,809780 <read+0xdc>
  809758:	103ee83a 	callr	r2
  80975c:	1007883a 	mov	r3,r2
  809760:	00801444 	movi	r2,81
  809764:	043fffc4 	movi	r16,-1
  809768:	18800015 	stw	r2,0(r3)
  80976c:	8005883a 	mov	r2,r16
  809770:	dfc00117 	ldw	ra,4(sp)
  809774:	dc000017 	ldw	r16,0(sp)
  809778:	dec00204 	addi	sp,sp,8
  80977c:	f800283a 	ret
  809780:	00c02074 	movhi	r3,129
  809784:	18ebf404 	addi	r3,r3,-20528
  809788:	003ff506 	br	809760 <read+0xbc>
  80978c:	00802074 	movhi	r2,129
  809790:	10a96a04 	addi	r2,r2,-23128
  809794:	10800017 	ldw	r2,0(r2)
  809798:	10000626 	beq	r2,zero,8097b4 <read+0x110>
  80979c:	103ee83a 	callr	r2
  8097a0:	1007883a 	mov	r3,r2
  8097a4:	0405c83a 	sub	r2,zero,r16
  8097a8:	043fffc4 	movi	r16,-1
  8097ac:	18800015 	stw	r2,0(r3)
  8097b0:	003fcf06 	br	8096f0 <read+0x4c>
  8097b4:	00c02074 	movhi	r3,129
  8097b8:	18ebf404 	addi	r3,r3,-20528
  8097bc:	003ff906 	br	8097a4 <read+0x100>

008097c0 <write>:
  8097c0:	defffe04 	addi	sp,sp,-8
  8097c4:	dfc00115 	stw	ra,4(sp)
  8097c8:	dc000015 	stw	r16,0(sp)
  8097cc:	20002416 	blt	r4,zero,809860 <write+0xa0>
  8097d0:	20c00324 	muli	r3,r4,12
  8097d4:	00802074 	movhi	r2,129
  8097d8:	10a8fe04 	addi	r2,r2,-23560
  8097dc:	1889883a 	add	r4,r3,r2
  8097e0:	20001f26 	beq	r4,zero,809860 <write+0xa0>
  8097e4:	20800217 	ldw	r2,8(r4)
  8097e8:	108000cc 	andi	r2,r2,3
  8097ec:	10000b26 	beq	r2,zero,80981c <write+0x5c>
  8097f0:	20800017 	ldw	r2,0(r4)
  8097f4:	10800617 	ldw	r2,24(r2)
  8097f8:	10000826 	beq	r2,zero,80981c <write+0x5c>
  8097fc:	103ee83a 	callr	r2
  809800:	1021883a 	mov	r16,r2
  809804:	10002716 	blt	r2,zero,8098a4 <write+0xe4>
  809808:	8005883a 	mov	r2,r16
  80980c:	dfc00117 	ldw	ra,4(sp)
  809810:	dc000017 	ldw	r16,0(sp)
  809814:	dec00204 	addi	sp,sp,8
  809818:	f800283a 	ret
  80981c:	00802074 	movhi	r2,129
  809820:	10a96a04 	addi	r2,r2,-23128
  809824:	10800017 	ldw	r2,0(r2)
  809828:	10000a26 	beq	r2,zero,809854 <write+0x94>
  80982c:	103ee83a 	callr	r2
  809830:	1007883a 	mov	r3,r2
  809834:	043fffc4 	movi	r16,-1
  809838:	00800344 	movi	r2,13
  80983c:	18800015 	stw	r2,0(r3)
  809840:	8005883a 	mov	r2,r16
  809844:	dfc00117 	ldw	ra,4(sp)
  809848:	dc000017 	ldw	r16,0(sp)
  80984c:	dec00204 	addi	sp,sp,8
  809850:	f800283a 	ret
  809854:	00c02074 	movhi	r3,129
  809858:	18ebf404 	addi	r3,r3,-20528
  80985c:	003ff506 	br	809834 <write+0x74>
  809860:	00802074 	movhi	r2,129
  809864:	10a96a04 	addi	r2,r2,-23128
  809868:	10800017 	ldw	r2,0(r2)
  80986c:	10000a26 	beq	r2,zero,809898 <write+0xd8>
  809870:	103ee83a 	callr	r2
  809874:	1007883a 	mov	r3,r2
  809878:	00801444 	movi	r2,81
  80987c:	043fffc4 	movi	r16,-1
  809880:	18800015 	stw	r2,0(r3)
  809884:	8005883a 	mov	r2,r16
  809888:	dfc00117 	ldw	ra,4(sp)
  80988c:	dc000017 	ldw	r16,0(sp)
  809890:	dec00204 	addi	sp,sp,8
  809894:	f800283a 	ret
  809898:	00c02074 	movhi	r3,129
  80989c:	18ebf404 	addi	r3,r3,-20528
  8098a0:	003ff506 	br	809878 <write+0xb8>
  8098a4:	00802074 	movhi	r2,129
  8098a8:	10a96a04 	addi	r2,r2,-23128
  8098ac:	10800017 	ldw	r2,0(r2)
  8098b0:	10000626 	beq	r2,zero,8098cc <write+0x10c>
  8098b4:	103ee83a 	callr	r2
  8098b8:	1007883a 	mov	r3,r2
  8098bc:	0405c83a 	sub	r2,zero,r16
  8098c0:	043fffc4 	movi	r16,-1
  8098c4:	18800015 	stw	r2,0(r3)
  8098c8:	003fcf06 	br	809808 <write+0x48>
  8098cc:	00c02074 	movhi	r3,129
  8098d0:	18ebf404 	addi	r3,r3,-20528
  8098d4:	003ff906 	br	8098bc <write+0xfc>
  8098d8:	008085fc 	xorhi	r2,zero,535
