
software.elf:     file format elf32-littlenios2
software.elf
architecture: nios2, flags 0x00000112:
EXEC_P, HAS_SYMS, D_PAGED
start address 0x00800184

Program Header:
    LOAD off    0x00001000 vaddr 0x00800000 paddr 0x00800000 align 2**12
         filesz 0x00000020 memsz 0x00000020 flags r-x
    LOAD off    0x00001020 vaddr 0x00800020 paddr 0x00800020 align 2**12
         filesz 0x00009bb4 memsz 0x00009bb4 flags r-x
    LOAD off    0x0000abd4 vaddr 0x00809bd4 paddr 0x0080a5e8 align 2**12
         filesz 0x00000a14 memsz 0x00000a14 flags rw-
    LOAD off    0x0000bffc vaddr 0x0080affc paddr 0x0080affc align 2**12
         filesz 0x00000000 memsz 0x00000150 flags rw-

Sections:
Idx Name          Size      VMA       LMA       File off  Algn
  0 .entry        00000020  00800000  00800000  00001000  2**5
                  CONTENTS, ALLOC, LOAD, READONLY, CODE
  1 .exceptions   00000164  00800020  00800020  00001020  2**2
                  CONTENTS, ALLOC, LOAD, READONLY, CODE
  2 .text         00009784  00800184  00800184  00001184  2**2
                  CONTENTS, ALLOC, LOAD, READONLY, CODE
  3 .rodata       000002cc  00809908  00809908  0000a908  2**2
                  CONTENTS, ALLOC, LOAD, READONLY, DATA
  4 .rwdata       00000a14  00809bd4  0080a5e8  0000abd4  2**2
                  CONTENTS, ALLOC, LOAD, DATA, SMALL_DATA
  5 .bss          00000150  0080affc  0080affc  0000bffc  2**2
                  ALLOC, SMALL_DATA
  6 .comment      00000023  00000000  00000000  0000b5e8  2**0
                  CONTENTS, READONLY
  7 .debug_aranges 00000810  00000000  00000000  0000b610  2**3
                  CONTENTS, READONLY, DEBUGGING
  8 .debug_pubnames 00000ba0  00000000  00000000  0000be20  2**0
                  CONTENTS, READONLY, DEBUGGING
  9 .debug_info   00018a43  00000000  00000000  0000c9c0  2**0
                  CONTENTS, READONLY, DEBUGGING
 10 .debug_abbrev 00005c1a  00000000  00000000  00025403  2**0
                  CONTENTS, READONLY, DEBUGGING
 11 .debug_line   0000cd0b  00000000  00000000  0002b01d  2**0
                  CONTENTS, READONLY, DEBUGGING
 12 .debug_frame  00000fe0  00000000  00000000  00037d28  2**2
                  CONTENTS, READONLY, DEBUGGING
 13 .debug_str    00001aae  00000000  00000000  00038d08  2**0
                  CONTENTS, READONLY, DEBUGGING
 14 .debug_loc    00009030  00000000  00000000  0003a7b6  2**0
                  CONTENTS, READONLY, DEBUGGING
 15 .debug_alt_sim_info 00000020  00000000  00000000  000437e8  2**2
                  CONTENTS, READONLY, DEBUGGING
 16 .debug_ranges 00000618  00000000  00000000  00043808  2**3
                  CONTENTS, READONLY, DEBUGGING
 17 .thread_model 00000003  00000000  00000000  0004694d  2**0
                  CONTENTS, READONLY
 18 .cpu          00000003  00000000  00000000  00046950  2**0
                  CONTENTS, READONLY
 19 .qsys         00000001  00000000  00000000  00046953  2**0
                  CONTENTS, READONLY
 20 .simulation_enabled 00000001  00000000  00000000  00046954  2**0
                  CONTENTS, READONLY
 21 .sysid_hash   00000004  00000000  00000000  00046955  2**0
                  CONTENTS, READONLY
 22 .sysid_base   00000004  00000000  00000000  00046959  2**0
                  CONTENTS, READONLY
 23 .sysid_time   00000004  00000000  00000000  0004695d  2**0
                  CONTENTS, READONLY
 24 .stderr_dev   00000009  00000000  00000000  00046961  2**0
                  CONTENTS, READONLY
 25 .stdin_dev    00000009  00000000  00000000  0004696a  2**0
                  CONTENTS, READONLY
 26 .stdout_dev   00000009  00000000  00000000  00046973  2**0
                  CONTENTS, READONLY
 27 .sopc_system_name 00000012  00000000  00000000  0004697c  2**0
                  CONTENTS, READONLY
 28 .quartus_project_dir 00000014  00000000  00000000  0004698e  2**0
                  CONTENTS, READONLY
 29 .jdi          00005134  00000000  00000000  000469a2  2**0
                  CONTENTS, READONLY
 30 .sopcinfo     000454b6  00000000  00000000  0004bad6  2**0
                  CONTENTS, READONLY
SYMBOL TABLE:
00800000 l    d  .entry	00000000 .entry
00800020 l    d  .exceptions	00000000 .exceptions
00800184 l    d  .text	00000000 .text
00809908 l    d  .rodata	00000000 .rodata
00809bd4 l    d  .rwdata	00000000 .rwdata
0080affc l    d  .bss	00000000 .bss
00000000 l    d  .comment	00000000 .comment
00000000 l    d  .debug_aranges	00000000 .debug_aranges
00000000 l    d  .debug_pubnames	00000000 .debug_pubnames
00000000 l    d  .debug_info	00000000 .debug_info
00000000 l    d  .debug_abbrev	00000000 .debug_abbrev
00000000 l    d  .debug_line	00000000 .debug_line
00000000 l    d  .debug_frame	00000000 .debug_frame
00000000 l    d  .debug_str	00000000 .debug_str
00000000 l    d  .debug_loc	00000000 .debug_loc
00000000 l    d  .debug_alt_sim_info	00000000 .debug_alt_sim_info
00000000 l    d  .debug_ranges	00000000 .debug_ranges
008001bc l       .text	00000000 alt_after_alt_main
00000000 l    df *ABS*	00000000 alt_irq_handler.c
00000000 l    df *ABS*	00000000 hello_world.c
00000000 l    df *ABS*	00000000 fp-bit.c
00800698 l     F .text	000001e4 _fpadd_parts
00000000 l    df *ABS*	00000000 fp-bit.c
00000000 l    df *ABS*	00000000 fp-bit.c
00000000 l    df *ABS*	00000000 fp-bit.c
00000000 l    df *ABS*	00000000 fp-bit.c
00000000 l    df *ABS*	00000000 dp-bit.c
00800bb0 l     F .text	00000410 _fpadd_parts
00000000 l    df *ABS*	00000000 dp-bit.c
00000000 l    df *ABS*	00000000 dp-bit.c
00000000 l    df *ABS*	00000000 dp-bit.c
00000000 l    df *ABS*	00000000 dp-bit.c
00000000 l    df *ABS*	00000000 dp-bit.c
00000000 l    df *ABS*	00000000 libgcc2.c
00000000 l    df *ABS*	00000000 fp-bit.c
00000000 l    df *ABS*	00000000 fp-bit.c
00000000 l    df *ABS*	00000000 dp-bit.c
00000000 l    df *ABS*	00000000 dp-bit.c
00000000 l    df *ABS*	00000000 libgcc2.c
00000000 l    df *ABS*	00000000 efgcvt.c
00000000 l    df *ABS*	00000000 impure.c
00809bd4 l     O .rwdata	00000400 impure_data
00000000 l    df *ABS*	00000000 malloc.c
00000000 l    df *ABS*	00000000 mallocr.c
00000000 l    df *ABS*	00000000 memcpy.c
00000000 l    df *ABS*	00000000 rand.c
00000000 l    df *ABS*	00000000 sbrkr.c
00000000 l    df *ABS*	00000000 ecvtbuf.c
008027cc l     F .text	000001f0 print_e
00000000 l    df *ABS*	00000000 mallocr.c
00000000 l    df *ABS*	00000000 int_errno.c
00000000 l    df *ABS*	00000000 mprec.c
00809b98 l     O .rodata	0000000c p05.2458
00000000 l    df *ABS*	00000000 mallocr.c
00000000 l    df *ABS*	00000000 strcpy.c
00000000 l    df *ABS*	00000000 mallocr.c
00000000 l    df *ABS*	00000000 dtoa.c
00804dec l     F .text	00000218 quorem
00000000 l    df *ABS*	00000000 memmove.c
00000000 l    df *ABS*	00000000 memset.c
00000000 l    df *ABS*	00000000 libgcc2.c
00000000 l    df *ABS*	00000000 dp-bit.c
00000000 l    df *ABS*	00000000 dp-bit.c
00000000 l    df *ABS*	00000000 dp-bit.c
00000000 l    df *ABS*	00000000 dp-bit.c
00000000 l    df *ABS*	00000000 dp-bit.c
00000000 l    df *ABS*	00000000 dp-bit.c
00000000 l    df *ABS*	00000000 dp-bit.c
00000000 l    df *ABS*	00000000 dp-bit.c
00000000 l    df *ABS*	00000000 lib2-divmod.c
00806f94 l     F .text	0000007c udivmodsi4
00000000 l    df *ABS*	00000000 dp-bit.c
00000000 l    df *ABS*	00000000 alt_load.c
00000000 l    df *ABS*	00000000 alt_main.c
00000000 l    df *ABS*	00000000 alt_malloc_lock.c
00000000 l    df *ABS*	00000000 alt_putstr.c
00000000 l    df *ABS*	00000000 alt_sbrk.c
0080a5c0 l     O .rwdata	00000004 heap_end
00000000 l    df *ABS*	00000000 alt_tick.c
00000000 l    df *ABS*	00000000 alt_times.c
00000000 l    df *ABS*	00000000 alt_sys_init.c
0080a3dc l     O .rwdata	0000002c jtag_uart
00000000 l    df *ABS*	00000000 altera_avalon_jtag_uart_fd.c
00000000 l    df *ABS*	00000000 altera_avalon_jtag_uart_read.c
00000000 l    df *ABS*	00000000 altera_avalon_jtag_uart_write.c
00000000 l    df *ABS*	00000000 altera_avalon_timer_sc.c
0080764c l     F .text	0000003c alt_avalon_timer_sc_irq
00000000 l    df *ABS*	00000000 alt_close.c
00000000 l    df *ABS*	00000000 alt_dcache_flush_all.c
00000000 l    df *ABS*	00000000 alt_dev.c
0080777c l     F .text	00000008 alt_dev_null_write
00000000 l    df *ABS*	00000000 alt_dev_llist_insert.c
00000000 l    df *ABS*	00000000 alt_errno.c
00000000 l    df *ABS*	00000000 alt_icache_flush_all.c
00000000 l    df *ABS*	00000000 alt_iic.c
00000000 l    df *ABS*	00000000 alt_iic_isr_register.c
00000000 l    df *ABS*	00000000 alt_io_redirect.c
00000000 l    df *ABS*	00000000 alt_irq_vars.c
00000000 l    df *ABS*	00000000 alt_open.c
00000000 l    df *ABS*	00000000 alt_release_fd.c
00000000 l    df *ABS*	00000000 altera_nios2_qsys_irq.c
00000000 l    df *ABS*	00000000 alt_find_dev.c
00000000 l    df *ABS*	00000000 alt_find_file.c
00000000 l    df *ABS*	00000000 alt_get_fd.c
00000000 l    df *ABS*	00000000 alt_icache_flush.c
00000000 l    df *ABS*	00000000 exit.c
00000000 l    df *ABS*	00000000 fputs.c
00000000 l    df *ABS*	00000000 fvwrite.c
00000000 l    df *ABS*	00000000 memchr.c
00000000 l    df *ABS*	00000000 memcmp.c
00000000 l    df *ABS*	00000000 strlen.c
00000000 l    df *ABS*	00000000 wsetup.c
00000000 l    df *ABS*	00000000 __call_atexit.c
00808628 l     F .text	00000004 register_fini
00000000 l    df *ABS*	00000000 fflush.c
00000000 l    df *ABS*	00000000 findfp.c
00808a0c l     F .text	00000058 std
00808b18 l     F .text	00000008 __fp_lock
00808b20 l     F .text	00000008 __fp_unlock
00000000 l    df *ABS*	00000000 fwalk.c
00000000 l    df *ABS*	00000000 makebuf.c
00000000 l    df *ABS*	00000000 stdio.c
00000000 l    df *ABS*	00000000 writer.c
00000000 l    df *ABS*	00000000 closer.c
00000000 l    df *ABS*	00000000 fclose.c
00000000 l    df *ABS*	00000000 fstatr.c
00000000 l    df *ABS*	00000000 isattyr.c
00000000 l    df *ABS*	00000000 lseekr.c
00000000 l    df *ABS*	00000000 readr.c
00000000 l    df *ABS*	00000000 alt_exit.c
00000000 l    df *ABS*	00000000 alt_fstat.c
00000000 l    df *ABS*	00000000 alt_isatty.c
00000000 l    df *ABS*	00000000 alt_lseek.c
00000000 l    df *ABS*	00000000 alt_read.c
00000000 l    df *ABS*	00000000 alt_write.c
00803ad0 g     F .text	00000094 _mprec_log10
00803bbc g     F .text	00000088 __any_on
008093ac g     F .text	00000070 _isatty_r
00809b70 g     O .rodata	00000028 __mprec_tinytens
0080725c g     F .text	00000050 alt_main
00804cac g     F .text	0000008c strcpy
0080b04c g     O .bss	00000100 alt_irq
0080941c g     F .text	00000078 _lseek_r
0080a5e8 g       *ABS*	00000000 __flash_rwdata_start
00806b8c g     F .text	00000088 __eqdf2
0080b14c g       *ABS*	00000000 __alt_heap_start
00808fe8 g     F .text	00000068 __sseek
00808a74 g     F .text	000000a4 __sinit
008030dc g     F .text	000001a8 fcvtbuf
00808b74 g     F .text	00000068 __sfmoreglue
008072b0 g     F .text	00000004 __malloc_unlock
00800950 g     F .text	00000174 __divsf3
00800324 g     F .text	00000200 determinant
008065b8 g     F .text	000000e0 memmove
00808b64 g     F .text	00000010 _cleanup
00803c44 g     F .text	000000bc _Balloc
008072b4 g     F .text	00000014 alt_putstr
00806c9c g     F .text	00000088 __gtdf2
00000000  w      *UND*	00000000 __errno
00800000 g     F .entry	0000001c __reset
00807438 g     F .text	00000080 times
00800020 g       *ABS*	00000000 __flash_exceptions_start
008001c0 g     F .text	0000001c getAt
00809338 g     F .text	00000074 _fstat_r
0080b008 g     O .bss	00000004 errno
00801404 g     F .text	00000038 __make_dp
0080b010 g     O .bss	00000004 alt_argv
008125b0 g       *ABS*	00000000 _gp
0080087c g     F .text	00000070 __subsf3
0080a430 g     O .rwdata	00000180 alt_fd_list
00807be0 g     F .text	00000094 alt_find_dev
00802628 g     F .text	000000a0 memcpy
00808b58 g     F .text	0000000c _cleanup_r
0080130c g     F .text	000000f8 __floatsidf
00807930 g     F .text	00000104 alt_io_redirect
00806dac g     F .text	00000088 __ltdf2
00803a20 g     F .text	000000b0 __ratio
00807534 g     F .text	0000008c altera_avalon_jtag_uart_read
00801ed4 g     F .text	00000014 malloc
008070d0 g     F .text	00000008 __udivsi3
008095b0 g     F .text	00000084 isatty
00809a80 g     O .rodata	000000c8 __mprec_tens
00801d90 g     F .text	00000040 gcvtf
00807d84 g     F .text	00000038 alt_icache_flush
0080affc g     O .bss	00000004 __malloc_top_pad
00807e84 g     F .text	0000049c __sfvwrite_r
0080433c g     F .text	0000003c __i2b
0080275c g     F .text	00000070 _sbrk_r
00809494 g     F .text	00000078 _read_r
0080a5dc g     O .rwdata	00000004 alt_max_fd
00801b8c g     F .text	00000138 __unpack_d
00809214 g     F .text	00000110 _fclose_r
008089d8 g     F .text	00000034 fflush
0080b000 g     O .bss	00000004 __malloc_max_sbrked_mem
00800b5c g     F .text	00000054 __extendsfdf2
00801040 g     F .text	00000074 __adddf3
00803900 g     F .text	00000120 __b2d
00809634 g     F .text	0000009c lseek
0080a5b4 g     O .rwdata	00000004 _global_impure_ptr
008046b8 g     F .text	000005f4 _realloc_r
0080b14c g       *ABS*	00000000 __bss_end
008078a8 g     F .text	00000088 alt_iic_isr_register
00807350 g     F .text	000000e8 alt_tick
00809b48 g     O .rodata	00000028 __mprec_bigtens
00804598 g     F .text	00000120 __s2b
0080143c g     F .text	00000194 __floatunsidf
00803820 g     F .text	00000060 __mcmp
00808b40 g     F .text	00000018 __fp_lock_all
0080780c g     F .text	00000018 alt_ic_irq_enabled
0080731c g     F .text	00000034 alt_alarm_stop
0080b020 g     O .bss	00000004 alt_irq_active
008000ec g     F .exceptions	00000098 alt_irq_handler
0080a408 g     O .rwdata	00000028 alt_dev_null
008017b0 g     F .text	000000c8 __unpack_f
008001dc g     F .text	00000020 putAt
00807778 g     F .text	00000004 alt_dcache_flush_all
008036ec g     F .text	00000070 __hi0bits
00806ebc g     F .text	000000d8 __fixdfsi
0080a5e8 g       *ABS*	00000000 __ram_rwdata_end
0080a5d4 g     O .rwdata	00000008 alt_dev_list
008097ec g     F .text	00000118 write
00809bd4 g       *ABS*	00000000 __ram_rodata_end
00809520 g     F .text	00000090 fstat
00806e34 g     F .text	00000088 __ledf2
00804478 g     F .text	00000120 __pow5mult
008070d8 g     F .text	00000008 __umodsi3
0080b14c g       *ABS*	00000000 end
00801650 g     F .text	00000160 __pack_f
01000000 g       *ABS*	00000000 __alt_stack_pointer
00802c9c g     F .text	000002f8 _dcvt
008075fc g     F .text	00000050 alt_avalon_timer_sc_init
008015d0 g     F .text	00000080 __clzsi2
008075c0 g     F .text	0000003c altera_avalon_jtag_uart_write
00808a64 g     F .text	00000004 __sfp_lock_acquire
00808320 g     F .text	000000e4 memchr
008033b0 g     F .text	00000314 _free_r
0080862c g     F .text	000001b0 __call_exitprocs
0080a5bc g     O .rwdata	00000004 __malloc_sbrk_base
00800184 g     F .text	0000003c _start
0080b018 g     O .bss	00000004 _alt_tick_rate
008026e4 g     F .text	00000078 rand
008029bc g     F .text	000002e0 _gcvt
00804008 g     F .text	0000014c __lshift
0080b01c g     O .bss	00000004 _alt_nticks
008096d0 g     F .text	0000011c read
008074b8 g     F .text	0000003c alt_sys_init
00800ac4 g     F .text	00000098 __floatsisf
00804154 g     F .text	000001e8 __multiply
00809bd4 g       *ABS*	00000000 __ram_rwdata_start
00809908 g       *ABS*	00000000 __ram_rodata_start
0080b024 g     O .bss	00000028 __malloc_current_mallinfo
00803d00 g     F .text	0000017c __d2b
0080020c g     F .text	00000118 randomMatrix
00807524 g     F .text	00000010 altera_avalon_jtag_uart_read_fd
00807d24 g     F .text	00000060 alt_get_fd
008070e0 g     F .text	000000c8 __fpcmp_parts_d
008091a4 g     F .text	00000070 _close_r
00808404 g     F .text	00000074 memcmp
0080b14c g       *ABS*	00000000 __alt_stack_base
008084ec g     F .text	0000013c __swsetup_r
008010b4 g     F .text	00000258 __divdf3
00808bdc g     F .text	000000f0 __sfp
00803b64 g     F .text	00000058 __copybits
00809fd4 g     O .rwdata	00000408 __malloc_av_
00808a70 g     F .text	00000004 __sinit_lock_release
008067c8 g     F .text	000003c4 __muldf3
008090cc g     F .text	00000060 __sread
00809958 g     O .rodata	00000010 __thenan_sf
00807c74 g     F .text	000000b0 alt_find_file
00807784 g     F .text	0000007c alt_dev_llist_insert
008072ac g     F .text	00000004 __malloc_lock
008072c8 g     F .text	00000054 sbrk
008087dc g     F .text	000001fc _fflush_r
00804d38 g     F .text	000000b4 _calloc_r
0080affc g       *ABS*	00000000 __bss_start
00806698 g     F .text	00000098 memset
00800524 g     F .text	00000174 main
00801e48 g     F .text	00000024 fcvt
0080b014 g     O .bss	00000004 alt_envp
0080b004 g     O .bss	00000004 __malloc_max_total_mem
00807514 g     F .text	00000010 altera_avalon_jtag_uart_write_fd
008026c8 g     F .text	0000001c srand
00802f94 g     F .text	00000148 ecvtbuf
00808fe0 g     F .text	00000008 __sclose
01000000 g       *ABS*	00000000 __alt_heap_limit
00809324 g     F .text	00000014 fclose
00805004 g     F .text	000015b4 _dtoa_r
00801ee8 g     F .text	00000740 _malloc_r
0080a5e0 g     O .rwdata	00000004 alt_errno
00801df4 g     F .text	00000054 ecvtf
00808d94 g     F .text	000000b8 _fwalk
00807010 g     F .text	00000060 __divsi3
00809968 g     O .rodata	00000014 __thenan_df
00803284 g     F .text	0000012c _malloc_trim_r
00809908 g       *ABS*	00000000 __flash_rodata_start
00806c14 g     F .text	00000088 __nedf2
008074f4 g     F .text	00000020 alt_irq_init
00807bb4 g     F .text	00000024 alt_release_fd
0080997c g     O .rodata	00000100 __clz_tab
0080912c g     F .text	00000078 _write_r
0080a5b0 g     O .rwdata	00000004 _impure_ptr
0080b00c g     O .bss	00000004 alt_argc
00800020 g       .exceptions	00000000 alt_irq_entry
00803880 g     F .text	00000080 __ulp
00808b28 g     F .text	00000018 __fp_unlock_all
00801dd0 g     F .text	00000024 ecvt
0080a5cc g     O .rwdata	00000008 alt_fs_list
00800020 g       *ABS*	00000000 __ram_exceptions_start
008001fc g     F .text	00000010 setDeterminantSize
008078a4 g     F .text	00000004 alt_ic_isr_register
0080a5e8 g       *ABS*	00000000 _edata
0080b14c g       *ABS*	00000000 _end
00800184 g       *ABS*	00000000 __ram_exceptions_end
00807df4 g     F .text	00000074 _fputs_r
00807864 g     F .text	00000040 alt_ic_irq_disable
00809050 g     F .text	0000007c __swrite
0080a5b8 g     O .rwdata	00000004 __malloc_trim_threshold
00801e6c g     F .text	00000054 fcvtf
00807bd8 g     F .text	00000008 altera_nios2_qsys_irq_init
00807dbc g     F .text	00000038 exit
00808ccc g     F .text	000000c8 _fwalk_reent
00803e7c g     F .text	0000018c __mdiff
00807070 g     F .text	00000060 __modsi3
01000000 g       *ABS*	00000000 __alt_data_end
00800020 g     F .exceptions	00000000 alt_exception
00808a68 g     F .text	00000004 __sfp_lock_release
00800000 g       *ABS*	00000000 __alt_mem_sdram
00801cc4 g     F .text	000000cc gcvt
0080950c g     F .text	00000014 _exit
00806730 g     F .text	00000098 __muldi3
00808e4c g     F .text	00000194 __smakebuf_r
00808478 g     F .text	00000074 strlen
00807a34 g     F .text	00000180 open
00806d24 g     F .text	00000088 __gedf2
00807800 g     F .text	0000000c alt_icache_flush_all
00807e68 g     F .text	0000001c fputs
0080a5e4 g     O .rwdata	00000004 alt_priority_mask
00807824 g     F .text	00000040 alt_ic_irq_enable
00800fc0 g     F .text	00000080 __subdf3
0080375c g     F .text	000000c4 __lo0bits
0080a5c4 g     O .rwdata	00000008 alt_alarm_list
00807688 g     F .text	000000f0 close
008008ec g     F .text	00000064 __addsf3
008071a8 g     F .text	000000b4 alt_load
00801878 g     F .text	00000314 __pack_d
00801ec0 g     F .text	00000014 free
00808a6c g     F .text	00000004 __sinit_lock_acquire
00804378 g     F .text	00000100 __multadd
008036c4 g     F .text	00000028 _Bfree



Disassembly of section .entry:

00800000 <__reset>:
#if NIOS2_ICACHE_SIZE > 0 && defined(ALT_ALLOW_CODE_AT_RESET) && !defined(ALT_SIM_OPTIMIZE)
    /* Assume the instruction cache size is always a power of two. */
#if NIOS2_ICACHE_SIZE > 0x8000
    movhi r2, %hi(NIOS2_ICACHE_SIZE)
#else
    movui r2, NIOS2_ICACHE_SIZE
  800000:	00820014 	movui	r2,2048
#endif

0:
    initi r2
  800004:	1001483a 	initi	r2
    addi r2, r2, -NIOS2_ICACHE_LINE_SIZE
  800008:	10bff804 	addi	r2,r2,-32
    bgt r2, zero, 0b
  80000c:	00bffd16 	blt	zero,r2,800004 <__reset+0x4>
 * Jump to the _start entry point in the .text section if reset code
 * is allowed or if optimizing for RTL simulation.
 */
#if defined(ALT_ALLOW_CODE_AT_RESET) || defined(ALT_SIM_OPTIMIZE)
    /* Jump to the _start entry point in the .text section. */
    movhi r1, %hi(_start)
  800010:	00402034 	movhi	at,128
    ori r1, r1, %lo(_start)
  800014:	08406114 	ori	at,at,388
    jmp r1
  800018:	0800683a 	jmp	at
  80001c:	00000000 	call	0 <__reset-0x800000>

Disassembly of section .exceptions:

00800020 <alt_exception>:
         * Process an exception.  For all exceptions we must preserve all
         * caller saved registers on the stack (See the Nios2 ABI
         * documentation for details).
         */

        addi  sp, sp, -76
  800020:	deffed04 	addi	sp,sp,-76

#endif

#endif

        stw   ra,  0(sp)
  800024:	dfc00015 	stw	ra,0(sp)
        /*
         * Leave a gap in the stack frame at 4(sp) for the muldiv handler to
         * store zero into.
         */

        stw   r1,   8(sp)
  800028:	d8400215 	stw	at,8(sp)
        stw   r2,  12(sp)
  80002c:	d8800315 	stw	r2,12(sp)
        stw   r3,  16(sp)
  800030:	d8c00415 	stw	r3,16(sp)
        stw   r4,  20(sp)
  800034:	d9000515 	stw	r4,20(sp)
        stw   r5,  24(sp)
  800038:	d9400615 	stw	r5,24(sp)
        stw   r6,  28(sp)
  80003c:	d9800715 	stw	r6,28(sp)
        stw   r7,  32(sp)
  800040:	d9c00815 	stw	r7,32(sp)

        rdctl r5, estatus
  800044:	000b307a 	rdctl	r5,estatus

        stw   r8,  36(sp)
  800048:	da000915 	stw	r8,36(sp)
        stw   r9,  40(sp)
  80004c:	da400a15 	stw	r9,40(sp)
        stw   r10, 44(sp)
  800050:	da800b15 	stw	r10,44(sp)
        stw   r11, 48(sp)
  800054:	dac00c15 	stw	r11,48(sp)
        stw   r12, 52(sp)
  800058:	db000d15 	stw	r12,52(sp)
        stw   r13, 56(sp)
  80005c:	db400e15 	stw	r13,56(sp)
        stw   r14, 60(sp)
  800060:	db800f15 	stw	r14,60(sp)
        stw   r15, 64(sp)
  800064:	dbc01015 	stw	r15,64(sp)
        /*
         * ea-4 contains the address of the instruction being executed
         * when the exception occured. For interrupt exceptions, we will
         * will be re-issue the isntruction. Store it in 72(sp)
         */
        stw   r5,  68(sp)  /* estatus */
  800068:	d9401115 	stw	r5,68(sp)
        addi  r15, ea, -4  /* instruction that caused exception */
  80006c:	ebffff04 	addi	r15,ea,-4
        stw   r15,  72(sp)
  800070:	dbc01215 	stw	r15,72(sp)
#else
        /*
         * Test to see if the exception was a software exception or caused 
         * by an external interrupt, and vector accordingly.
         */
        rdctl r4, ipending
  800074:	0009313a 	rdctl	r4,ipending
        andi  r2, r5, 1
  800078:	2880004c 	andi	r2,r5,1
        beq   r2, zero, .Lnot_irq
  80007c:	10000326 	beq	r2,zero,80008c <alt_exception+0x6c>
        beq   r4, zero, .Lnot_irq
  800080:	20000226 	beq	r4,zero,80008c <alt_exception+0x6c>
        /*
         * Now that all necessary registers have been preserved, call 
         * alt_irq_handler() to process the interrupts.
         */

        call alt_irq_handler
  800084:	08000ec0 	call	8000ec <alt_irq_handler>

        .section .exceptions.irqreturn, "xa"

        br    .Lexception_exit
  800088:	00000306 	br	800098 <alt_exception+0x78>
         * upon completion, so we write ea (address of instruction *after*
         * the one where the exception occured) into 72(sp). The actual
         * instruction that caused the exception is written in r2, which these
         * handlers will utilize.
         */
        stw   ea,  72(sp)  /* Don't re-issue */
  80008c:	df401215 	stw	ea,72(sp)
        ldw   r2, -4(ea)   /* Instruction that caused exception */
  800090:	e8bfff17 	ldw	r2,-4(ea)
#ifdef NIOS2_HAS_DEBUG_STUB
       /*
        *  Either tell the user now (if there is a debugger attached) or go into
        *  the debug monitor which will loop until a debugger is attached.
        */
        break
  800094:	003da03a 	break	0
        /* 
         * Restore the saved registers, so that all general purpose registers 
         * have been restored to their state at the time the interrupt occured.
         */

        ldw   r5,  68(sp)
  800098:	d9401117 	ldw	r5,68(sp)
        ldw   ea,  72(sp)  /* This becomes the PC once eret is executed */
  80009c:	df401217 	ldw	ea,72(sp)
        ldw   ra,   0(sp)
  8000a0:	dfc00017 	ldw	ra,0(sp)

        wrctl estatus, r5
  8000a4:	2801707a 	wrctl	estatus,r5

        ldw   r1,   8(sp)
  8000a8:	d8400217 	ldw	at,8(sp)
        ldw   r2,  12(sp)
  8000ac:	d8800317 	ldw	r2,12(sp)
        ldw   r3,  16(sp)
  8000b0:	d8c00417 	ldw	r3,16(sp)
        ldw   r4,  20(sp)
  8000b4:	d9000517 	ldw	r4,20(sp)
        ldw   r5,  24(sp)
  8000b8:	d9400617 	ldw	r5,24(sp)
        ldw   r6,  28(sp)
  8000bc:	d9800717 	ldw	r6,28(sp)
        ldw   r7,  32(sp)
  8000c0:	d9c00817 	ldw	r7,32(sp)
#ifdef ALT_STACK_CHECK
        ldw   et, %gprel(alt_exception_old_stack_limit)(gp)
#endif
#endif

        ldw   r8,  36(sp)
  8000c4:	da000917 	ldw	r8,36(sp)
        ldw   r9,  40(sp)
  8000c8:	da400a17 	ldw	r9,40(sp)
        ldw   r10, 44(sp)
  8000cc:	da800b17 	ldw	r10,44(sp)
        ldw   r11, 48(sp)
  8000d0:	dac00c17 	ldw	r11,48(sp)
        ldw   r12, 52(sp)
  8000d4:	db000d17 	ldw	r12,52(sp)
        ldw   r13, 56(sp)
  8000d8:	db400e17 	ldw	r13,56(sp)
        ldw   r14, 60(sp)
  8000dc:	db800f17 	ldw	r14,60(sp)
        ldw   r15, 64(sp)
  8000e0:	dbc01017 	ldw	r15,64(sp)
#endif

        ldw   sp,  76(sp)

#else
        addi  sp, sp, 76
  8000e4:	dec01304 	addi	sp,sp,76

        /*
         * Return to the interrupted instruction.
         */

        eret
  8000e8:	ef80083a 	eret

008000ec <alt_irq_handler>:
  8000ec:	defffe04 	addi	sp,sp,-8
  8000f0:	dfc00115 	stw	ra,4(sp)
  8000f4:	dc000015 	stw	r16,0(sp)
  8000f8:	000b313a 	rdctl	r5,ipending
  8000fc:	2880004c 	andi	r2,r5,1
  800100:	1005003a 	cmpeq	r2,r2,zero
  800104:	04002074 	movhi	r16,129
  800108:	842c1304 	addi	r16,r16,-20404
  80010c:	10001126 	beq	r2,zero,800154 <alt_irq_handler+0x68>
  800110:	00c00044 	movi	r3,1
  800114:	0009883a 	mov	r4,zero
  800118:	18c7883a 	add	r3,r3,r3
  80011c:	28c4703a 	and	r2,r5,r3
  800120:	21000044 	addi	r4,r4,1
  800124:	103ffc26 	beq	r2,zero,800118 <alt_irq_handler+0x2c>
  800128:	200490fa 	slli	r2,r4,3
  80012c:	1405883a 	add	r2,r2,r16
  800130:	11000117 	ldw	r4,4(r2)
  800134:	10c00017 	ldw	r3,0(r2)
  800138:	183ee83a 	callr	r3
  80013c:	0005313a 	rdctl	r2,ipending
  800140:	10000c26 	beq	r2,zero,800174 <alt_irq_handler+0x88>
  800144:	100b883a 	mov	r5,r2
  800148:	2880004c 	andi	r2,r5,1
  80014c:	1005003a 	cmpeq	r2,r2,zero
  800150:	103fef1e 	bne	r2,zero,800110 <alt_irq_handler+0x24>
  800154:	0009883a 	mov	r4,zero
  800158:	200490fa 	slli	r2,r4,3
  80015c:	1405883a 	add	r2,r2,r16
  800160:	11000117 	ldw	r4,4(r2)
  800164:	10c00017 	ldw	r3,0(r2)
  800168:	183ee83a 	callr	r3
  80016c:	0005313a 	rdctl	r2,ipending
  800170:	103ff41e 	bne	r2,zero,800144 <alt_irq_handler+0x58>
  800174:	dfc00117 	ldw	ra,4(sp)
  800178:	dc000017 	ldw	r16,0(sp)
  80017c:	dec00204 	addi	sp,sp,8
  800180:	f800283a 	ret

Disassembly of section .text:

00800184 <_start>:
#if (NIOS2_NUM_OF_SHADOW_REG_SETS == 0)    
    /*
     * Now that the caches are initialized, set up the stack pointer.
     * The value provided by the linker is assumed to be correctly aligned.
     */
    movhi sp, %hi(__alt_stack_pointer)
  800184:	06c04034 	movhi	sp,256
    ori sp, sp, %lo(__alt_stack_pointer)
  800188:	dec00014 	ori	sp,sp,0

    /* Set up the global pointer. */
    movhi gp, %hi(_gp)
  80018c:	06802074 	movhi	gp,129
    ori gp, gp, %lo(_gp)
  800190:	d6896c14 	ori	gp,gp,9648
 */
#ifndef ALT_SIM_OPTIMIZE
    /* Log that the BSS is about to be cleared. */
    ALT_LOG_PUTS(alt_log_msg_bss)

    movhi r2, %hi(__bss_start)
  800194:	00802034 	movhi	r2,128
    ori r2, r2, %lo(__bss_start)
  800198:	10abff14 	ori	r2,r2,45052

    movhi r3, %hi(__bss_end)
  80019c:	00c02034 	movhi	r3,128
    ori r3, r3, %lo(__bss_end)
  8001a0:	18ec5314 	ori	r3,r3,45388

    beq r2, r3, 1f
  8001a4:	10c00326 	beq	r2,r3,8001b4 <_start+0x30>

0:
    stw zero, (r2)
  8001a8:	10000015 	stw	zero,0(r2)
    addi r2, r2, 4
  8001ac:	10800104 	addi	r2,r2,4
    bltu r2, r3, 0b
  8001b0:	10fffd36 	bltu	r2,r3,8001a8 <_start+0x24>
     * section aren't defined until alt_load() has been called).
     */
    mov   et, zero
#endif

    call alt_load
  8001b4:	08071a80 	call	8071a8 <alt_load>

    /* Log that alt_main is about to be called. */
    ALT_LOG_PUTS(alt_log_msg_alt_main)

    /* Call the C entry point. It should never return. */
    call alt_main
  8001b8:	080725c0 	call	80725c <alt_main>

008001bc <alt_after_alt_main>:

    /* Wait in infinite loop in case alt_main does return. */
alt_after_alt_main:
    br alt_after_alt_main
  8001bc:	003fff06 	br	8001bc <alt_after_alt_main>

008001c0 <getAt>:
  8001c0:	29cb383a 	mul	r5,r5,r7
  8001c4:	298b883a 	add	r5,r5,r6
  8001c8:	294b883a 	add	r5,r5,r5
  8001cc:	294b883a 	add	r5,r5,r5
  8001d0:	290b883a 	add	r5,r5,r4
  8001d4:	28800017 	ldw	r2,0(r5)
  8001d8:	f800283a 	ret

008001dc <putAt>:
  8001dc:	29cb383a 	mul	r5,r5,r7
  8001e0:	d8800017 	ldw	r2,0(sp)
  8001e4:	298b883a 	add	r5,r5,r6
  8001e8:	294b883a 	add	r5,r5,r5
  8001ec:	294b883a 	add	r5,r5,r5
  8001f0:	290b883a 	add	r5,r5,r4
  8001f4:	28800015 	stw	r2,0(r5)
  8001f8:	f800283a 	ret

008001fc <setDeterminantSize>:
  8001fc:	00804034 	movhi	r2,256
  800200:	10841404 	addi	r2,r2,4176
  800204:	11000035 	stwio	r4,0(r2)
  800208:	f800283a 	ret

0080020c <randomMatrix>:
  80020c:	defff604 	addi	sp,sp,-40
  800210:	dc000315 	stw	r16,12(sp)
  800214:	2021883a 	mov	r16,r4
  800218:	0009883a 	mov	r4,zero
  80021c:	dfc00915 	stw	ra,36(sp)
  800220:	dc800515 	stw	r18,20(sp)
  800224:	dd400815 	stw	r21,32(sp)
  800228:	2825883a 	mov	r18,r5
  80022c:	dd000715 	stw	r20,28(sp)
  800230:	dcc00615 	stw	r19,24(sp)
  800234:	dc400415 	stw	r17,16(sp)
  800238:	08074380 	call	807438 <times>
  80023c:	1009883a 	mov	r4,r2
  800240:	08026c80 	call	8026c8 <srand>
  800244:	01002074 	movhi	r4,129
  800248:	21264204 	addi	r4,r4,-26360
  80024c:	08072b40 	call	8072b4 <alt_putstr>
  800250:	0480280e 	bge	zero,r18,8002f4 <randomMatrix+0xe8>
  800254:	9485883a 	add	r2,r18,r18
  800258:	10ab883a 	add	r21,r2,r2
  80025c:	8027883a 	mov	r19,r16
  800260:	0029883a 	mov	r20,zero
  800264:	9821883a 	mov	r16,r19
  800268:	0023883a 	mov	r17,zero
  80026c:	08026e40 	call	8026e4 <rand>
  800270:	01000504 	movi	r4,20
  800274:	1109283a 	div	r4,r2,r4
  800278:	21000524 	muli	r4,r4,20
  80027c:	8c400044 	addi	r17,r17,1
  800280:	1109c83a 	sub	r4,r2,r4
  800284:	0800ac40 	call	800ac4 <__floatsisf>
  800288:	1009883a 	mov	r4,r2
  80028c:	01504834 	movhi	r5,16672
  800290:	08009500 	call	800950 <__divsf3>
  800294:	1009883a 	mov	r4,r2
  800298:	014fe034 	movhi	r5,16256
  80029c:	080087c0 	call	80087c <__subsf3>
  8002a0:	80800015 	stw	r2,0(r16)
  8002a4:	1009883a 	mov	r4,r2
  8002a8:	0800b5c0 	call	800b5c <__extendsfdf2>
  8002ac:	180b883a 	mov	r5,r3
  8002b0:	01800284 	movi	r6,10
  8002b4:	d80f883a 	mov	r7,sp
  8002b8:	1009883a 	mov	r4,r2
  8002bc:	0801cc40 	call	801cc4 <gcvt>
  8002c0:	d809883a 	mov	r4,sp
  8002c4:	08072b40 	call	8072b4 <alt_putstr>
  8002c8:	01002074 	movhi	r4,129
  8002cc:	21264f04 	addi	r4,r4,-26308
  8002d0:	08072b40 	call	8072b4 <alt_putstr>
  8002d4:	84000104 	addi	r16,r16,4
  8002d8:	947fe41e 	bne	r18,r17,80026c <randomMatrix+0x60>
  8002dc:	01002074 	movhi	r4,129
  8002e0:	21264304 	addi	r4,r4,-26356
  8002e4:	a5000044 	addi	r20,r20,1
  8002e8:	08072b40 	call	8072b4 <alt_putstr>
  8002ec:	9d67883a 	add	r19,r19,r21
  8002f0:	8d3fdc1e 	bne	r17,r20,800264 <randomMatrix+0x58>
  8002f4:	01002074 	movhi	r4,129
  8002f8:	21264404 	addi	r4,r4,-26352
  8002fc:	08072b40 	call	8072b4 <alt_putstr>
  800300:	dfc00917 	ldw	ra,36(sp)
  800304:	dd400817 	ldw	r21,32(sp)
  800308:	dd000717 	ldw	r20,28(sp)
  80030c:	dcc00617 	ldw	r19,24(sp)
  800310:	dc800517 	ldw	r18,20(sp)
  800314:	dc400417 	ldw	r17,16(sp)
  800318:	dc000317 	ldw	r16,12(sp)
  80031c:	dec00a04 	addi	sp,sp,40
  800320:	f800283a 	ret

00800324 <determinant>:
  800324:	defff804 	addi	sp,sp,-32
  800328:	dc000015 	stw	r16,0(sp)
  80032c:	2961883a 	add	r16,r5,r5
  800330:	dd800615 	stw	r22,24(sp)
  800334:	842d883a 	add	r22,r16,r16
  800338:	dc400115 	stw	r17,4(sp)
  80033c:	2da3383a 	mul	r17,r5,r22
  800340:	dcc00315 	stw	r19,12(sp)
  800344:	2027883a 	mov	r19,r4
  800348:	8809883a 	mov	r4,r17
  80034c:	dd400515 	stw	r21,20(sp)
  800350:	dd000415 	stw	r20,16(sp)
  800354:	dc800215 	stw	r18,8(sp)
  800358:	dfc00715 	stw	ra,28(sp)
  80035c:	2825883a 	mov	r18,r5
  800360:	0801ed40 	call	801ed4 <malloc>
  800364:	980b883a 	mov	r5,r19
  800368:	880d883a 	mov	r6,r17
  80036c:	1009883a 	mov	r4,r2
  800370:	1029883a 	mov	r20,r2
  800374:	102b883a 	mov	r21,r2
  800378:	08026280 	call	802628 <memcpy>
  80037c:	0480670e 	bge	zero,r18,80051c <determinant+0x1f8>
  800380:	a023883a 	mov	r17,r20
  800384:	a03f883a 	mov	ra,r20
  800388:	0019883a 	mov	r12,zero
  80038c:	0027883a 	mov	r19,zero
  800390:	03002b0e 	bge	zero,r12,800440 <determinant+0x11c>
  800394:	8a000017 	ldw	r8,0(r17)
  800398:	881d883a 	mov	r14,r17
  80039c:	001f883a 	mov	r15,zero
  8003a0:	000f883a 	mov	r7,zero
  8003a4:	3cc5883a 	add	r2,r7,r19
  8003a8:	1085883a 	add	r2,r2,r2
  8003ac:	39c7883a 	add	r3,r7,r7
  8003b0:	1085883a 	add	r2,r2,r2
  8003b4:	18c7883a 	add	r3,r3,r3
  8003b8:	91db383a 	mul	r13,r18,r7
  8003bc:	a085883a 	add	r2,r20,r2
  8003c0:	a0c7883a 	add	r3,r20,r3
  8003c4:	12c00104 	addi	r11,r2,4
  8003c8:	1a800104 	addi	r10,r3,4
  8003cc:	7b45883a 	add	r2,r15,r13
  8003d0:	1085883a 	add	r2,r2,r2
  8003d4:	1085883a 	add	r2,r2,r2
  8003d8:	1505883a 	add	r2,r2,r20
  8003dc:	10c00017 	ldw	r3,0(r2)
  8003e0:	40c7c0f2 	custom	3,r3,r8,r3
  8003e4:	39c00044 	addi	r7,r7,1
  8003e8:	70c00015 	stw	r3,0(r14)
  8003ec:	3b00140e 	bge	r7,r12,800440 <determinant+0x11c>
  8003f0:	581d883a 	mov	r14,r11
  8003f4:	381f883a 	mov	r15,r7
  8003f8:	5a000017 	ldw	r8,0(r11)
  8003fc:	01ffe90e 	bge	zero,r7,8003a4 <determinant+0x80>
  800400:	880b883a 	mov	r5,r17
  800404:	8413883a 	add	r9,r16,r16
  800408:	5009883a 	mov	r4,r10
  80040c:	000d883a 	mov	r6,zero
  800410:	28800017 	ldw	r2,0(r5)
  800414:	20c00017 	ldw	r3,0(r4)
  800418:	10c5c0b2 	custom	2,r2,r2,r3
  80041c:	4091c072 	custom	1,r8,r8,r2
  800420:	31800044 	addi	r6,r6,1
  800424:	29400104 	addi	r5,r5,4
  800428:	2249883a 	add	r4,r4,r9
  80042c:	39bff81e 	bne	r7,r6,800410 <determinant+0xec>
  800430:	5ac00104 	addi	r11,r11,4
  800434:	6c9b883a 	add	r13,r13,r18
  800438:	52800104 	addi	r10,r10,4
  80043c:	003fe306 	br	8003cc <determinant+0xa8>
  800440:	9b05883a 	add	r2,r19,r12
  800444:	1085883a 	add	r2,r2,r2
  800448:	1085883a 	add	r2,r2,r2
  80044c:	a093883a 	add	r9,r20,r2
  800450:	f817883a 	mov	r11,ra
  800454:	6015883a 	mov	r10,r12
  800458:	63400050 	cmplti	r13,r12,1
  80045c:	49c00017 	ldw	r7,0(r9)
  800460:	68000e1e 	bne	r13,zero,80049c <determinant+0x178>
  800464:	9cc5883a 	add	r2,r19,r19
  800468:	1085883a 	add	r2,r2,r2
  80046c:	a08b883a 	add	r5,r20,r2
  800470:	8411883a 	add	r8,r16,r16
  800474:	5809883a 	mov	r4,r11
  800478:	000d883a 	mov	r6,zero
  80047c:	28800017 	ldw	r2,0(r5)
  800480:	20c00017 	ldw	r3,0(r4)
  800484:	10c5c0b2 	custom	2,r2,r2,r3
  800488:	388fc072 	custom	1,r7,r7,r2
  80048c:	31800044 	addi	r6,r6,1
  800490:	29400104 	addi	r5,r5,4
  800494:	2209883a 	add	r4,r4,r8
  800498:	333ff81e 	bne	r6,r12,80047c <determinant+0x158>
  80049c:	52800044 	addi	r10,r10,1
  8004a0:	49c00015 	stw	r7,0(r9)
  8004a4:	5ac00104 	addi	r11,r11,4
  8004a8:	4a400104 	addi	r9,r9,4
  8004ac:	54bfeb16 	blt	r10,r18,80045c <determinant+0x138>
  8004b0:	63000044 	addi	r12,r12,1
  8004b4:	ffc00104 	addi	ra,ra,4
  8004b8:	9ca7883a 	add	r19,r19,r18
  8004bc:	8da3883a 	add	r17,r17,r22
  8004c0:	933fb31e 	bne	r18,r12,800390 <determinant+0x6c>
  8004c4:	8405883a 	add	r2,r16,r16
  8004c8:	11000104 	addi	r4,r2,4
  8004cc:	040fe034 	movhi	r16,16256
  8004d0:	0007883a 	mov	r3,zero
  8004d4:	a8800017 	ldw	r2,0(r21)
  8004d8:	80a1c0b2 	custom	2,r16,r16,r2
  8004dc:	18c00044 	addi	r3,r3,1
  8004e0:	a92b883a 	add	r21,r21,r4
  8004e4:	90fffb1e 	bne	r18,r3,8004d4 <determinant+0x1b0>
  8004e8:	a009883a 	mov	r4,r20
  8004ec:	0801ec00 	call	801ec0 <free>
  8004f0:	8005883a 	mov	r2,r16
  8004f4:	dfc00717 	ldw	ra,28(sp)
  8004f8:	dd800617 	ldw	r22,24(sp)
  8004fc:	dd400517 	ldw	r21,20(sp)
  800500:	dd000417 	ldw	r20,16(sp)
  800504:	dcc00317 	ldw	r19,12(sp)
  800508:	dc800217 	ldw	r18,8(sp)
  80050c:	dc400117 	ldw	r17,4(sp)
  800510:	dc000017 	ldw	r16,0(sp)
  800514:	dec00804 	addi	sp,sp,32
  800518:	f800283a 	ret
  80051c:	040fe034 	movhi	r16,16256
  800520:	003ff106 	br	8004e8 <determinant+0x1c4>

00800524 <main>:
  800524:	defe6404 	addi	sp,sp,-1648
  800528:	01002074 	movhi	r4,129
  80052c:	21264504 	addi	r4,r4,-26348
  800530:	dfc19b15 	stw	ra,1644(sp)
  800534:	dd019a15 	stw	r20,1640(sp)
  800538:	dc819815 	stw	r18,1632(sp)
  80053c:	dc419715 	stw	r17,1628(sp)
  800540:	dc019615 	stw	r16,1624(sp)
  800544:	dcc19915 	stw	r19,1636(sp)
  800548:	dc800604 	addi	r18,sp,24
  80054c:	08072b40 	call	8072b4 <alt_putstr>
  800550:	01400504 	movi	r5,20
  800554:	9009883a 	mov	r4,r18
  800558:	080020c0 	call	80020c <randomMatrix>
  80055c:	0009883a 	mov	r4,zero
  800560:	08074380 	call	807438 <times>
  800564:	1029883a 	mov	r20,r2
  800568:	0021883a 	mov	r16,zero
  80056c:	04401904 	movi	r17,100
  800570:	9009883a 	mov	r4,r18
  800574:	01400504 	movi	r5,20
  800578:	08003240 	call	800324 <determinant>
  80057c:	84000044 	addi	r16,r16,1
  800580:	1027883a 	mov	r19,r2
  800584:	847ffa1e 	bne	r16,r17,800570 <main+0x4c>
  800588:	0009883a 	mov	r4,zero
  80058c:	08074380 	call	807438 <times>
  800590:	1009883a 	mov	r4,r2
  800594:	080143c0 	call	80143c <__floatunsidf>
  800598:	a009883a 	mov	r4,r20
  80059c:	1021883a 	mov	r16,r2
  8005a0:	1823883a 	mov	r17,r3
  8005a4:	080143c0 	call	80143c <__floatunsidf>
  8005a8:	880b883a 	mov	r5,r17
  8005ac:	180f883a 	mov	r7,r3
  8005b0:	100d883a 	mov	r6,r2
  8005b4:	8009883a 	mov	r4,r16
  8005b8:	0800fc00 	call	800fc0 <__subdf3>
  8005bc:	01402074 	movhi	r5,129
  8005c0:	296c0604 	addi	r5,r5,-20456
  8005c4:	29000017 	ldw	r4,0(r5)
  8005c8:	1021883a 	mov	r16,r2
  8005cc:	1823883a 	mov	r17,r3
  8005d0:	080143c0 	call	80143c <__floatunsidf>
  8005d4:	880b883a 	mov	r5,r17
  8005d8:	8009883a 	mov	r4,r16
  8005dc:	180f883a 	mov	r7,r3
  8005e0:	100d883a 	mov	r6,r2
  8005e4:	08010b40 	call	8010b4 <__divdf3>
  8005e8:	180b883a 	mov	r5,r3
  8005ec:	d80f883a 	mov	r7,sp
  8005f0:	01800284 	movi	r6,10
  8005f4:	1009883a 	mov	r4,r2
  8005f8:	0801cc40 	call	801cc4 <gcvt>
  8005fc:	9809883a 	mov	r4,r19
  800600:	0800b5c0 	call	800b5c <__extendsfdf2>
  800604:	dc4002c4 	addi	r17,sp,11
  800608:	180b883a 	mov	r5,r3
  80060c:	01800284 	movi	r6,10
  800610:	880f883a 	mov	r7,r17
  800614:	1009883a 	mov	r4,r2
  800618:	0801cc40 	call	801cc4 <gcvt>
  80061c:	8809883a 	mov	r4,r17
  800620:	08072b40 	call	8072b4 <alt_putstr>
  800624:	01002074 	movhi	r4,129
  800628:	21264b04 	addi	r4,r4,-26324
  80062c:	08072b40 	call	8072b4 <alt_putstr>
  800630:	01002074 	movhi	r4,129
  800634:	21264c04 	addi	r4,r4,-26320
  800638:	08072b40 	call	8072b4 <alt_putstr>
  80063c:	d809883a 	mov	r4,sp
  800640:	08072b40 	call	8072b4 <alt_putstr>
  800644:	01002074 	movhi	r4,129
  800648:	21265004 	addi	r4,r4,-26304
  80064c:	08072b40 	call	8072b4 <alt_putstr>
  800650:	00c003c4 	movi	r3,15
  800654:	00804034 	movhi	r2,256
  800658:	10841404 	addi	r2,r2,4176
  80065c:	10c00035 	stwio	r3,0(r2)
  800660:	0009883a 	mov	r4,zero
  800664:	2109c132 	custom	4,r4,r4,r4
  800668:	080130c0 	call	80130c <__floatsidf>
  80066c:	180b883a 	mov	r5,r3
  800670:	1009883a 	mov	r4,r2
  800674:	01800284 	movi	r6,10
  800678:	880f883a 	mov	r7,r17
  80067c:	0801cc40 	call	801cc4 <gcvt>
  800680:	01002074 	movhi	r4,129
  800684:	21265304 	addi	r4,r4,-26292
  800688:	08072b40 	call	8072b4 <alt_putstr>
  80068c:	8809883a 	mov	r4,r17
  800690:	08072b40 	call	8072b4 <alt_putstr>
  800694:	003fff06 	br	800694 <main+0x170>

00800698 <_fpadd_parts>:
  800698:	21c00017 	ldw	r7,0(r4)
  80069c:	02000044 	movi	r8,1
  8006a0:	41c0332e 	bgeu	r8,r7,800770 <_fpadd_parts+0xd8>
  8006a4:	28800017 	ldw	r2,0(r5)
  8006a8:	4080462e 	bgeu	r8,r2,8007c4 <_fpadd_parts+0x12c>
  8006ac:	00c00104 	movi	r3,4
  8006b0:	38c06b26 	beq	r7,r3,800860 <_fpadd_parts+0x1c8>
  8006b4:	10c04326 	beq	r2,r3,8007c4 <_fpadd_parts+0x12c>
  8006b8:	00c00084 	movi	r3,2
  8006bc:	10c02e26 	beq	r2,r3,800778 <_fpadd_parts+0xe0>
  8006c0:	38c04026 	beq	r7,r3,8007c4 <_fpadd_parts+0x12c>
  8006c4:	22800217 	ldw	r10,8(r4)
  8006c8:	28c00217 	ldw	r3,8(r5)
  8006cc:	23000317 	ldw	r12,12(r4)
  8006d0:	2a400317 	ldw	r9,12(r5)
  8006d4:	50cfc83a 	sub	r7,r10,r3
  8006d8:	3817883a 	mov	r11,r7
  8006dc:	38004f16 	blt	r7,zero,80081c <_fpadd_parts+0x184>
  8006e0:	008007c4 	movi	r2,31
  8006e4:	11c03316 	blt	r2,r7,8007b4 <_fpadd_parts+0x11c>
  8006e8:	02c0540e 	bge	zero,r11,80083c <_fpadd_parts+0x1a4>
  8006ec:	41c4983a 	sll	r2,r8,r7
  8006f0:	49c6d83a 	srl	r3,r9,r7
  8006f4:	10bfffc4 	addi	r2,r2,-1
  8006f8:	4884703a 	and	r2,r9,r2
  8006fc:	1004c03a 	cmpne	r2,r2,zero
  800700:	1892b03a 	or	r9,r3,r2
  800704:	20c00117 	ldw	r3,4(r4)
  800708:	28800117 	ldw	r2,4(r5)
  80070c:	18803c26 	beq	r3,r2,800800 <_fpadd_parts+0x168>
  800710:	18002f26 	beq	r3,zero,8007d0 <_fpadd_parts+0x138>
  800714:	4b05c83a 	sub	r2,r9,r12
  800718:	10004216 	blt	r2,zero,800824 <_fpadd_parts+0x18c>
  80071c:	32800215 	stw	r10,8(r6)
  800720:	30800315 	stw	r2,12(r6)
  800724:	30000115 	stw	zero,4(r6)
  800728:	31000317 	ldw	r4,12(r6)
  80072c:	01d00034 	movhi	r7,16384
  800730:	39ffff84 	addi	r7,r7,-2
  800734:	20bfffc4 	addi	r2,r4,-1
  800738:	2007883a 	mov	r3,r4
  80073c:	38800836 	bltu	r7,r2,800760 <_fpadd_parts+0xc8>
  800740:	31400217 	ldw	r5,8(r6)
  800744:	18c9883a 	add	r4,r3,r3
  800748:	20bfffc4 	addi	r2,r4,-1
  80074c:	297fffc4 	addi	r5,r5,-1
  800750:	2007883a 	mov	r3,r4
  800754:	38bffb2e 	bgeu	r7,r2,800744 <_fpadd_parts+0xac>
  800758:	31400215 	stw	r5,8(r6)
  80075c:	31000315 	stw	r4,12(r6)
  800760:	008000c4 	movi	r2,3
  800764:	30800015 	stw	r2,0(r6)
  800768:	20001b16 	blt	r4,zero,8007d8 <_fpadd_parts+0x140>
  80076c:	3009883a 	mov	r4,r6
  800770:	2005883a 	mov	r2,r4
  800774:	f800283a 	ret
  800778:	38fffd1e 	bne	r7,r3,800770 <_fpadd_parts+0xd8>
  80077c:	31c00015 	stw	r7,0(r6)
  800780:	20800117 	ldw	r2,4(r4)
  800784:	30800115 	stw	r2,4(r6)
  800788:	20c00217 	ldw	r3,8(r4)
  80078c:	30c00215 	stw	r3,8(r6)
  800790:	20800317 	ldw	r2,12(r4)
  800794:	30800315 	stw	r2,12(r6)
  800798:	20c00117 	ldw	r3,4(r4)
  80079c:	28800117 	ldw	r2,4(r5)
  8007a0:	3009883a 	mov	r4,r6
  8007a4:	1886703a 	and	r3,r3,r2
  8007a8:	2005883a 	mov	r2,r4
  8007ac:	30c00115 	stw	r3,4(r6)
  8007b0:	f800283a 	ret
  8007b4:	1a801716 	blt	r3,r10,800814 <_fpadd_parts+0x17c>
  8007b8:	1815883a 	mov	r10,r3
  8007bc:	0019883a 	mov	r12,zero
  8007c0:	003fd006 	br	800704 <_fpadd_parts+0x6c>
  8007c4:	2809883a 	mov	r4,r5
  8007c8:	2005883a 	mov	r2,r4
  8007cc:	f800283a 	ret
  8007d0:	6245c83a 	sub	r2,r12,r9
  8007d4:	003fd006 	br	800718 <_fpadd_parts+0x80>
  8007d8:	30800217 	ldw	r2,8(r6)
  8007dc:	2006d07a 	srli	r3,r4,1
  8007e0:	2100004c 	andi	r4,r4,1
  8007e4:	10800044 	addi	r2,r2,1
  8007e8:	1906b03a 	or	r3,r3,r4
  8007ec:	3009883a 	mov	r4,r6
  8007f0:	30800215 	stw	r2,8(r6)
  8007f4:	2005883a 	mov	r2,r4
  8007f8:	30c00315 	stw	r3,12(r6)
  8007fc:	f800283a 	ret
  800800:	4b09883a 	add	r4,r9,r12
  800804:	30c00115 	stw	r3,4(r6)
  800808:	32800215 	stw	r10,8(r6)
  80080c:	31000315 	stw	r4,12(r6)
  800810:	003fd306 	br	800760 <_fpadd_parts+0xc8>
  800814:	0013883a 	mov	r9,zero
  800818:	003fba06 	br	800704 <_fpadd_parts+0x6c>
  80081c:	01cfc83a 	sub	r7,zero,r7
  800820:	003faf06 	br	8006e0 <_fpadd_parts+0x48>
  800824:	0089c83a 	sub	r4,zero,r2
  800828:	00800044 	movi	r2,1
  80082c:	30800115 	stw	r2,4(r6)
  800830:	32800215 	stw	r10,8(r6)
  800834:	31000315 	stw	r4,12(r6)
  800838:	003fbb06 	br	800728 <_fpadd_parts+0x90>
  80083c:	583fb126 	beq	r11,zero,800704 <_fpadd_parts+0x6c>
  800840:	41c4983a 	sll	r2,r8,r7
  800844:	61c6d83a 	srl	r3,r12,r7
  800848:	51d5883a 	add	r10,r10,r7
  80084c:	10bfffc4 	addi	r2,r2,-1
  800850:	6084703a 	and	r2,r12,r2
  800854:	1004c03a 	cmpne	r2,r2,zero
  800858:	1898b03a 	or	r12,r3,r2
  80085c:	003fa906 	br	800704 <_fpadd_parts+0x6c>
  800860:	11ffc31e 	bne	r2,r7,800770 <_fpadd_parts+0xd8>
  800864:	28c00117 	ldw	r3,4(r5)
  800868:	20800117 	ldw	r2,4(r4)
  80086c:	10ffc026 	beq	r2,r3,800770 <_fpadd_parts+0xd8>
  800870:	01002074 	movhi	r4,129
  800874:	21265604 	addi	r4,r4,-26280
  800878:	003fbd06 	br	800770 <_fpadd_parts+0xd8>

0080087c <__subsf3>:
  80087c:	deffef04 	addi	sp,sp,-68
  800880:	dcc00f15 	stw	r19,60(sp)
  800884:	dcc00204 	addi	r19,sp,8
  800888:	dc400e15 	stw	r17,56(sp)
  80088c:	d9000015 	stw	r4,0(sp)
  800890:	d9400115 	stw	r5,4(sp)
  800894:	d809883a 	mov	r4,sp
  800898:	980b883a 	mov	r5,r19
  80089c:	dc400604 	addi	r17,sp,24
  8008a0:	dfc01015 	stw	ra,64(sp)
  8008a4:	08017b00 	call	8017b0 <__unpack_f>
  8008a8:	d9000104 	addi	r4,sp,4
  8008ac:	880b883a 	mov	r5,r17
  8008b0:	08017b00 	call	8017b0 <__unpack_f>
  8008b4:	d8800717 	ldw	r2,28(sp)
  8008b8:	9809883a 	mov	r4,r19
  8008bc:	880b883a 	mov	r5,r17
  8008c0:	d9800a04 	addi	r6,sp,40
  8008c4:	1080005c 	xori	r2,r2,1
  8008c8:	d8800715 	stw	r2,28(sp)
  8008cc:	08006980 	call	800698 <_fpadd_parts>
  8008d0:	1009883a 	mov	r4,r2
  8008d4:	08016500 	call	801650 <__pack_f>
  8008d8:	dfc01017 	ldw	ra,64(sp)
  8008dc:	dcc00f17 	ldw	r19,60(sp)
  8008e0:	dc400e17 	ldw	r17,56(sp)
  8008e4:	dec01104 	addi	sp,sp,68
  8008e8:	f800283a 	ret

008008ec <__addsf3>:
  8008ec:	deffef04 	addi	sp,sp,-68
  8008f0:	dcc00f15 	stw	r19,60(sp)
  8008f4:	dcc00204 	addi	r19,sp,8
  8008f8:	dc400e15 	stw	r17,56(sp)
  8008fc:	d9000015 	stw	r4,0(sp)
  800900:	d9400115 	stw	r5,4(sp)
  800904:	d809883a 	mov	r4,sp
  800908:	980b883a 	mov	r5,r19
  80090c:	dc400604 	addi	r17,sp,24
  800910:	dfc01015 	stw	ra,64(sp)
  800914:	08017b00 	call	8017b0 <__unpack_f>
  800918:	d9000104 	addi	r4,sp,4
  80091c:	880b883a 	mov	r5,r17
  800920:	08017b00 	call	8017b0 <__unpack_f>
  800924:	d9800a04 	addi	r6,sp,40
  800928:	9809883a 	mov	r4,r19
  80092c:	880b883a 	mov	r5,r17
  800930:	08006980 	call	800698 <_fpadd_parts>
  800934:	1009883a 	mov	r4,r2
  800938:	08016500 	call	801650 <__pack_f>
  80093c:	dfc01017 	ldw	ra,64(sp)
  800940:	dcc00f17 	ldw	r19,60(sp)
  800944:	dc400e17 	ldw	r17,56(sp)
  800948:	dec01104 	addi	sp,sp,68
  80094c:	f800283a 	ret

00800950 <__divsf3>:
  800950:	defff304 	addi	sp,sp,-52
  800954:	dc400b15 	stw	r17,44(sp)
  800958:	dc400204 	addi	r17,sp,8
  80095c:	dc000a15 	stw	r16,40(sp)
  800960:	d9000015 	stw	r4,0(sp)
  800964:	d9400115 	stw	r5,4(sp)
  800968:	d809883a 	mov	r4,sp
  80096c:	880b883a 	mov	r5,r17
  800970:	dc000604 	addi	r16,sp,24
  800974:	dfc00c15 	stw	ra,48(sp)
  800978:	08017b00 	call	8017b0 <__unpack_f>
  80097c:	d9000104 	addi	r4,sp,4
  800980:	800b883a 	mov	r5,r16
  800984:	08017b00 	call	8017b0 <__unpack_f>
  800988:	d9000217 	ldw	r4,8(sp)
  80098c:	00800044 	movi	r2,1
  800990:	01800104 	movi	r6,4
  800994:	11000a2e 	bgeu	r2,r4,8009c0 <__divsf3+0x70>
  800998:	d9400617 	ldw	r5,24(sp)
  80099c:	1140432e 	bgeu	r2,r5,800aac <__divsf3+0x15c>
  8009a0:	d8800317 	ldw	r2,12(sp)
  8009a4:	d8c00717 	ldw	r3,28(sp)
  8009a8:	10c4f03a 	xor	r2,r2,r3
  8009ac:	d8800315 	stw	r2,12(sp)
  8009b0:	21800226 	beq	r4,r6,8009bc <__divsf3+0x6c>
  8009b4:	00800084 	movi	r2,2
  8009b8:	2080101e 	bne	r4,r2,8009fc <__divsf3+0xac>
  8009bc:	29000726 	beq	r5,r4,8009dc <__divsf3+0x8c>
  8009c0:	8809883a 	mov	r4,r17
  8009c4:	08016500 	call	801650 <__pack_f>
  8009c8:	dfc00c17 	ldw	ra,48(sp)
  8009cc:	dc400b17 	ldw	r17,44(sp)
  8009d0:	dc000a17 	ldw	r16,40(sp)
  8009d4:	dec00d04 	addi	sp,sp,52
  8009d8:	f800283a 	ret
  8009dc:	01002074 	movhi	r4,129
  8009e0:	21265604 	addi	r4,r4,-26280
  8009e4:	08016500 	call	801650 <__pack_f>
  8009e8:	dfc00c17 	ldw	ra,48(sp)
  8009ec:	dc400b17 	ldw	r17,44(sp)
  8009f0:	dc000a17 	ldw	r16,40(sp)
  8009f4:	dec00d04 	addi	sp,sp,52
  8009f8:	f800283a 	ret
  8009fc:	29802d26 	beq	r5,r6,800ab4 <__divsf3+0x164>
  800a00:	28801a26 	beq	r5,r2,800a6c <__divsf3+0x11c>
  800a04:	d8c00417 	ldw	r3,16(sp)
  800a08:	d8800817 	ldw	r2,32(sp)
  800a0c:	d9000517 	ldw	r4,20(sp)
  800a10:	d9800917 	ldw	r6,36(sp)
  800a14:	1885c83a 	sub	r2,r3,r2
  800a18:	d8800415 	stw	r2,16(sp)
  800a1c:	2180032e 	bgeu	r4,r6,800a2c <__divsf3+0xdc>
  800a20:	10bfffc4 	addi	r2,r2,-1
  800a24:	d8800415 	stw	r2,16(sp)
  800a28:	2109883a 	add	r4,r4,r4
  800a2c:	01500034 	movhi	r5,16384
  800a30:	0007883a 	mov	r3,zero
  800a34:	0005883a 	mov	r2,zero
  800a38:	01c007c4 	movi	r7,31
  800a3c:	10800044 	addi	r2,r2,1
  800a40:	21800236 	bltu	r4,r6,800a4c <__divsf3+0xfc>
  800a44:	1946b03a 	or	r3,r3,r5
  800a48:	2189c83a 	sub	r4,r4,r6
  800a4c:	280ad07a 	srli	r5,r5,1
  800a50:	2109883a 	add	r4,r4,r4
  800a54:	11fff91e 	bne	r2,r7,800a3c <__divsf3+0xec>
  800a58:	19401fcc 	andi	r5,r3,127
  800a5c:	00801004 	movi	r2,64
  800a60:	28800a26 	beq	r5,r2,800a8c <__divsf3+0x13c>
  800a64:	d8c00515 	stw	r3,20(sp)
  800a68:	003fd506 	br	8009c0 <__divsf3+0x70>
  800a6c:	8809883a 	mov	r4,r17
  800a70:	d9800215 	stw	r6,8(sp)
  800a74:	08016500 	call	801650 <__pack_f>
  800a78:	dfc00c17 	ldw	ra,48(sp)
  800a7c:	dc400b17 	ldw	r17,44(sp)
  800a80:	dc000a17 	ldw	r16,40(sp)
  800a84:	dec00d04 	addi	sp,sp,52
  800a88:	f800283a 	ret
  800a8c:	1880200c 	andi	r2,r3,128
  800a90:	103ff41e 	bne	r2,zero,800a64 <__divsf3+0x114>
  800a94:	203ff326 	beq	r4,zero,800a64 <__divsf3+0x114>
  800a98:	1947883a 	add	r3,r3,r5
  800a9c:	00bfe004 	movi	r2,-128
  800aa0:	1886703a 	and	r3,r3,r2
  800aa4:	d8c00515 	stw	r3,20(sp)
  800aa8:	003fc506 	br	8009c0 <__divsf3+0x70>
  800aac:	8009883a 	mov	r4,r16
  800ab0:	003fc406 	br	8009c4 <__divsf3+0x74>
  800ab4:	8809883a 	mov	r4,r17
  800ab8:	d8000515 	stw	zero,20(sp)
  800abc:	d8000415 	stw	zero,16(sp)
  800ac0:	003fc006 	br	8009c4 <__divsf3+0x74>

00800ac4 <__floatsisf>:
  800ac4:	2006d7fa 	srli	r3,r4,31
  800ac8:	defffa04 	addi	sp,sp,-24
  800acc:	008000c4 	movi	r2,3
  800ad0:	dfc00515 	stw	ra,20(sp)
  800ad4:	dc000415 	stw	r16,16(sp)
  800ad8:	d8800015 	stw	r2,0(sp)
  800adc:	d8c00115 	stw	r3,4(sp)
  800ae0:	2000081e 	bne	r4,zero,800b04 <__floatsisf+0x40>
  800ae4:	00800084 	movi	r2,2
  800ae8:	d8800015 	stw	r2,0(sp)
  800aec:	d809883a 	mov	r4,sp
  800af0:	08016500 	call	801650 <__pack_f>
  800af4:	dfc00517 	ldw	ra,20(sp)
  800af8:	dc000417 	ldw	r16,16(sp)
  800afc:	dec00604 	addi	sp,sp,24
  800b00:	f800283a 	ret
  800b04:	00800784 	movi	r2,30
  800b08:	1807003a 	cmpeq	r3,r3,zero
  800b0c:	d8800215 	stw	r2,8(sp)
  800b10:	18000e1e 	bne	r3,zero,800b4c <__floatsisf+0x88>
  800b14:	00a00034 	movhi	r2,32768
  800b18:	20800e26 	beq	r4,r2,800b54 <__floatsisf+0x90>
  800b1c:	0121c83a 	sub	r16,zero,r4
  800b20:	8009883a 	mov	r4,r16
  800b24:	dc000315 	stw	r16,12(sp)
  800b28:	08015d00 	call	8015d0 <__clzsi2>
  800b2c:	117fffc4 	addi	r5,r2,-1
  800b30:	017fee0e 	bge	zero,r5,800aec <__floatsisf+0x28>
  800b34:	d8800217 	ldw	r2,8(sp)
  800b38:	8146983a 	sll	r3,r16,r5
  800b3c:	1145c83a 	sub	r2,r2,r5
  800b40:	d8c00315 	stw	r3,12(sp)
  800b44:	d8800215 	stw	r2,8(sp)
  800b48:	003fe806 	br	800aec <__floatsisf+0x28>
  800b4c:	2021883a 	mov	r16,r4
  800b50:	003ff306 	br	800b20 <__floatsisf+0x5c>
  800b54:	00b3c034 	movhi	r2,52992
  800b58:	003fe606 	br	800af4 <__floatsisf+0x30>

00800b5c <__extendsfdf2>:
  800b5c:	defff904 	addi	sp,sp,-28
  800b60:	d9000115 	stw	r4,4(sp)
  800b64:	d9400204 	addi	r5,sp,8
  800b68:	d9000104 	addi	r4,sp,4
  800b6c:	dfc00615 	stw	ra,24(sp)
  800b70:	08017b00 	call	8017b0 <__unpack_f>
  800b74:	d9c00517 	ldw	r7,20(sp)
  800b78:	0011883a 	mov	r8,zero
  800b7c:	400697ba 	slli	r3,r8,30
  800b80:	3812d0ba 	srli	r9,r7,2
  800b84:	380497ba 	slli	r2,r7,30
  800b88:	d9000217 	ldw	r4,8(sp)
  800b8c:	d9400317 	ldw	r5,12(sp)
  800b90:	d9800417 	ldw	r6,16(sp)
  800b94:	48c6b03a 	or	r3,r9,r3
  800b98:	100f883a 	mov	r7,r2
  800b9c:	d8c00015 	stw	r3,0(sp)
  800ba0:	08014040 	call	801404 <__make_dp>
  800ba4:	dfc00617 	ldw	ra,24(sp)
  800ba8:	dec00704 	addi	sp,sp,28
  800bac:	f800283a 	ret

00800bb0 <_fpadd_parts>:
  800bb0:	defff804 	addi	sp,sp,-32
  800bb4:	dcc00315 	stw	r19,12(sp)
  800bb8:	2027883a 	mov	r19,r4
  800bbc:	21000017 	ldw	r4,0(r4)
  800bc0:	00c00044 	movi	r3,1
  800bc4:	dd400515 	stw	r21,20(sp)
  800bc8:	dd000415 	stw	r20,16(sp)
  800bcc:	ddc00715 	stw	r23,28(sp)
  800bd0:	dd800615 	stw	r22,24(sp)
  800bd4:	dc800215 	stw	r18,8(sp)
  800bd8:	dc400115 	stw	r17,4(sp)
  800bdc:	dc000015 	stw	r16,0(sp)
  800be0:	282b883a 	mov	r21,r5
  800be4:	3029883a 	mov	r20,r6
  800be8:	1900632e 	bgeu	r3,r4,800d78 <_fpadd_parts+0x1c8>
  800bec:	28800017 	ldw	r2,0(r5)
  800bf0:	1880812e 	bgeu	r3,r2,800df8 <_fpadd_parts+0x248>
  800bf4:	00c00104 	movi	r3,4
  800bf8:	20c0dc26 	beq	r4,r3,800f6c <_fpadd_parts+0x3bc>
  800bfc:	10c07e26 	beq	r2,r3,800df8 <_fpadd_parts+0x248>
  800c00:	00c00084 	movi	r3,2
  800c04:	10c06726 	beq	r2,r3,800da4 <_fpadd_parts+0x1f4>
  800c08:	20c07b26 	beq	r4,r3,800df8 <_fpadd_parts+0x248>
  800c0c:	9dc00217 	ldw	r23,8(r19)
  800c10:	28c00217 	ldw	r3,8(r5)
  800c14:	9c400317 	ldw	r17,12(r19)
  800c18:	2bc00317 	ldw	r15,12(r5)
  800c1c:	b8cdc83a 	sub	r6,r23,r3
  800c20:	9c800417 	ldw	r18,16(r19)
  800c24:	2c000417 	ldw	r16,16(r5)
  800c28:	3009883a 	mov	r4,r6
  800c2c:	30009716 	blt	r6,zero,800e8c <_fpadd_parts+0x2dc>
  800c30:	00800fc4 	movi	r2,63
  800c34:	11806b16 	blt	r2,r6,800de4 <_fpadd_parts+0x234>
  800c38:	0100a40e 	bge	zero,r4,800ecc <_fpadd_parts+0x31c>
  800c3c:	35bff804 	addi	r22,r6,-32
  800c40:	b000bc16 	blt	r22,zero,800f34 <_fpadd_parts+0x384>
  800c44:	8596d83a 	srl	r11,r16,r22
  800c48:	0019883a 	mov	r12,zero
  800c4c:	0013883a 	mov	r9,zero
  800c50:	01000044 	movi	r4,1
  800c54:	0015883a 	mov	r10,zero
  800c58:	b000be16 	blt	r22,zero,800f54 <_fpadd_parts+0x3a4>
  800c5c:	2590983a 	sll	r8,r4,r22
  800c60:	000f883a 	mov	r7,zero
  800c64:	00bfffc4 	movi	r2,-1
  800c68:	3889883a 	add	r4,r7,r2
  800c6c:	408b883a 	add	r5,r8,r2
  800c70:	21cd803a 	cmpltu	r6,r4,r7
  800c74:	314b883a 	add	r5,r6,r5
  800c78:	7904703a 	and	r2,r15,r4
  800c7c:	8146703a 	and	r3,r16,r5
  800c80:	10c4b03a 	or	r2,r2,r3
  800c84:	10000226 	beq	r2,zero,800c90 <_fpadd_parts+0xe0>
  800c88:	02400044 	movi	r9,1
  800c8c:	0015883a 	mov	r10,zero
  800c90:	5a5eb03a 	or	r15,r11,r9
  800c94:	62a0b03a 	or	r16,r12,r10
  800c98:	99400117 	ldw	r5,4(r19)
  800c9c:	a8800117 	ldw	r2,4(r21)
  800ca0:	28806e26 	beq	r5,r2,800e5c <_fpadd_parts+0x2ac>
  800ca4:	28006626 	beq	r5,zero,800e40 <_fpadd_parts+0x290>
  800ca8:	7c45c83a 	sub	r2,r15,r17
  800cac:	7889803a 	cmpltu	r4,r15,r2
  800cb0:	8487c83a 	sub	r3,r16,r18
  800cb4:	1909c83a 	sub	r4,r3,r4
  800cb8:	100d883a 	mov	r6,r2
  800cbc:	200f883a 	mov	r7,r4
  800cc0:	38007716 	blt	r7,zero,800ea0 <_fpadd_parts+0x2f0>
  800cc4:	a5c00215 	stw	r23,8(r20)
  800cc8:	a1c00415 	stw	r7,16(r20)
  800ccc:	a0000115 	stw	zero,4(r20)
  800cd0:	a1800315 	stw	r6,12(r20)
  800cd4:	a2000317 	ldw	r8,12(r20)
  800cd8:	a2400417 	ldw	r9,16(r20)
  800cdc:	00bfffc4 	movi	r2,-1
  800ce0:	408b883a 	add	r5,r8,r2
  800ce4:	2a09803a 	cmpltu	r4,r5,r8
  800ce8:	488d883a 	add	r6,r9,r2
  800cec:	01c40034 	movhi	r7,4096
  800cf0:	39ffffc4 	addi	r7,r7,-1
  800cf4:	218d883a 	add	r6,r4,r6
  800cf8:	39801736 	bltu	r7,r6,800d58 <_fpadd_parts+0x1a8>
  800cfc:	31c06526 	beq	r6,r7,800e94 <_fpadd_parts+0x2e4>
  800d00:	a3000217 	ldw	r12,8(r20)
  800d04:	4209883a 	add	r4,r8,r8
  800d08:	00bfffc4 	movi	r2,-1
  800d0c:	220f803a 	cmpltu	r7,r4,r8
  800d10:	4a4b883a 	add	r5,r9,r9
  800d14:	394f883a 	add	r7,r7,r5
  800d18:	2095883a 	add	r10,r4,r2
  800d1c:	3897883a 	add	r11,r7,r2
  800d20:	510d803a 	cmpltu	r6,r10,r4
  800d24:	6099883a 	add	r12,r12,r2
  800d28:	32d7883a 	add	r11,r6,r11
  800d2c:	00840034 	movhi	r2,4096
  800d30:	10bfffc4 	addi	r2,r2,-1
  800d34:	2011883a 	mov	r8,r4
  800d38:	3813883a 	mov	r9,r7
  800d3c:	a1000315 	stw	r4,12(r20)
  800d40:	a1c00415 	stw	r7,16(r20)
  800d44:	a3000215 	stw	r12,8(r20)
  800d48:	12c00336 	bltu	r2,r11,800d58 <_fpadd_parts+0x1a8>
  800d4c:	58bfed1e 	bne	r11,r2,800d04 <_fpadd_parts+0x154>
  800d50:	00bfff84 	movi	r2,-2
  800d54:	12bfeb2e 	bgeu	r2,r10,800d04 <_fpadd_parts+0x154>
  800d58:	a2800417 	ldw	r10,16(r20)
  800d5c:	008000c4 	movi	r2,3
  800d60:	00c80034 	movhi	r3,8192
  800d64:	18ffffc4 	addi	r3,r3,-1
  800d68:	a2400317 	ldw	r9,12(r20)
  800d6c:	a0800015 	stw	r2,0(r20)
  800d70:	1a802336 	bltu	r3,r10,800e00 <_fpadd_parts+0x250>
  800d74:	a027883a 	mov	r19,r20
  800d78:	9805883a 	mov	r2,r19
  800d7c:	ddc00717 	ldw	r23,28(sp)
  800d80:	dd800617 	ldw	r22,24(sp)
  800d84:	dd400517 	ldw	r21,20(sp)
  800d88:	dd000417 	ldw	r20,16(sp)
  800d8c:	dcc00317 	ldw	r19,12(sp)
  800d90:	dc800217 	ldw	r18,8(sp)
  800d94:	dc400117 	ldw	r17,4(sp)
  800d98:	dc000017 	ldw	r16,0(sp)
  800d9c:	dec00804 	addi	sp,sp,32
  800da0:	f800283a 	ret
  800da4:	20fff41e 	bne	r4,r3,800d78 <_fpadd_parts+0x1c8>
  800da8:	31000015 	stw	r4,0(r6)
  800dac:	98800117 	ldw	r2,4(r19)
  800db0:	30800115 	stw	r2,4(r6)
  800db4:	98c00217 	ldw	r3,8(r19)
  800db8:	30c00215 	stw	r3,8(r6)
  800dbc:	98800317 	ldw	r2,12(r19)
  800dc0:	30800315 	stw	r2,12(r6)
  800dc4:	98c00417 	ldw	r3,16(r19)
  800dc8:	30c00415 	stw	r3,16(r6)
  800dcc:	98800117 	ldw	r2,4(r19)
  800dd0:	28c00117 	ldw	r3,4(r5)
  800dd4:	3027883a 	mov	r19,r6
  800dd8:	10c4703a 	and	r2,r2,r3
  800ddc:	30800115 	stw	r2,4(r6)
  800de0:	003fe506 	br	800d78 <_fpadd_parts+0x1c8>
  800de4:	1dc02616 	blt	r3,r23,800e80 <_fpadd_parts+0x2d0>
  800de8:	0023883a 	mov	r17,zero
  800dec:	182f883a 	mov	r23,r3
  800df0:	0025883a 	mov	r18,zero
  800df4:	003fa806 	br	800c98 <_fpadd_parts+0xe8>
  800df8:	a827883a 	mov	r19,r21
  800dfc:	003fde06 	br	800d78 <_fpadd_parts+0x1c8>
  800e00:	01800044 	movi	r6,1
  800e04:	500497fa 	slli	r2,r10,31
  800e08:	4808d07a 	srli	r4,r9,1
  800e0c:	518ad83a 	srl	r5,r10,r6
  800e10:	a2000217 	ldw	r8,8(r20)
  800e14:	1108b03a 	or	r4,r2,r4
  800e18:	0007883a 	mov	r3,zero
  800e1c:	4984703a 	and	r2,r9,r6
  800e20:	208cb03a 	or	r6,r4,r2
  800e24:	28ceb03a 	or	r7,r5,r3
  800e28:	42000044 	addi	r8,r8,1
  800e2c:	a027883a 	mov	r19,r20
  800e30:	a1c00415 	stw	r7,16(r20)
  800e34:	a2000215 	stw	r8,8(r20)
  800e38:	a1800315 	stw	r6,12(r20)
  800e3c:	003fce06 	br	800d78 <_fpadd_parts+0x1c8>
  800e40:	8bc5c83a 	sub	r2,r17,r15
  800e44:	8889803a 	cmpltu	r4,r17,r2
  800e48:	9407c83a 	sub	r3,r18,r16
  800e4c:	1909c83a 	sub	r4,r3,r4
  800e50:	100d883a 	mov	r6,r2
  800e54:	200f883a 	mov	r7,r4
  800e58:	003f9906 	br	800cc0 <_fpadd_parts+0x110>
  800e5c:	7c45883a 	add	r2,r15,r17
  800e60:	13c9803a 	cmpltu	r4,r2,r15
  800e64:	8487883a 	add	r3,r16,r18
  800e68:	20c9883a 	add	r4,r4,r3
  800e6c:	a1400115 	stw	r5,4(r20)
  800e70:	a5c00215 	stw	r23,8(r20)
  800e74:	a0800315 	stw	r2,12(r20)
  800e78:	a1000415 	stw	r4,16(r20)
  800e7c:	003fb606 	br	800d58 <_fpadd_parts+0x1a8>
  800e80:	001f883a 	mov	r15,zero
  800e84:	0021883a 	mov	r16,zero
  800e88:	003f8306 	br	800c98 <_fpadd_parts+0xe8>
  800e8c:	018dc83a 	sub	r6,zero,r6
  800e90:	003f6706 	br	800c30 <_fpadd_parts+0x80>
  800e94:	00bfff84 	movi	r2,-2
  800e98:	117faf36 	bltu	r2,r5,800d58 <_fpadd_parts+0x1a8>
  800e9c:	003f9806 	br	800d00 <_fpadd_parts+0x150>
  800ea0:	0005883a 	mov	r2,zero
  800ea4:	1189c83a 	sub	r4,r2,r6
  800ea8:	1105803a 	cmpltu	r2,r2,r4
  800eac:	01cbc83a 	sub	r5,zero,r7
  800eb0:	2885c83a 	sub	r2,r5,r2
  800eb4:	01800044 	movi	r6,1
  800eb8:	a1800115 	stw	r6,4(r20)
  800ebc:	a5c00215 	stw	r23,8(r20)
  800ec0:	a1000315 	stw	r4,12(r20)
  800ec4:	a0800415 	stw	r2,16(r20)
  800ec8:	003f8206 	br	800cd4 <_fpadd_parts+0x124>
  800ecc:	203f7226 	beq	r4,zero,800c98 <_fpadd_parts+0xe8>
  800ed0:	35bff804 	addi	r22,r6,-32
  800ed4:	b9af883a 	add	r23,r23,r6
  800ed8:	b0003116 	blt	r22,zero,800fa0 <_fpadd_parts+0x3f0>
  800edc:	959ad83a 	srl	r13,r18,r22
  800ee0:	001d883a 	mov	r14,zero
  800ee4:	000f883a 	mov	r7,zero
  800ee8:	01000044 	movi	r4,1
  800eec:	0011883a 	mov	r8,zero
  800ef0:	b0002516 	blt	r22,zero,800f88 <_fpadd_parts+0x3d8>
  800ef4:	2594983a 	sll	r10,r4,r22
  800ef8:	0013883a 	mov	r9,zero
  800efc:	00bfffc4 	movi	r2,-1
  800f00:	4889883a 	add	r4,r9,r2
  800f04:	508b883a 	add	r5,r10,r2
  800f08:	224d803a 	cmpltu	r6,r4,r9
  800f0c:	314b883a 	add	r5,r6,r5
  800f10:	8904703a 	and	r2,r17,r4
  800f14:	9146703a 	and	r3,r18,r5
  800f18:	10c4b03a 	or	r2,r2,r3
  800f1c:	10000226 	beq	r2,zero,800f28 <_fpadd_parts+0x378>
  800f20:	01c00044 	movi	r7,1
  800f24:	0011883a 	mov	r8,zero
  800f28:	69e2b03a 	or	r17,r13,r7
  800f2c:	7224b03a 	or	r18,r14,r8
  800f30:	003f5906 	br	800c98 <_fpadd_parts+0xe8>
  800f34:	8407883a 	add	r3,r16,r16
  800f38:	008007c4 	movi	r2,31
  800f3c:	1185c83a 	sub	r2,r2,r6
  800f40:	1886983a 	sll	r3,r3,r2
  800f44:	7996d83a 	srl	r11,r15,r6
  800f48:	8198d83a 	srl	r12,r16,r6
  800f4c:	1ad6b03a 	or	r11,r3,r11
  800f50:	003f3e06 	br	800c4c <_fpadd_parts+0x9c>
  800f54:	2006d07a 	srli	r3,r4,1
  800f58:	008007c4 	movi	r2,31
  800f5c:	1185c83a 	sub	r2,r2,r6
  800f60:	1890d83a 	srl	r8,r3,r2
  800f64:	218e983a 	sll	r7,r4,r6
  800f68:	003f3e06 	br	800c64 <_fpadd_parts+0xb4>
  800f6c:	113f821e 	bne	r2,r4,800d78 <_fpadd_parts+0x1c8>
  800f70:	28c00117 	ldw	r3,4(r5)
  800f74:	98800117 	ldw	r2,4(r19)
  800f78:	10ff7f26 	beq	r2,r3,800d78 <_fpadd_parts+0x1c8>
  800f7c:	04c02074 	movhi	r19,129
  800f80:	9ce65a04 	addi	r19,r19,-26264
  800f84:	003f7c06 	br	800d78 <_fpadd_parts+0x1c8>
  800f88:	2006d07a 	srli	r3,r4,1
  800f8c:	008007c4 	movi	r2,31
  800f90:	1185c83a 	sub	r2,r2,r6
  800f94:	1894d83a 	srl	r10,r3,r2
  800f98:	2192983a 	sll	r9,r4,r6
  800f9c:	003fd706 	br	800efc <_fpadd_parts+0x34c>
  800fa0:	9487883a 	add	r3,r18,r18
  800fa4:	008007c4 	movi	r2,31
  800fa8:	1185c83a 	sub	r2,r2,r6
  800fac:	1886983a 	sll	r3,r3,r2
  800fb0:	899ad83a 	srl	r13,r17,r6
  800fb4:	919cd83a 	srl	r14,r18,r6
  800fb8:	1b5ab03a 	or	r13,r3,r13
  800fbc:	003fc906 	br	800ee4 <_fpadd_parts+0x334>

00800fc0 <__subdf3>:
  800fc0:	deffea04 	addi	sp,sp,-88
  800fc4:	dcc01415 	stw	r19,80(sp)
  800fc8:	dcc00404 	addi	r19,sp,16
  800fcc:	2011883a 	mov	r8,r4
  800fd0:	2813883a 	mov	r9,r5
  800fd4:	dc401315 	stw	r17,76(sp)
  800fd8:	d809883a 	mov	r4,sp
  800fdc:	980b883a 	mov	r5,r19
  800fe0:	dc400904 	addi	r17,sp,36
  800fe4:	dfc01515 	stw	ra,84(sp)
  800fe8:	da400115 	stw	r9,4(sp)
  800fec:	d9c00315 	stw	r7,12(sp)
  800ff0:	da000015 	stw	r8,0(sp)
  800ff4:	d9800215 	stw	r6,8(sp)
  800ff8:	0801b8c0 	call	801b8c <__unpack_d>
  800ffc:	d9000204 	addi	r4,sp,8
  801000:	880b883a 	mov	r5,r17
  801004:	0801b8c0 	call	801b8c <__unpack_d>
  801008:	d8800a17 	ldw	r2,40(sp)
  80100c:	880b883a 	mov	r5,r17
  801010:	9809883a 	mov	r4,r19
  801014:	d9800e04 	addi	r6,sp,56
  801018:	1080005c 	xori	r2,r2,1
  80101c:	d8800a15 	stw	r2,40(sp)
  801020:	0800bb00 	call	800bb0 <_fpadd_parts>
  801024:	1009883a 	mov	r4,r2
  801028:	08018780 	call	801878 <__pack_d>
  80102c:	dfc01517 	ldw	ra,84(sp)
  801030:	dcc01417 	ldw	r19,80(sp)
  801034:	dc401317 	ldw	r17,76(sp)
  801038:	dec01604 	addi	sp,sp,88
  80103c:	f800283a 	ret

00801040 <__adddf3>:
  801040:	deffea04 	addi	sp,sp,-88
  801044:	dcc01415 	stw	r19,80(sp)
  801048:	dcc00404 	addi	r19,sp,16
  80104c:	2011883a 	mov	r8,r4
  801050:	2813883a 	mov	r9,r5
  801054:	dc401315 	stw	r17,76(sp)
  801058:	d809883a 	mov	r4,sp
  80105c:	980b883a 	mov	r5,r19
  801060:	dc400904 	addi	r17,sp,36
  801064:	dfc01515 	stw	ra,84(sp)
  801068:	da400115 	stw	r9,4(sp)
  80106c:	d9c00315 	stw	r7,12(sp)
  801070:	da000015 	stw	r8,0(sp)
  801074:	d9800215 	stw	r6,8(sp)
  801078:	0801b8c0 	call	801b8c <__unpack_d>
  80107c:	d9000204 	addi	r4,sp,8
  801080:	880b883a 	mov	r5,r17
  801084:	0801b8c0 	call	801b8c <__unpack_d>
  801088:	d9800e04 	addi	r6,sp,56
  80108c:	9809883a 	mov	r4,r19
  801090:	880b883a 	mov	r5,r17
  801094:	0800bb00 	call	800bb0 <_fpadd_parts>
  801098:	1009883a 	mov	r4,r2
  80109c:	08018780 	call	801878 <__pack_d>
  8010a0:	dfc01517 	ldw	ra,84(sp)
  8010a4:	dcc01417 	ldw	r19,80(sp)
  8010a8:	dc401317 	ldw	r17,76(sp)
  8010ac:	dec01604 	addi	sp,sp,88
  8010b0:	f800283a 	ret

008010b4 <__divdf3>:
  8010b4:	deffed04 	addi	sp,sp,-76
  8010b8:	dcc01115 	stw	r19,68(sp)
  8010bc:	dcc00404 	addi	r19,sp,16
  8010c0:	2011883a 	mov	r8,r4
  8010c4:	2813883a 	mov	r9,r5
  8010c8:	dc000e15 	stw	r16,56(sp)
  8010cc:	d809883a 	mov	r4,sp
  8010d0:	980b883a 	mov	r5,r19
  8010d4:	dc000904 	addi	r16,sp,36
  8010d8:	dfc01215 	stw	ra,72(sp)
  8010dc:	da400115 	stw	r9,4(sp)
  8010e0:	d9c00315 	stw	r7,12(sp)
  8010e4:	da000015 	stw	r8,0(sp)
  8010e8:	d9800215 	stw	r6,8(sp)
  8010ec:	dc801015 	stw	r18,64(sp)
  8010f0:	dc400f15 	stw	r17,60(sp)
  8010f4:	0801b8c0 	call	801b8c <__unpack_d>
  8010f8:	d9000204 	addi	r4,sp,8
  8010fc:	800b883a 	mov	r5,r16
  801100:	0801b8c0 	call	801b8c <__unpack_d>
  801104:	d9000417 	ldw	r4,16(sp)
  801108:	00800044 	movi	r2,1
  80110c:	11000b2e 	bgeu	r2,r4,80113c <__divdf3+0x88>
  801110:	d9400917 	ldw	r5,36(sp)
  801114:	1140762e 	bgeu	r2,r5,8012f0 <__divdf3+0x23c>
  801118:	d8800517 	ldw	r2,20(sp)
  80111c:	d8c00a17 	ldw	r3,40(sp)
  801120:	01800104 	movi	r6,4
  801124:	10c4f03a 	xor	r2,r2,r3
  801128:	d8800515 	stw	r2,20(sp)
  80112c:	21800226 	beq	r4,r6,801138 <__divdf3+0x84>
  801130:	00800084 	movi	r2,2
  801134:	2080141e 	bne	r4,r2,801188 <__divdf3+0xd4>
  801138:	29000926 	beq	r5,r4,801160 <__divdf3+0xac>
  80113c:	9809883a 	mov	r4,r19
  801140:	08018780 	call	801878 <__pack_d>
  801144:	dfc01217 	ldw	ra,72(sp)
  801148:	dcc01117 	ldw	r19,68(sp)
  80114c:	dc801017 	ldw	r18,64(sp)
  801150:	dc400f17 	ldw	r17,60(sp)
  801154:	dc000e17 	ldw	r16,56(sp)
  801158:	dec01304 	addi	sp,sp,76
  80115c:	f800283a 	ret
  801160:	01002074 	movhi	r4,129
  801164:	21265a04 	addi	r4,r4,-26264
  801168:	08018780 	call	801878 <__pack_d>
  80116c:	dfc01217 	ldw	ra,72(sp)
  801170:	dcc01117 	ldw	r19,68(sp)
  801174:	dc801017 	ldw	r18,64(sp)
  801178:	dc400f17 	ldw	r17,60(sp)
  80117c:	dc000e17 	ldw	r16,56(sp)
  801180:	dec01304 	addi	sp,sp,76
  801184:	f800283a 	ret
  801188:	29805b26 	beq	r5,r6,8012f8 <__divdf3+0x244>
  80118c:	28802d26 	beq	r5,r2,801244 <__divdf3+0x190>
  801190:	d8c00617 	ldw	r3,24(sp)
  801194:	d8800b17 	ldw	r2,44(sp)
  801198:	d9c00817 	ldw	r7,32(sp)
  80119c:	dc400d17 	ldw	r17,52(sp)
  8011a0:	188bc83a 	sub	r5,r3,r2
  8011a4:	d9800717 	ldw	r6,28(sp)
  8011a8:	dc000c17 	ldw	r16,48(sp)
  8011ac:	d9400615 	stw	r5,24(sp)
  8011b0:	3c403836 	bltu	r7,r17,801294 <__divdf3+0x1e0>
  8011b4:	89c03626 	beq	r17,r7,801290 <__divdf3+0x1dc>
  8011b8:	0015883a 	mov	r10,zero
  8011bc:	001d883a 	mov	r14,zero
  8011c0:	02c40034 	movhi	r11,4096
  8011c4:	001f883a 	mov	r15,zero
  8011c8:	003f883a 	mov	ra,zero
  8011cc:	04800f44 	movi	r18,61
  8011d0:	00000f06 	br	801210 <__divdf3+0x15c>
  8011d4:	601d883a 	mov	r14,r12
  8011d8:	681f883a 	mov	r15,r13
  8011dc:	400d883a 	mov	r6,r8
  8011e0:	100f883a 	mov	r7,r2
  8011e4:	3191883a 	add	r8,r6,r6
  8011e8:	5808d07a 	srli	r4,r11,1
  8011ec:	4185803a 	cmpltu	r2,r8,r6
  8011f0:	39d3883a 	add	r9,r7,r7
  8011f4:	28c6b03a 	or	r3,r5,r3
  8011f8:	1245883a 	add	r2,r2,r9
  8011fc:	1815883a 	mov	r10,r3
  801200:	2017883a 	mov	r11,r4
  801204:	400d883a 	mov	r6,r8
  801208:	100f883a 	mov	r7,r2
  80120c:	fc801726 	beq	ra,r18,80126c <__divdf3+0x1b8>
  801210:	580a97fa 	slli	r5,r11,31
  801214:	5006d07a 	srli	r3,r10,1
  801218:	ffc00044 	addi	ra,ra,1
  80121c:	3c7ff136 	bltu	r7,r17,8011e4 <__divdf3+0x130>
  801220:	3411c83a 	sub	r8,r6,r16
  801224:	3205803a 	cmpltu	r2,r6,r8
  801228:	3c53c83a 	sub	r9,r7,r17
  80122c:	7298b03a 	or	r12,r14,r10
  801230:	7adab03a 	or	r13,r15,r11
  801234:	4885c83a 	sub	r2,r9,r2
  801238:	89ffe61e 	bne	r17,r7,8011d4 <__divdf3+0x120>
  80123c:	343fe936 	bltu	r6,r16,8011e4 <__divdf3+0x130>
  801240:	003fe406 	br	8011d4 <__divdf3+0x120>
  801244:	9809883a 	mov	r4,r19
  801248:	d9800415 	stw	r6,16(sp)
  80124c:	08018780 	call	801878 <__pack_d>
  801250:	dfc01217 	ldw	ra,72(sp)
  801254:	dcc01117 	ldw	r19,68(sp)
  801258:	dc801017 	ldw	r18,64(sp)
  80125c:	dc400f17 	ldw	r17,60(sp)
  801260:	dc000e17 	ldw	r16,56(sp)
  801264:	dec01304 	addi	sp,sp,76
  801268:	f800283a 	ret
  80126c:	00803fc4 	movi	r2,255
  801270:	7090703a 	and	r8,r14,r2
  801274:	00802004 	movi	r2,128
  801278:	0007883a 	mov	r3,zero
  80127c:	0013883a 	mov	r9,zero
  801280:	40800d26 	beq	r8,r2,8012b8 <__divdf3+0x204>
  801284:	dbc00815 	stw	r15,32(sp)
  801288:	db800715 	stw	r14,28(sp)
  80128c:	003fab06 	br	80113c <__divdf3+0x88>
  801290:	343fc92e 	bgeu	r6,r16,8011b8 <__divdf3+0x104>
  801294:	3185883a 	add	r2,r6,r6
  801298:	1189803a 	cmpltu	r4,r2,r6
  80129c:	39c7883a 	add	r3,r7,r7
  8012a0:	20c9883a 	add	r4,r4,r3
  8012a4:	297fffc4 	addi	r5,r5,-1
  8012a8:	100d883a 	mov	r6,r2
  8012ac:	200f883a 	mov	r7,r4
  8012b0:	d9400615 	stw	r5,24(sp)
  8012b4:	003fc006 	br	8011b8 <__divdf3+0x104>
  8012b8:	483ff21e 	bne	r9,zero,801284 <__divdf3+0x1d0>
  8012bc:	01004004 	movi	r4,256
  8012c0:	7104703a 	and	r2,r14,r4
  8012c4:	10c4b03a 	or	r2,r2,r3
  8012c8:	103fee1e 	bne	r2,zero,801284 <__divdf3+0x1d0>
  8012cc:	31c4b03a 	or	r2,r6,r7
  8012d0:	103fec26 	beq	r2,zero,801284 <__divdf3+0x1d0>
  8012d4:	7205883a 	add	r2,r14,r8
  8012d8:	1391803a 	cmpltu	r8,r2,r14
  8012dc:	43d1883a 	add	r8,r8,r15
  8012e0:	013fc004 	movi	r4,-256
  8012e4:	111c703a 	and	r14,r2,r4
  8012e8:	401f883a 	mov	r15,r8
  8012ec:	003fe506 	br	801284 <__divdf3+0x1d0>
  8012f0:	8009883a 	mov	r4,r16
  8012f4:	003f9206 	br	801140 <__divdf3+0x8c>
  8012f8:	9809883a 	mov	r4,r19
  8012fc:	d8000715 	stw	zero,28(sp)
  801300:	d8000815 	stw	zero,32(sp)
  801304:	d8000615 	stw	zero,24(sp)
  801308:	003f8d06 	br	801140 <__divdf3+0x8c>

0080130c <__floatsidf>:
  80130c:	2006d7fa 	srli	r3,r4,31
  801310:	defff604 	addi	sp,sp,-40
  801314:	008000c4 	movi	r2,3
  801318:	dfc00915 	stw	ra,36(sp)
  80131c:	dcc00815 	stw	r19,32(sp)
  801320:	dc800715 	stw	r18,28(sp)
  801324:	dc400615 	stw	r17,24(sp)
  801328:	dc000515 	stw	r16,20(sp)
  80132c:	d8800015 	stw	r2,0(sp)
  801330:	d8c00115 	stw	r3,4(sp)
  801334:	20000f1e 	bne	r4,zero,801374 <__floatsidf+0x68>
  801338:	00800084 	movi	r2,2
  80133c:	d8800015 	stw	r2,0(sp)
  801340:	d809883a 	mov	r4,sp
  801344:	08018780 	call	801878 <__pack_d>
  801348:	1009883a 	mov	r4,r2
  80134c:	180b883a 	mov	r5,r3
  801350:	2005883a 	mov	r2,r4
  801354:	2807883a 	mov	r3,r5
  801358:	dfc00917 	ldw	ra,36(sp)
  80135c:	dcc00817 	ldw	r19,32(sp)
  801360:	dc800717 	ldw	r18,28(sp)
  801364:	dc400617 	ldw	r17,24(sp)
  801368:	dc000517 	ldw	r16,20(sp)
  80136c:	dec00a04 	addi	sp,sp,40
  801370:	f800283a 	ret
  801374:	00800f04 	movi	r2,60
  801378:	1807003a 	cmpeq	r3,r3,zero
  80137c:	d8800215 	stw	r2,8(sp)
  801380:	18001126 	beq	r3,zero,8013c8 <__floatsidf+0xbc>
  801384:	0027883a 	mov	r19,zero
  801388:	2025883a 	mov	r18,r4
  80138c:	d9000315 	stw	r4,12(sp)
  801390:	dcc00415 	stw	r19,16(sp)
  801394:	08015d00 	call	8015d0 <__clzsi2>
  801398:	11000744 	addi	r4,r2,29
  80139c:	013fe80e 	bge	zero,r4,801340 <__floatsidf+0x34>
  8013a0:	10bfff44 	addi	r2,r2,-3
  8013a4:	10000c16 	blt	r2,zero,8013d8 <__floatsidf+0xcc>
  8013a8:	90a2983a 	sll	r17,r18,r2
  8013ac:	0021883a 	mov	r16,zero
  8013b0:	d8800217 	ldw	r2,8(sp)
  8013b4:	dc400415 	stw	r17,16(sp)
  8013b8:	dc000315 	stw	r16,12(sp)
  8013bc:	1105c83a 	sub	r2,r2,r4
  8013c0:	d8800215 	stw	r2,8(sp)
  8013c4:	003fde06 	br	801340 <__floatsidf+0x34>
  8013c8:	00a00034 	movhi	r2,32768
  8013cc:	20800a26 	beq	r4,r2,8013f8 <__floatsidf+0xec>
  8013d0:	0109c83a 	sub	r4,zero,r4
  8013d4:	003feb06 	br	801384 <__floatsidf+0x78>
  8013d8:	9006d07a 	srli	r3,r18,1
  8013dc:	008007c4 	movi	r2,31
  8013e0:	1105c83a 	sub	r2,r2,r4
  8013e4:	1886d83a 	srl	r3,r3,r2
  8013e8:	9922983a 	sll	r17,r19,r4
  8013ec:	9120983a 	sll	r16,r18,r4
  8013f0:	1c62b03a 	or	r17,r3,r17
  8013f4:	003fee06 	br	8013b0 <__floatsidf+0xa4>
  8013f8:	0009883a 	mov	r4,zero
  8013fc:	01707834 	movhi	r5,49632
  801400:	003fd306 	br	801350 <__floatsidf+0x44>

00801404 <__make_dp>:
  801404:	defff904 	addi	sp,sp,-28
  801408:	d8c00717 	ldw	r3,28(sp)
  80140c:	d9000015 	stw	r4,0(sp)
  801410:	d809883a 	mov	r4,sp
  801414:	dfc00515 	stw	ra,20(sp)
  801418:	d9c00615 	stw	r7,24(sp)
  80141c:	d9400115 	stw	r5,4(sp)
  801420:	d9800215 	stw	r6,8(sp)
  801424:	d8c00415 	stw	r3,16(sp)
  801428:	d9c00315 	stw	r7,12(sp)
  80142c:	08018780 	call	801878 <__pack_d>
  801430:	dfc00517 	ldw	ra,20(sp)
  801434:	dec00704 	addi	sp,sp,28
  801438:	f800283a 	ret

0080143c <__floatunsidf>:
  80143c:	defff204 	addi	sp,sp,-56
  801440:	dfc00d15 	stw	ra,52(sp)
  801444:	ddc00c15 	stw	r23,48(sp)
  801448:	dd800b15 	stw	r22,44(sp)
  80144c:	dd400a15 	stw	r21,40(sp)
  801450:	dd000915 	stw	r20,36(sp)
  801454:	dcc00815 	stw	r19,32(sp)
  801458:	dc800715 	stw	r18,28(sp)
  80145c:	dc400615 	stw	r17,24(sp)
  801460:	dc000515 	stw	r16,20(sp)
  801464:	d8000115 	stw	zero,4(sp)
  801468:	20000f1e 	bne	r4,zero,8014a8 <__floatunsidf+0x6c>
  80146c:	00800084 	movi	r2,2
  801470:	d8800015 	stw	r2,0(sp)
  801474:	d809883a 	mov	r4,sp
  801478:	08018780 	call	801878 <__pack_d>
  80147c:	dfc00d17 	ldw	ra,52(sp)
  801480:	ddc00c17 	ldw	r23,48(sp)
  801484:	dd800b17 	ldw	r22,44(sp)
  801488:	dd400a17 	ldw	r21,40(sp)
  80148c:	dd000917 	ldw	r20,36(sp)
  801490:	dcc00817 	ldw	r19,32(sp)
  801494:	dc800717 	ldw	r18,28(sp)
  801498:	dc400617 	ldw	r17,24(sp)
  80149c:	dc000517 	ldw	r16,20(sp)
  8014a0:	dec00e04 	addi	sp,sp,56
  8014a4:	f800283a 	ret
  8014a8:	008000c4 	movi	r2,3
  8014ac:	00c00f04 	movi	r3,60
  8014b0:	002f883a 	mov	r23,zero
  8014b4:	202d883a 	mov	r22,r4
  8014b8:	d8800015 	stw	r2,0(sp)
  8014bc:	d8c00215 	stw	r3,8(sp)
  8014c0:	d9000315 	stw	r4,12(sp)
  8014c4:	ddc00415 	stw	r23,16(sp)
  8014c8:	08015d00 	call	8015d0 <__clzsi2>
  8014cc:	12400744 	addi	r9,r2,29
  8014d0:	48000b16 	blt	r9,zero,801500 <__floatunsidf+0xc4>
  8014d4:	483fe726 	beq	r9,zero,801474 <__floatunsidf+0x38>
  8014d8:	10bfff44 	addi	r2,r2,-3
  8014dc:	10002e16 	blt	r2,zero,801598 <__floatunsidf+0x15c>
  8014e0:	b0a2983a 	sll	r17,r22,r2
  8014e4:	0021883a 	mov	r16,zero
  8014e8:	d8800217 	ldw	r2,8(sp)
  8014ec:	dc400415 	stw	r17,16(sp)
  8014f0:	dc000315 	stw	r16,12(sp)
  8014f4:	1245c83a 	sub	r2,r2,r9
  8014f8:	d8800215 	stw	r2,8(sp)
  8014fc:	003fdd06 	br	801474 <__floatunsidf+0x38>
  801500:	0255c83a 	sub	r10,zero,r9
  801504:	51bff804 	addi	r6,r10,-32
  801508:	30001b16 	blt	r6,zero,801578 <__floatunsidf+0x13c>
  80150c:	b9a8d83a 	srl	r20,r23,r6
  801510:	002b883a 	mov	r21,zero
  801514:	000f883a 	mov	r7,zero
  801518:	01000044 	movi	r4,1
  80151c:	0011883a 	mov	r8,zero
  801520:	30002516 	blt	r6,zero,8015b8 <__floatunsidf+0x17c>
  801524:	21a6983a 	sll	r19,r4,r6
  801528:	0025883a 	mov	r18,zero
  80152c:	00bfffc4 	movi	r2,-1
  801530:	9089883a 	add	r4,r18,r2
  801534:	988b883a 	add	r5,r19,r2
  801538:	248d803a 	cmpltu	r6,r4,r18
  80153c:	314b883a 	add	r5,r6,r5
  801540:	b104703a 	and	r2,r22,r4
  801544:	b946703a 	and	r3,r23,r5
  801548:	10c4b03a 	or	r2,r2,r3
  80154c:	10000226 	beq	r2,zero,801558 <__floatunsidf+0x11c>
  801550:	01c00044 	movi	r7,1
  801554:	0011883a 	mov	r8,zero
  801558:	d9000217 	ldw	r4,8(sp)
  80155c:	a1c4b03a 	or	r2,r20,r7
  801560:	aa06b03a 	or	r3,r21,r8
  801564:	2249c83a 	sub	r4,r4,r9
  801568:	d8c00415 	stw	r3,16(sp)
  80156c:	d9000215 	stw	r4,8(sp)
  801570:	d8800315 	stw	r2,12(sp)
  801574:	003fbf06 	br	801474 <__floatunsidf+0x38>
  801578:	bdc7883a 	add	r3,r23,r23
  80157c:	008007c4 	movi	r2,31
  801580:	1285c83a 	sub	r2,r2,r10
  801584:	1886983a 	sll	r3,r3,r2
  801588:	b2a8d83a 	srl	r20,r22,r10
  80158c:	baaad83a 	srl	r21,r23,r10
  801590:	1d28b03a 	or	r20,r3,r20
  801594:	003fdf06 	br	801514 <__floatunsidf+0xd8>
  801598:	b006d07a 	srli	r3,r22,1
  80159c:	008007c4 	movi	r2,31
  8015a0:	1245c83a 	sub	r2,r2,r9
  8015a4:	1886d83a 	srl	r3,r3,r2
  8015a8:	ba62983a 	sll	r17,r23,r9
  8015ac:	b260983a 	sll	r16,r22,r9
  8015b0:	1c62b03a 	or	r17,r3,r17
  8015b4:	003fcc06 	br	8014e8 <__floatunsidf+0xac>
  8015b8:	2006d07a 	srli	r3,r4,1
  8015bc:	008007c4 	movi	r2,31
  8015c0:	1285c83a 	sub	r2,r2,r10
  8015c4:	18a6d83a 	srl	r19,r3,r2
  8015c8:	22a4983a 	sll	r18,r4,r10
  8015cc:	003fd706 	br	80152c <__floatunsidf+0xf0>

008015d0 <__clzsi2>:
  8015d0:	00bfffd4 	movui	r2,65535
  8015d4:	11000e36 	bltu	r2,r4,801610 <__clzsi2+0x40>
  8015d8:	00803fc4 	movi	r2,255
  8015dc:	01400204 	movi	r5,8
  8015e0:	0007883a 	mov	r3,zero
  8015e4:	11001036 	bltu	r2,r4,801628 <__clzsi2+0x58>
  8015e8:	000b883a 	mov	r5,zero
  8015ec:	20c6d83a 	srl	r3,r4,r3
  8015f0:	00802074 	movhi	r2,129
  8015f4:	10a65f04 	addi	r2,r2,-26244
  8015f8:	1887883a 	add	r3,r3,r2
  8015fc:	18800003 	ldbu	r2,0(r3)
  801600:	00c00804 	movi	r3,32
  801604:	2885883a 	add	r2,r5,r2
  801608:	1885c83a 	sub	r2,r3,r2
  80160c:	f800283a 	ret
  801610:	01400404 	movi	r5,16
  801614:	00804034 	movhi	r2,256
  801618:	10bfffc4 	addi	r2,r2,-1
  80161c:	2807883a 	mov	r3,r5
  801620:	113ff22e 	bgeu	r2,r4,8015ec <__clzsi2+0x1c>
  801624:	01400604 	movi	r5,24
  801628:	2807883a 	mov	r3,r5
  80162c:	20c6d83a 	srl	r3,r4,r3
  801630:	00802074 	movhi	r2,129
  801634:	10a65f04 	addi	r2,r2,-26244
  801638:	1887883a 	add	r3,r3,r2
  80163c:	18800003 	ldbu	r2,0(r3)
  801640:	00c00804 	movi	r3,32
  801644:	2885883a 	add	r2,r5,r2
  801648:	1885c83a 	sub	r2,r3,r2
  80164c:	f800283a 	ret

00801650 <__pack_f>:
  801650:	20c00017 	ldw	r3,0(r4)
  801654:	01c00044 	movi	r7,1
  801658:	21800317 	ldw	r6,12(r4)
  80165c:	21400117 	ldw	r5,4(r4)
  801660:	38c02d2e 	bgeu	r7,r3,801718 <__pack_f+0xc8>
  801664:	00800104 	movi	r2,4
  801668:	18802826 	beq	r3,r2,80170c <__pack_f+0xbc>
  80166c:	00800084 	movi	r2,2
  801670:	18800126 	beq	r3,r2,801678 <__pack_f+0x28>
  801674:	3000101e 	bne	r6,zero,8016b8 <__pack_f+0x68>
  801678:	000d883a 	mov	r6,zero
  80167c:	0007883a 	mov	r3,zero
  801680:	19003fcc 	andi	r4,r3,255
  801684:	200895fa 	slli	r4,r4,23
  801688:	00c02034 	movhi	r3,128
  80168c:	18ffffc4 	addi	r3,r3,-1
  801690:	30c6703a 	and	r3,r6,r3
  801694:	10a0002c 	andhi	r2,r2,32768
  801698:	10c4b03a 	or	r2,r2,r3
  80169c:	280a97fa 	slli	r5,r5,31
  8016a0:	1104b03a 	or	r2,r2,r4
  8016a4:	00e00034 	movhi	r3,32768
  8016a8:	18ffffc4 	addi	r3,r3,-1
  8016ac:	10c4703a 	and	r2,r2,r3
  8016b0:	1144b03a 	or	r2,r2,r5
  8016b4:	f800283a 	ret
  8016b8:	21000217 	ldw	r4,8(r4)
  8016bc:	00bfe084 	movi	r2,-126
  8016c0:	20801b16 	blt	r4,r2,801730 <__pack_f+0xe0>
  8016c4:	00801fc4 	movi	r2,127
  8016c8:	11001016 	blt	r2,r4,80170c <__pack_f+0xbc>
  8016cc:	308e703a 	and	r7,r6,r2
  8016d0:	2087883a 	add	r3,r4,r2
  8016d4:	00801004 	movi	r2,64
  8016d8:	38800526 	beq	r7,r2,8016f0 <__pack_f+0xa0>
  8016dc:	31800fc4 	addi	r6,r6,63
  8016e0:	30000716 	blt	r6,zero,801700 <__pack_f+0xb0>
  8016e4:	300490ba 	slli	r2,r6,2
  8016e8:	100cd27a 	srli	r6,r2,9
  8016ec:	003fe406 	br	801680 <__pack_f+0x30>
  8016f0:	3080200c 	andi	r2,r6,128
  8016f4:	103ffa26 	beq	r2,zero,8016e0 <__pack_f+0x90>
  8016f8:	31cd883a 	add	r6,r6,r7
  8016fc:	003ff806 	br	8016e0 <__pack_f+0x90>
  801700:	300cd07a 	srli	r6,r6,1
  801704:	18c00044 	addi	r3,r3,1
  801708:	003ff606 	br	8016e4 <__pack_f+0x94>
  80170c:	000d883a 	mov	r6,zero
  801710:	00ffffc4 	movi	r3,-1
  801714:	003fda06 	br	801680 <__pack_f+0x30>
  801718:	31800434 	orhi	r6,r6,16
  80171c:	00802034 	movhi	r2,128
  801720:	10bfffc4 	addi	r2,r2,-1
  801724:	308c703a 	and	r6,r6,r2
  801728:	00ffffc4 	movi	r3,-1
  80172c:	003fd406 	br	801680 <__pack_f+0x30>
  801730:	1109c83a 	sub	r4,r2,r4
  801734:	00800644 	movi	r2,25
  801738:	11001216 	blt	r2,r4,801784 <__pack_f+0x134>
  80173c:	3904983a 	sll	r2,r7,r4
  801740:	3106d83a 	srl	r3,r6,r4
  801744:	10bfffc4 	addi	r2,r2,-1
  801748:	3084703a 	and	r2,r6,r2
  80174c:	1004c03a 	cmpne	r2,r2,zero
  801750:	1886b03a 	or	r3,r3,r2
  801754:	19001fcc 	andi	r4,r3,127
  801758:	00801004 	movi	r2,64
  80175c:	20800c26 	beq	r4,r2,801790 <__pack_f+0x140>
  801760:	18c00fc4 	addi	r3,r3,63
  801764:	00900034 	movhi	r2,16384
  801768:	10bfffc4 	addi	r2,r2,-1
  80176c:	180cd1fa 	srli	r6,r3,7
  801770:	10c7803a 	cmpltu	r3,r2,r3
  801774:	00802034 	movhi	r2,128
  801778:	10bfffc4 	addi	r2,r2,-1
  80177c:	308c703a 	and	r6,r6,r2
  801780:	003fbf06 	br	801680 <__pack_f+0x30>
  801784:	0007883a 	mov	r3,zero
  801788:	000d883a 	mov	r6,zero
  80178c:	003ff906 	br	801774 <__pack_f+0x124>
  801790:	1880200c 	andi	r2,r3,128
  801794:	10000126 	beq	r2,zero,80179c <__pack_f+0x14c>
  801798:	1907883a 	add	r3,r3,r4
  80179c:	180cd1fa 	srli	r6,r3,7
  8017a0:	00900034 	movhi	r2,16384
  8017a4:	10bfffc4 	addi	r2,r2,-1
  8017a8:	10c7803a 	cmpltu	r3,r2,r3
  8017ac:	003ff106 	br	801774 <__pack_f+0x124>

008017b0 <__unpack_f>:
  8017b0:	21800017 	ldw	r6,0(r4)
  8017b4:	00c02034 	movhi	r3,128
  8017b8:	18ffffc4 	addi	r3,r3,-1
  8017bc:	3004d5fa 	srli	r2,r6,23
  8017c0:	3008d7fa 	srli	r4,r6,31
  8017c4:	30ce703a 	and	r7,r6,r3
  8017c8:	10c03fcc 	andi	r3,r2,255
  8017cc:	29000115 	stw	r4,4(r5)
  8017d0:	1800131e 	bne	r3,zero,801820 <__unpack_f+0x70>
  8017d4:	38000f26 	beq	r7,zero,801814 <__unpack_f+0x64>
  8017d8:	380691fa 	slli	r3,r7,7
  8017dc:	01bfe084 	movi	r6,-126
  8017e0:	008000c4 	movi	r2,3
  8017e4:	01100034 	movhi	r4,16384
  8017e8:	213fffc4 	addi	r4,r4,-1
  8017ec:	28800015 	stw	r2,0(r5)
  8017f0:	29800215 	stw	r6,8(r5)
  8017f4:	20c00536 	bltu	r4,r3,80180c <__unpack_f+0x5c>
  8017f8:	3005883a 	mov	r2,r6
  8017fc:	18c7883a 	add	r3,r3,r3
  801800:	10bfffc4 	addi	r2,r2,-1
  801804:	20fffd2e 	bgeu	r4,r3,8017fc <__unpack_f+0x4c>
  801808:	28800215 	stw	r2,8(r5)
  80180c:	28c00315 	stw	r3,12(r5)
  801810:	f800283a 	ret
  801814:	00800084 	movi	r2,2
  801818:	28800015 	stw	r2,0(r5)
  80181c:	f800283a 	ret
  801820:	00803fc4 	movi	r2,255
  801824:	18800826 	beq	r3,r2,801848 <__unpack_f+0x98>
  801828:	380491fa 	slli	r2,r7,7
  80182c:	18ffe044 	addi	r3,r3,-127
  801830:	28c00215 	stw	r3,8(r5)
  801834:	10900034 	orhi	r2,r2,16384
  801838:	28800315 	stw	r2,12(r5)
  80183c:	008000c4 	movi	r2,3
  801840:	28800015 	stw	r2,0(r5)
  801844:	f800283a 	ret
  801848:	3800031e 	bne	r7,zero,801858 <__unpack_f+0xa8>
  80184c:	00800104 	movi	r2,4
  801850:	28800015 	stw	r2,0(r5)
  801854:	f800283a 	ret
  801858:	3080042c 	andhi	r2,r6,16
  80185c:	10000426 	beq	r2,zero,801870 <__unpack_f+0xc0>
  801860:	00800044 	movi	r2,1
  801864:	28800015 	stw	r2,0(r5)
  801868:	29c00315 	stw	r7,12(r5)
  80186c:	f800283a 	ret
  801870:	28000015 	stw	zero,0(r5)
  801874:	003ffc06 	br	801868 <__unpack_f+0xb8>

00801878 <__pack_d>:
  801878:	20c00017 	ldw	r3,0(r4)
  80187c:	defffd04 	addi	sp,sp,-12
  801880:	dc000015 	stw	r16,0(sp)
  801884:	dc800215 	stw	r18,8(sp)
  801888:	dc400115 	stw	r17,4(sp)
  80188c:	00800044 	movi	r2,1
  801890:	22000317 	ldw	r8,12(r4)
  801894:	001f883a 	mov	r15,zero
  801898:	22400417 	ldw	r9,16(r4)
  80189c:	24000117 	ldw	r16,4(r4)
  8018a0:	10c0552e 	bgeu	r2,r3,8019f8 <__pack_d+0x180>
  8018a4:	00800104 	movi	r2,4
  8018a8:	18804f26 	beq	r3,r2,8019e8 <__pack_d+0x170>
  8018ac:	00800084 	movi	r2,2
  8018b0:	18800226 	beq	r3,r2,8018bc <__pack_d+0x44>
  8018b4:	4244b03a 	or	r2,r8,r9
  8018b8:	10001a1e 	bne	r2,zero,801924 <__pack_d+0xac>
  8018bc:	000d883a 	mov	r6,zero
  8018c0:	000f883a 	mov	r7,zero
  8018c4:	0011883a 	mov	r8,zero
  8018c8:	00800434 	movhi	r2,16
  8018cc:	10bfffc4 	addi	r2,r2,-1
  8018d0:	301d883a 	mov	r14,r6
  8018d4:	3884703a 	and	r2,r7,r2
  8018d8:	400a953a 	slli	r5,r8,20
  8018dc:	79bffc2c 	andhi	r6,r15,65520
  8018e0:	308cb03a 	or	r6,r6,r2
  8018e4:	00e00434 	movhi	r3,32784
  8018e8:	18ffffc4 	addi	r3,r3,-1
  8018ec:	800497fa 	slli	r2,r16,31
  8018f0:	30c6703a 	and	r3,r6,r3
  8018f4:	1946b03a 	or	r3,r3,r5
  8018f8:	01600034 	movhi	r5,32768
  8018fc:	297fffc4 	addi	r5,r5,-1
  801900:	194a703a 	and	r5,r3,r5
  801904:	288ab03a 	or	r5,r5,r2
  801908:	2807883a 	mov	r3,r5
  80190c:	7005883a 	mov	r2,r14
  801910:	dc800217 	ldw	r18,8(sp)
  801914:	dc400117 	ldw	r17,4(sp)
  801918:	dc000017 	ldw	r16,0(sp)
  80191c:	dec00304 	addi	sp,sp,12
  801920:	f800283a 	ret
  801924:	21000217 	ldw	r4,8(r4)
  801928:	00bf0084 	movi	r2,-1022
  80192c:	20803f16 	blt	r4,r2,801a2c <__pack_d+0x1b4>
  801930:	0080ffc4 	movi	r2,1023
  801934:	11002c16 	blt	r2,r4,8019e8 <__pack_d+0x170>
  801938:	00803fc4 	movi	r2,255
  80193c:	408c703a 	and	r6,r8,r2
  801940:	00802004 	movi	r2,128
  801944:	0007883a 	mov	r3,zero
  801948:	000f883a 	mov	r7,zero
  80194c:	2280ffc4 	addi	r10,r4,1023
  801950:	30801e26 	beq	r6,r2,8019cc <__pack_d+0x154>
  801954:	00801fc4 	movi	r2,127
  801958:	4089883a 	add	r4,r8,r2
  80195c:	220d803a 	cmpltu	r6,r4,r8
  801960:	324d883a 	add	r6,r6,r9
  801964:	2011883a 	mov	r8,r4
  801968:	3013883a 	mov	r9,r6
  80196c:	00880034 	movhi	r2,8192
  801970:	10bfffc4 	addi	r2,r2,-1
  801974:	12400d36 	bltu	r2,r9,8019ac <__pack_d+0x134>
  801978:	4804963a 	slli	r2,r9,24
  80197c:	400cd23a 	srli	r6,r8,8
  801980:	480ed23a 	srli	r7,r9,8
  801984:	013fffc4 	movi	r4,-1
  801988:	118cb03a 	or	r6,r2,r6
  80198c:	01400434 	movhi	r5,16
  801990:	297fffc4 	addi	r5,r5,-1
  801994:	3104703a 	and	r2,r6,r4
  801998:	3946703a 	and	r3,r7,r5
  80199c:	5201ffcc 	andi	r8,r10,2047
  8019a0:	100d883a 	mov	r6,r2
  8019a4:	180f883a 	mov	r7,r3
  8019a8:	003fc706 	br	8018c8 <__pack_d+0x50>
  8019ac:	480897fa 	slli	r4,r9,31
  8019b0:	4004d07a 	srli	r2,r8,1
  8019b4:	4806d07a 	srli	r3,r9,1
  8019b8:	52800044 	addi	r10,r10,1
  8019bc:	2084b03a 	or	r2,r4,r2
  8019c0:	1011883a 	mov	r8,r2
  8019c4:	1813883a 	mov	r9,r3
  8019c8:	003feb06 	br	801978 <__pack_d+0x100>
  8019cc:	383fe11e 	bne	r7,zero,801954 <__pack_d+0xdc>
  8019d0:	01004004 	movi	r4,256
  8019d4:	4104703a 	and	r2,r8,r4
  8019d8:	10c4b03a 	or	r2,r2,r3
  8019dc:	103fe326 	beq	r2,zero,80196c <__pack_d+0xf4>
  8019e0:	3005883a 	mov	r2,r6
  8019e4:	003fdc06 	br	801958 <__pack_d+0xe0>
  8019e8:	000d883a 	mov	r6,zero
  8019ec:	000f883a 	mov	r7,zero
  8019f0:	0201ffc4 	movi	r8,2047
  8019f4:	003fb406 	br	8018c8 <__pack_d+0x50>
  8019f8:	0005883a 	mov	r2,zero
  8019fc:	00c00234 	movhi	r3,8
  801a00:	408cb03a 	or	r6,r8,r2
  801a04:	48ceb03a 	or	r7,r9,r3
  801a08:	013fffc4 	movi	r4,-1
  801a0c:	01400434 	movhi	r5,16
  801a10:	297fffc4 	addi	r5,r5,-1
  801a14:	3104703a 	and	r2,r6,r4
  801a18:	3946703a 	and	r3,r7,r5
  801a1c:	100d883a 	mov	r6,r2
  801a20:	180f883a 	mov	r7,r3
  801a24:	0201ffc4 	movi	r8,2047
  801a28:	003fa706 	br	8018c8 <__pack_d+0x50>
  801a2c:	1109c83a 	sub	r4,r2,r4
  801a30:	00800e04 	movi	r2,56
  801a34:	11004316 	blt	r2,r4,801b44 <__pack_d+0x2cc>
  801a38:	21fff804 	addi	r7,r4,-32
  801a3c:	38004516 	blt	r7,zero,801b54 <__pack_d+0x2dc>
  801a40:	49d8d83a 	srl	r12,r9,r7
  801a44:	001b883a 	mov	r13,zero
  801a48:	0023883a 	mov	r17,zero
  801a4c:	01400044 	movi	r5,1
  801a50:	0025883a 	mov	r18,zero
  801a54:	38004716 	blt	r7,zero,801b74 <__pack_d+0x2fc>
  801a58:	29d6983a 	sll	r11,r5,r7
  801a5c:	0015883a 	mov	r10,zero
  801a60:	00bfffc4 	movi	r2,-1
  801a64:	5089883a 	add	r4,r10,r2
  801a68:	588b883a 	add	r5,r11,r2
  801a6c:	228d803a 	cmpltu	r6,r4,r10
  801a70:	314b883a 	add	r5,r6,r5
  801a74:	4104703a 	and	r2,r8,r4
  801a78:	4946703a 	and	r3,r9,r5
  801a7c:	10c4b03a 	or	r2,r2,r3
  801a80:	10000226 	beq	r2,zero,801a8c <__pack_d+0x214>
  801a84:	04400044 	movi	r17,1
  801a88:	0025883a 	mov	r18,zero
  801a8c:	00803fc4 	movi	r2,255
  801a90:	644eb03a 	or	r7,r12,r17
  801a94:	3892703a 	and	r9,r7,r2
  801a98:	00802004 	movi	r2,128
  801a9c:	6c90b03a 	or	r8,r13,r18
  801aa0:	0015883a 	mov	r10,zero
  801aa4:	48801626 	beq	r9,r2,801b00 <__pack_d+0x288>
  801aa8:	01001fc4 	movi	r4,127
  801aac:	3905883a 	add	r2,r7,r4
  801ab0:	11cd803a 	cmpltu	r6,r2,r7
  801ab4:	320d883a 	add	r6,r6,r8
  801ab8:	100f883a 	mov	r7,r2
  801abc:	00840034 	movhi	r2,4096
  801ac0:	10bfffc4 	addi	r2,r2,-1
  801ac4:	3011883a 	mov	r8,r6
  801ac8:	0007883a 	mov	r3,zero
  801acc:	11801b36 	bltu	r2,r6,801b3c <__pack_d+0x2c4>
  801ad0:	4004963a 	slli	r2,r8,24
  801ad4:	3808d23a 	srli	r4,r7,8
  801ad8:	400ad23a 	srli	r5,r8,8
  801adc:	1813883a 	mov	r9,r3
  801ae0:	1108b03a 	or	r4,r2,r4
  801ae4:	00bfffc4 	movi	r2,-1
  801ae8:	00c00434 	movhi	r3,16
  801aec:	18ffffc4 	addi	r3,r3,-1
  801af0:	208c703a 	and	r6,r4,r2
  801af4:	28ce703a 	and	r7,r5,r3
  801af8:	4a01ffcc 	andi	r8,r9,2047
  801afc:	003f7206 	br	8018c8 <__pack_d+0x50>
  801b00:	503fe91e 	bne	r10,zero,801aa8 <__pack_d+0x230>
  801b04:	01004004 	movi	r4,256
  801b08:	3904703a 	and	r2,r7,r4
  801b0c:	0007883a 	mov	r3,zero
  801b10:	10c4b03a 	or	r2,r2,r3
  801b14:	10000626 	beq	r2,zero,801b30 <__pack_d+0x2b8>
  801b18:	3a45883a 	add	r2,r7,r9
  801b1c:	11cd803a 	cmpltu	r6,r2,r7
  801b20:	320d883a 	add	r6,r6,r8
  801b24:	100f883a 	mov	r7,r2
  801b28:	3011883a 	mov	r8,r6
  801b2c:	0007883a 	mov	r3,zero
  801b30:	00840034 	movhi	r2,4096
  801b34:	10bfffc4 	addi	r2,r2,-1
  801b38:	123fe52e 	bgeu	r2,r8,801ad0 <__pack_d+0x258>
  801b3c:	00c00044 	movi	r3,1
  801b40:	003fe306 	br	801ad0 <__pack_d+0x258>
  801b44:	0009883a 	mov	r4,zero
  801b48:	0013883a 	mov	r9,zero
  801b4c:	000b883a 	mov	r5,zero
  801b50:	003fe406 	br	801ae4 <__pack_d+0x26c>
  801b54:	4a47883a 	add	r3,r9,r9
  801b58:	008007c4 	movi	r2,31
  801b5c:	1105c83a 	sub	r2,r2,r4
  801b60:	1886983a 	sll	r3,r3,r2
  801b64:	4118d83a 	srl	r12,r8,r4
  801b68:	491ad83a 	srl	r13,r9,r4
  801b6c:	1b18b03a 	or	r12,r3,r12
  801b70:	003fb506 	br	801a48 <__pack_d+0x1d0>
  801b74:	2806d07a 	srli	r3,r5,1
  801b78:	008007c4 	movi	r2,31
  801b7c:	1105c83a 	sub	r2,r2,r4
  801b80:	1896d83a 	srl	r11,r3,r2
  801b84:	2914983a 	sll	r10,r5,r4
  801b88:	003fb506 	br	801a60 <__pack_d+0x1e8>

00801b8c <__unpack_d>:
  801b8c:	20c00117 	ldw	r3,4(r4)
  801b90:	22400017 	ldw	r9,0(r4)
  801b94:	00800434 	movhi	r2,16
  801b98:	10bfffc4 	addi	r2,r2,-1
  801b9c:	1808d53a 	srli	r4,r3,20
  801ba0:	180cd7fa 	srli	r6,r3,31
  801ba4:	1894703a 	and	r10,r3,r2
  801ba8:	2201ffcc 	andi	r8,r4,2047
  801bac:	281b883a 	mov	r13,r5
  801bb0:	4817883a 	mov	r11,r9
  801bb4:	29800115 	stw	r6,4(r5)
  801bb8:	5019883a 	mov	r12,r10
  801bbc:	40001e1e 	bne	r8,zero,801c38 <__unpack_d+0xac>
  801bc0:	4a84b03a 	or	r2,r9,r10
  801bc4:	10001926 	beq	r2,zero,801c2c <__unpack_d+0xa0>
  801bc8:	4804d63a 	srli	r2,r9,24
  801bcc:	500c923a 	slli	r6,r10,8
  801bd0:	013f0084 	movi	r4,-1022
  801bd4:	00c40034 	movhi	r3,4096
  801bd8:	18ffffc4 	addi	r3,r3,-1
  801bdc:	118cb03a 	or	r6,r2,r6
  801be0:	008000c4 	movi	r2,3
  801be4:	480a923a 	slli	r5,r9,8
  801be8:	68800015 	stw	r2,0(r13)
  801bec:	69000215 	stw	r4,8(r13)
  801bf0:	19800b36 	bltu	r3,r6,801c20 <__unpack_d+0x94>
  801bf4:	200f883a 	mov	r7,r4
  801bf8:	1811883a 	mov	r8,r3
  801bfc:	2945883a 	add	r2,r5,r5
  801c00:	1149803a 	cmpltu	r4,r2,r5
  801c04:	3187883a 	add	r3,r6,r6
  801c08:	20c9883a 	add	r4,r4,r3
  801c0c:	100b883a 	mov	r5,r2
  801c10:	200d883a 	mov	r6,r4
  801c14:	39ffffc4 	addi	r7,r7,-1
  801c18:	413ff82e 	bgeu	r8,r4,801bfc <__unpack_d+0x70>
  801c1c:	69c00215 	stw	r7,8(r13)
  801c20:	69800415 	stw	r6,16(r13)
  801c24:	69400315 	stw	r5,12(r13)
  801c28:	f800283a 	ret
  801c2c:	00800084 	movi	r2,2
  801c30:	28800015 	stw	r2,0(r5)
  801c34:	f800283a 	ret
  801c38:	0081ffc4 	movi	r2,2047
  801c3c:	40800f26 	beq	r8,r2,801c7c <__unpack_d+0xf0>
  801c40:	480cd63a 	srli	r6,r9,24
  801c44:	5006923a 	slli	r3,r10,8
  801c48:	4804923a 	slli	r2,r9,8
  801c4c:	0009883a 	mov	r4,zero
  801c50:	30c6b03a 	or	r3,r6,r3
  801c54:	01440034 	movhi	r5,4096
  801c58:	110cb03a 	or	r6,r2,r4
  801c5c:	423f0044 	addi	r8,r8,-1023
  801c60:	194eb03a 	or	r7,r3,r5
  801c64:	008000c4 	movi	r2,3
  801c68:	69c00415 	stw	r7,16(r13)
  801c6c:	6a000215 	stw	r8,8(r13)
  801c70:	68800015 	stw	r2,0(r13)
  801c74:	69800315 	stw	r6,12(r13)
  801c78:	f800283a 	ret
  801c7c:	4a84b03a 	or	r2,r9,r10
  801c80:	1000031e 	bne	r2,zero,801c90 <__unpack_d+0x104>
  801c84:	00800104 	movi	r2,4
  801c88:	28800015 	stw	r2,0(r5)
  801c8c:	f800283a 	ret
  801c90:	0009883a 	mov	r4,zero
  801c94:	01400234 	movhi	r5,8
  801c98:	4904703a 	and	r2,r9,r4
  801c9c:	5146703a 	and	r3,r10,r5
  801ca0:	10c4b03a 	or	r2,r2,r3
  801ca4:	10000526 	beq	r2,zero,801cbc <__unpack_d+0x130>
  801ca8:	00800044 	movi	r2,1
  801cac:	68800015 	stw	r2,0(r13)
  801cb0:	6b000415 	stw	r12,16(r13)
  801cb4:	6ac00315 	stw	r11,12(r13)
  801cb8:	f800283a 	ret
  801cbc:	68000015 	stw	zero,0(r13)
  801cc0:	003ffb06 	br	801cb0 <__unpack_d+0x124>

00801cc4 <gcvt>:
  801cc4:	defff804 	addi	sp,sp,-32
  801cc8:	0005883a 	mov	r2,zero
  801ccc:	dcc00615 	stw	r19,24(sp)
  801cd0:	dc800515 	stw	r18,20(sp)
  801cd4:	3027883a 	mov	r19,r6
  801cd8:	3825883a 	mov	r18,r7
  801cdc:	100d883a 	mov	r6,r2
  801ce0:	000f883a 	mov	r7,zero
  801ce4:	dc400415 	stw	r17,16(sp)
  801ce8:	dc000315 	stw	r16,12(sp)
  801cec:	dfc00715 	stw	ra,28(sp)
  801cf0:	2021883a 	mov	r16,r4
  801cf4:	2823883a 	mov	r17,r5
  801cf8:	0806dac0 	call	806dac <__ltdf2>
  801cfc:	9007883a 	mov	r3,r18
  801d00:	10001516 	blt	r2,zero,801d58 <gcvt+0x94>
  801d04:	00802074 	movhi	r2,129
  801d08:	10a96c04 	addi	r2,r2,-23120
  801d0c:	11000017 	ldw	r4,0(r2)
  801d10:	980f883a 	mov	r7,r19
  801d14:	008019c4 	movi	r2,103
  801d18:	880d883a 	mov	r6,r17
  801d1c:	800b883a 	mov	r5,r16
  801d20:	d8c00015 	stw	r3,0(sp)
  801d24:	d8800115 	stw	r2,4(sp)
  801d28:	d8000215 	stw	zero,8(sp)
  801d2c:	08029bc0 	call	8029bc <_gcvt>
  801d30:	900f883a 	mov	r7,r18
  801d34:	10000d26 	beq	r2,zero,801d6c <gcvt+0xa8>
  801d38:	3805883a 	mov	r2,r7
  801d3c:	dfc00717 	ldw	ra,28(sp)
  801d40:	dcc00617 	ldw	r19,24(sp)
  801d44:	dc800517 	ldw	r18,20(sp)
  801d48:	dc400417 	ldw	r17,16(sp)
  801d4c:	dc000317 	ldw	r16,12(sp)
  801d50:	dec00804 	addi	sp,sp,32
  801d54:	f800283a 	ret
  801d58:	00800b44 	movi	r2,45
  801d5c:	9cffffc4 	addi	r19,r19,-1
  801d60:	90c00044 	addi	r3,r18,1
  801d64:	90800005 	stb	r2,0(r18)
  801d68:	003fe606 	br	801d04 <gcvt+0x40>
  801d6c:	000f883a 	mov	r7,zero
  801d70:	3805883a 	mov	r2,r7
  801d74:	dfc00717 	ldw	ra,28(sp)
  801d78:	dcc00617 	ldw	r19,24(sp)
  801d7c:	dc800517 	ldw	r18,20(sp)
  801d80:	dc400417 	ldw	r17,16(sp)
  801d84:	dc000317 	ldw	r16,12(sp)
  801d88:	dec00804 	addi	sp,sp,32
  801d8c:	f800283a 	ret

00801d90 <gcvtf>:
  801d90:	defffd04 	addi	sp,sp,-12
  801d94:	dcc00115 	stw	r19,4(sp)
  801d98:	dc400015 	stw	r17,0(sp)
  801d9c:	3027883a 	mov	r19,r6
  801da0:	2823883a 	mov	r17,r5
  801da4:	dfc00215 	stw	ra,8(sp)
  801da8:	0800b5c0 	call	800b5c <__extendsfdf2>
  801dac:	180b883a 	mov	r5,r3
  801db0:	880d883a 	mov	r6,r17
  801db4:	980f883a 	mov	r7,r19
  801db8:	1009883a 	mov	r4,r2
  801dbc:	dfc00217 	ldw	ra,8(sp)
  801dc0:	dcc00117 	ldw	r19,4(sp)
  801dc4:	dc400017 	ldw	r17,0(sp)
  801dc8:	dec00304 	addi	sp,sp,12
  801dcc:	0801cc41 	jmpi	801cc4 <gcvt>

00801dd0 <ecvt>:
  801dd0:	defffd04 	addi	sp,sp,-12
  801dd4:	da000317 	ldw	r8,12(sp)
  801dd8:	dfc00215 	stw	ra,8(sp)
  801ddc:	d8000115 	stw	zero,4(sp)
  801de0:	da000015 	stw	r8,0(sp)
  801de4:	0802f940 	call	802f94 <ecvtbuf>
  801de8:	dfc00217 	ldw	ra,8(sp)
  801dec:	dec00304 	addi	sp,sp,12
  801df0:	f800283a 	ret

00801df4 <ecvtf>:
  801df4:	defffb04 	addi	sp,sp,-20
  801df8:	dfc00415 	stw	ra,16(sp)
  801dfc:	dd400315 	stw	r21,12(sp)
  801e00:	dcc00215 	stw	r19,8(sp)
  801e04:	382b883a 	mov	r21,r7
  801e08:	3027883a 	mov	r19,r6
  801e0c:	dc400115 	stw	r17,4(sp)
  801e10:	2823883a 	mov	r17,r5
  801e14:	0800b5c0 	call	800b5c <__extendsfdf2>
  801e18:	180b883a 	mov	r5,r3
  801e1c:	880d883a 	mov	r6,r17
  801e20:	980f883a 	mov	r7,r19
  801e24:	1009883a 	mov	r4,r2
  801e28:	dd400015 	stw	r21,0(sp)
  801e2c:	0801dd00 	call	801dd0 <ecvt>
  801e30:	dfc00417 	ldw	ra,16(sp)
  801e34:	dd400317 	ldw	r21,12(sp)
  801e38:	dcc00217 	ldw	r19,8(sp)
  801e3c:	dc400117 	ldw	r17,4(sp)
  801e40:	dec00504 	addi	sp,sp,20
  801e44:	f800283a 	ret

00801e48 <fcvt>:
  801e48:	defffd04 	addi	sp,sp,-12
  801e4c:	da000317 	ldw	r8,12(sp)
  801e50:	dfc00215 	stw	ra,8(sp)
  801e54:	d8000115 	stw	zero,4(sp)
  801e58:	da000015 	stw	r8,0(sp)
  801e5c:	08030dc0 	call	8030dc <fcvtbuf>
  801e60:	dfc00217 	ldw	ra,8(sp)
  801e64:	dec00304 	addi	sp,sp,12
  801e68:	f800283a 	ret

00801e6c <fcvtf>:
  801e6c:	defffb04 	addi	sp,sp,-20
  801e70:	dfc00415 	stw	ra,16(sp)
  801e74:	dd400315 	stw	r21,12(sp)
  801e78:	dcc00215 	stw	r19,8(sp)
  801e7c:	382b883a 	mov	r21,r7
  801e80:	3027883a 	mov	r19,r6
  801e84:	dc400115 	stw	r17,4(sp)
  801e88:	2823883a 	mov	r17,r5
  801e8c:	0800b5c0 	call	800b5c <__extendsfdf2>
  801e90:	180b883a 	mov	r5,r3
  801e94:	880d883a 	mov	r6,r17
  801e98:	980f883a 	mov	r7,r19
  801e9c:	1009883a 	mov	r4,r2
  801ea0:	dd400015 	stw	r21,0(sp)
  801ea4:	0801e480 	call	801e48 <fcvt>
  801ea8:	dfc00417 	ldw	ra,16(sp)
  801eac:	dd400317 	ldw	r21,12(sp)
  801eb0:	dcc00217 	ldw	r19,8(sp)
  801eb4:	dc400117 	ldw	r17,4(sp)
  801eb8:	dec00504 	addi	sp,sp,20
  801ebc:	f800283a 	ret

00801ec0 <free>:
  801ec0:	00802074 	movhi	r2,129
  801ec4:	10a96c04 	addi	r2,r2,-23120
  801ec8:	200b883a 	mov	r5,r4
  801ecc:	11000017 	ldw	r4,0(r2)
  801ed0:	08033b01 	jmpi	8033b0 <_free_r>

00801ed4 <malloc>:
  801ed4:	00802074 	movhi	r2,129
  801ed8:	10a96c04 	addi	r2,r2,-23120
  801edc:	200b883a 	mov	r5,r4
  801ee0:	11000017 	ldw	r4,0(r2)
  801ee4:	0801ee81 	jmpi	801ee8 <_malloc_r>

00801ee8 <_malloc_r>:
  801ee8:	defff604 	addi	sp,sp,-40
  801eec:	28c002c4 	addi	r3,r5,11
  801ef0:	00800584 	movi	r2,22
  801ef4:	dc800215 	stw	r18,8(sp)
  801ef8:	dfc00915 	stw	ra,36(sp)
  801efc:	df000815 	stw	fp,32(sp)
  801f00:	ddc00715 	stw	r23,28(sp)
  801f04:	dd800615 	stw	r22,24(sp)
  801f08:	dd400515 	stw	r21,20(sp)
  801f0c:	dd000415 	stw	r20,16(sp)
  801f10:	dcc00315 	stw	r19,12(sp)
  801f14:	dc400115 	stw	r17,4(sp)
  801f18:	dc000015 	stw	r16,0(sp)
  801f1c:	2025883a 	mov	r18,r4
  801f20:	10c01236 	bltu	r2,r3,801f6c <_malloc_r+0x84>
  801f24:	04400404 	movi	r17,16
  801f28:	8940142e 	bgeu	r17,r5,801f7c <_malloc_r+0x94>
  801f2c:	00800304 	movi	r2,12
  801f30:	0007883a 	mov	r3,zero
  801f34:	90800015 	stw	r2,0(r18)
  801f38:	1805883a 	mov	r2,r3
  801f3c:	dfc00917 	ldw	ra,36(sp)
  801f40:	df000817 	ldw	fp,32(sp)
  801f44:	ddc00717 	ldw	r23,28(sp)
  801f48:	dd800617 	ldw	r22,24(sp)
  801f4c:	dd400517 	ldw	r21,20(sp)
  801f50:	dd000417 	ldw	r20,16(sp)
  801f54:	dcc00317 	ldw	r19,12(sp)
  801f58:	dc800217 	ldw	r18,8(sp)
  801f5c:	dc400117 	ldw	r17,4(sp)
  801f60:	dc000017 	ldw	r16,0(sp)
  801f64:	dec00a04 	addi	sp,sp,40
  801f68:	f800283a 	ret
  801f6c:	00bffe04 	movi	r2,-8
  801f70:	18a2703a 	and	r17,r3,r2
  801f74:	883fed16 	blt	r17,zero,801f2c <_malloc_r+0x44>
  801f78:	897fec36 	bltu	r17,r5,801f2c <_malloc_r+0x44>
  801f7c:	9009883a 	mov	r4,r18
  801f80:	08072ac0 	call	8072ac <__malloc_lock>
  801f84:	00807dc4 	movi	r2,503
  801f88:	14402b2e 	bgeu	r2,r17,802038 <_malloc_r+0x150>
  801f8c:	8806d27a 	srli	r3,r17,9
  801f90:	18003f1e 	bne	r3,zero,802090 <_malloc_r+0x1a8>
  801f94:	880cd0fa 	srli	r6,r17,3
  801f98:	300490fa 	slli	r2,r6,3
  801f9c:	02c02074 	movhi	r11,129
  801fa0:	5ae7f504 	addi	r11,r11,-24620
  801fa4:	12cb883a 	add	r5,r2,r11
  801fa8:	2c000317 	ldw	r16,12(r5)
  801fac:	580f883a 	mov	r7,r11
  801fb0:	2c00041e 	bne	r5,r16,801fc4 <_malloc_r+0xdc>
  801fb4:	00000a06 	br	801fe0 <_malloc_r+0xf8>
  801fb8:	1800860e 	bge	r3,zero,8021d4 <_malloc_r+0x2ec>
  801fbc:	84000317 	ldw	r16,12(r16)
  801fc0:	2c000726 	beq	r5,r16,801fe0 <_malloc_r+0xf8>
  801fc4:	80800117 	ldw	r2,4(r16)
  801fc8:	00ffff04 	movi	r3,-4
  801fcc:	10c8703a 	and	r4,r2,r3
  801fd0:	2447c83a 	sub	r3,r4,r17
  801fd4:	008003c4 	movi	r2,15
  801fd8:	10fff70e 	bge	r2,r3,801fb8 <_malloc_r+0xd0>
  801fdc:	31bfffc4 	addi	r6,r6,-1
  801fe0:	32400044 	addi	r9,r6,1
  801fe4:	02802074 	movhi	r10,129
  801fe8:	52a7f704 	addi	r10,r10,-24612
  801fec:	54000217 	ldw	r16,8(r10)
  801ff0:	8280a026 	beq	r16,r10,802274 <_malloc_r+0x38c>
  801ff4:	80800117 	ldw	r2,4(r16)
  801ff8:	00ffff04 	movi	r3,-4
  801ffc:	10ca703a 	and	r5,r2,r3
  802000:	2c4dc83a 	sub	r6,r5,r17
  802004:	008003c4 	movi	r2,15
  802008:	11808316 	blt	r2,r6,802218 <_malloc_r+0x330>
  80200c:	52800315 	stw	r10,12(r10)
  802010:	52800215 	stw	r10,8(r10)
  802014:	30002916 	blt	r6,zero,8020bc <_malloc_r+0x1d4>
  802018:	8147883a 	add	r3,r16,r5
  80201c:	18800117 	ldw	r2,4(r3)
  802020:	9009883a 	mov	r4,r18
  802024:	10800054 	ori	r2,r2,1
  802028:	18800115 	stw	r2,4(r3)
  80202c:	08072b00 	call	8072b0 <__malloc_unlock>
  802030:	80c00204 	addi	r3,r16,8
  802034:	003fc006 	br	801f38 <_malloc_r+0x50>
  802038:	02c02074 	movhi	r11,129
  80203c:	5ae7f504 	addi	r11,r11,-24620
  802040:	8ac5883a 	add	r2,r17,r11
  802044:	14000317 	ldw	r16,12(r2)
  802048:	580f883a 	mov	r7,r11
  80204c:	8806d0fa 	srli	r3,r17,3
  802050:	14006c26 	beq	r2,r16,802204 <_malloc_r+0x31c>
  802054:	80c00117 	ldw	r3,4(r16)
  802058:	00bfff04 	movi	r2,-4
  80205c:	81800317 	ldw	r6,12(r16)
  802060:	1886703a 	and	r3,r3,r2
  802064:	80c7883a 	add	r3,r16,r3
  802068:	18800117 	ldw	r2,4(r3)
  80206c:	81400217 	ldw	r5,8(r16)
  802070:	9009883a 	mov	r4,r18
  802074:	10800054 	ori	r2,r2,1
  802078:	18800115 	stw	r2,4(r3)
  80207c:	31400215 	stw	r5,8(r6)
  802080:	29800315 	stw	r6,12(r5)
  802084:	08072b00 	call	8072b0 <__malloc_unlock>
  802088:	80c00204 	addi	r3,r16,8
  80208c:	003faa06 	br	801f38 <_malloc_r+0x50>
  802090:	00800104 	movi	r2,4
  802094:	10c0052e 	bgeu	r2,r3,8020ac <_malloc_r+0x1c4>
  802098:	00800504 	movi	r2,20
  80209c:	10c07836 	bltu	r2,r3,802280 <_malloc_r+0x398>
  8020a0:	198016c4 	addi	r6,r3,91
  8020a4:	300490fa 	slli	r2,r6,3
  8020a8:	003fbc06 	br	801f9c <_malloc_r+0xb4>
  8020ac:	8804d1ba 	srli	r2,r17,6
  8020b0:	11800e04 	addi	r6,r2,56
  8020b4:	300490fa 	slli	r2,r6,3
  8020b8:	003fb806 	br	801f9c <_malloc_r+0xb4>
  8020bc:	00807fc4 	movi	r2,511
  8020c0:	1140bb36 	bltu	r2,r5,8023b0 <_malloc_r+0x4c8>
  8020c4:	2806d0fa 	srli	r3,r5,3
  8020c8:	573ffe04 	addi	fp,r10,-8
  8020cc:	00800044 	movi	r2,1
  8020d0:	180890fa 	slli	r4,r3,3
  8020d4:	1807d0ba 	srai	r3,r3,2
  8020d8:	e1c00117 	ldw	r7,4(fp)
  8020dc:	5909883a 	add	r4,r11,r4
  8020e0:	21400217 	ldw	r5,8(r4)
  8020e4:	10c4983a 	sll	r2,r2,r3
  8020e8:	81000315 	stw	r4,12(r16)
  8020ec:	81400215 	stw	r5,8(r16)
  8020f0:	388eb03a 	or	r7,r7,r2
  8020f4:	2c000315 	stw	r16,12(r5)
  8020f8:	24000215 	stw	r16,8(r4)
  8020fc:	e1c00115 	stw	r7,4(fp)
  802100:	4807883a 	mov	r3,r9
  802104:	4800cd16 	blt	r9,zero,80243c <_malloc_r+0x554>
  802108:	1807d0ba 	srai	r3,r3,2
  80210c:	00800044 	movi	r2,1
  802110:	10c8983a 	sll	r4,r2,r3
  802114:	39004436 	bltu	r7,r4,802228 <_malloc_r+0x340>
  802118:	21c4703a 	and	r2,r4,r7
  80211c:	10000a1e 	bne	r2,zero,802148 <_malloc_r+0x260>
  802120:	2109883a 	add	r4,r4,r4
  802124:	00bfff04 	movi	r2,-4
  802128:	4884703a 	and	r2,r9,r2
  80212c:	3906703a 	and	r3,r7,r4
  802130:	12400104 	addi	r9,r2,4
  802134:	1800041e 	bne	r3,zero,802148 <_malloc_r+0x260>
  802138:	2109883a 	add	r4,r4,r4
  80213c:	3904703a 	and	r2,r7,r4
  802140:	4a400104 	addi	r9,r9,4
  802144:	103ffc26 	beq	r2,zero,802138 <_malloc_r+0x250>
  802148:	480490fa 	slli	r2,r9,3
  80214c:	4819883a 	mov	r12,r9
  802150:	023fff04 	movi	r8,-4
  802154:	589b883a 	add	r13,r11,r2
  802158:	6807883a 	mov	r3,r13
  80215c:	014003c4 	movi	r5,15
  802160:	1c000317 	ldw	r16,12(r3)
  802164:	1c00041e 	bne	r3,r16,802178 <_malloc_r+0x290>
  802168:	0000a706 	br	802408 <_malloc_r+0x520>
  80216c:	3000ab0e 	bge	r6,zero,80241c <_malloc_r+0x534>
  802170:	84000317 	ldw	r16,12(r16)
  802174:	1c00a426 	beq	r3,r16,802408 <_malloc_r+0x520>
  802178:	80800117 	ldw	r2,4(r16)
  80217c:	1204703a 	and	r2,r2,r8
  802180:	144dc83a 	sub	r6,r2,r17
  802184:	29bff90e 	bge	r5,r6,80216c <_malloc_r+0x284>
  802188:	81000317 	ldw	r4,12(r16)
  80218c:	80c00217 	ldw	r3,8(r16)
  802190:	89400054 	ori	r5,r17,1
  802194:	8445883a 	add	r2,r16,r17
  802198:	20c00215 	stw	r3,8(r4)
  80219c:	19000315 	stw	r4,12(r3)
  8021a0:	81400115 	stw	r5,4(r16)
  8021a4:	1187883a 	add	r3,r2,r6
  8021a8:	31000054 	ori	r4,r6,1
  8021ac:	50800315 	stw	r2,12(r10)
  8021b0:	50800215 	stw	r2,8(r10)
  8021b4:	19800015 	stw	r6,0(r3)
  8021b8:	11000115 	stw	r4,4(r2)
  8021bc:	12800215 	stw	r10,8(r2)
  8021c0:	12800315 	stw	r10,12(r2)
  8021c4:	9009883a 	mov	r4,r18
  8021c8:	08072b00 	call	8072b0 <__malloc_unlock>
  8021cc:	80c00204 	addi	r3,r16,8
  8021d0:	003f5906 	br	801f38 <_malloc_r+0x50>
  8021d4:	8109883a 	add	r4,r16,r4
  8021d8:	20800117 	ldw	r2,4(r4)
  8021dc:	80c00217 	ldw	r3,8(r16)
  8021e0:	81400317 	ldw	r5,12(r16)
  8021e4:	10800054 	ori	r2,r2,1
  8021e8:	20800115 	stw	r2,4(r4)
  8021ec:	28c00215 	stw	r3,8(r5)
  8021f0:	19400315 	stw	r5,12(r3)
  8021f4:	9009883a 	mov	r4,r18
  8021f8:	08072b00 	call	8072b0 <__malloc_unlock>
  8021fc:	80c00204 	addi	r3,r16,8
  802200:	003f4d06 	br	801f38 <_malloc_r+0x50>
  802204:	80800204 	addi	r2,r16,8
  802208:	14000317 	ldw	r16,12(r2)
  80220c:	143f911e 	bne	r2,r16,802054 <_malloc_r+0x16c>
  802210:	1a400084 	addi	r9,r3,2
  802214:	003f7306 	br	801fe4 <_malloc_r+0xfc>
  802218:	88c00054 	ori	r3,r17,1
  80221c:	8445883a 	add	r2,r16,r17
  802220:	80c00115 	stw	r3,4(r16)
  802224:	003fdf06 	br	8021a4 <_malloc_r+0x2bc>
  802228:	e4000217 	ldw	r16,8(fp)
  80222c:	00bfff04 	movi	r2,-4
  802230:	80c00117 	ldw	r3,4(r16)
  802234:	802d883a 	mov	r22,r16
  802238:	18aa703a 	and	r21,r3,r2
  80223c:	ac401636 	bltu	r21,r17,802298 <_malloc_r+0x3b0>
  802240:	ac49c83a 	sub	r4,r21,r17
  802244:	008003c4 	movi	r2,15
  802248:	1100130e 	bge	r2,r4,802298 <_malloc_r+0x3b0>
  80224c:	88800054 	ori	r2,r17,1
  802250:	8447883a 	add	r3,r16,r17
  802254:	80800115 	stw	r2,4(r16)
  802258:	20800054 	ori	r2,r4,1
  80225c:	18800115 	stw	r2,4(r3)
  802260:	e0c00215 	stw	r3,8(fp)
  802264:	9009883a 	mov	r4,r18
  802268:	08072b00 	call	8072b0 <__malloc_unlock>
  80226c:	80c00204 	addi	r3,r16,8
  802270:	003f3106 	br	801f38 <_malloc_r+0x50>
  802274:	39c00117 	ldw	r7,4(r7)
  802278:	573ffe04 	addi	fp,r10,-8
  80227c:	003fa006 	br	802100 <_malloc_r+0x218>
  802280:	00801504 	movi	r2,84
  802284:	10c06736 	bltu	r2,r3,802424 <_malloc_r+0x53c>
  802288:	8804d33a 	srli	r2,r17,12
  80228c:	11801b84 	addi	r6,r2,110
  802290:	300490fa 	slli	r2,r6,3
  802294:	003f4106 	br	801f9c <_malloc_r+0xb4>
  802298:	d0a29317 	ldw	r2,-30132(gp)
  80229c:	d0e00317 	ldw	r3,-32756(gp)
  8022a0:	053fffc4 	movi	r20,-1
  8022a4:	10800404 	addi	r2,r2,16
  8022a8:	88a7883a 	add	r19,r17,r2
  8022ac:	1d000326 	beq	r3,r20,8022bc <_malloc_r+0x3d4>
  8022b0:	98c3ffc4 	addi	r3,r19,4095
  8022b4:	00bc0004 	movi	r2,-4096
  8022b8:	18a6703a 	and	r19,r3,r2
  8022bc:	9009883a 	mov	r4,r18
  8022c0:	980b883a 	mov	r5,r19
  8022c4:	080275c0 	call	80275c <_sbrk_r>
  8022c8:	1009883a 	mov	r4,r2
  8022cc:	15000426 	beq	r2,r20,8022e0 <_malloc_r+0x3f8>
  8022d0:	854b883a 	add	r5,r16,r21
  8022d4:	1029883a 	mov	r20,r2
  8022d8:	11405a2e 	bgeu	r2,r5,802444 <_malloc_r+0x55c>
  8022dc:	87000c26 	beq	r16,fp,802310 <_malloc_r+0x428>
  8022e0:	e4000217 	ldw	r16,8(fp)
  8022e4:	80c00117 	ldw	r3,4(r16)
  8022e8:	00bfff04 	movi	r2,-4
  8022ec:	1884703a 	and	r2,r3,r2
  8022f0:	14400336 	bltu	r2,r17,802300 <_malloc_r+0x418>
  8022f4:	1449c83a 	sub	r4,r2,r17
  8022f8:	008003c4 	movi	r2,15
  8022fc:	113fd316 	blt	r2,r4,80224c <_malloc_r+0x364>
  802300:	9009883a 	mov	r4,r18
  802304:	08072b00 	call	8072b0 <__malloc_unlock>
  802308:	0007883a 	mov	r3,zero
  80230c:	003f0a06 	br	801f38 <_malloc_r+0x50>
  802310:	05c02074 	movhi	r23,129
  802314:	bdec0904 	addi	r23,r23,-20444
  802318:	b8800017 	ldw	r2,0(r23)
  80231c:	988d883a 	add	r6,r19,r2
  802320:	b9800015 	stw	r6,0(r23)
  802324:	d0e00317 	ldw	r3,-32756(gp)
  802328:	00bfffc4 	movi	r2,-1
  80232c:	18808e26 	beq	r3,r2,802568 <_malloc_r+0x680>
  802330:	2145c83a 	sub	r2,r4,r5
  802334:	3085883a 	add	r2,r6,r2
  802338:	b8800015 	stw	r2,0(r23)
  80233c:	20c001cc 	andi	r3,r4,7
  802340:	18005f1e 	bne	r3,zero,8024c0 <_malloc_r+0x5d8>
  802344:	000b883a 	mov	r5,zero
  802348:	a4c5883a 	add	r2,r20,r19
  80234c:	1083ffcc 	andi	r2,r2,4095
  802350:	00c40004 	movi	r3,4096
  802354:	1887c83a 	sub	r3,r3,r2
  802358:	28e7883a 	add	r19,r5,r3
  80235c:	9009883a 	mov	r4,r18
  802360:	980b883a 	mov	r5,r19
  802364:	080275c0 	call	80275c <_sbrk_r>
  802368:	1007883a 	mov	r3,r2
  80236c:	00bfffc4 	movi	r2,-1
  802370:	18807a26 	beq	r3,r2,80255c <_malloc_r+0x674>
  802374:	1d05c83a 	sub	r2,r3,r20
  802378:	9885883a 	add	r2,r19,r2
  80237c:	10c00054 	ori	r3,r2,1
  802380:	b8800017 	ldw	r2,0(r23)
  802384:	a021883a 	mov	r16,r20
  802388:	a0c00115 	stw	r3,4(r20)
  80238c:	9885883a 	add	r2,r19,r2
  802390:	b8800015 	stw	r2,0(r23)
  802394:	e5000215 	stw	r20,8(fp)
  802398:	b7003626 	beq	r22,fp,802474 <_malloc_r+0x58c>
  80239c:	018003c4 	movi	r6,15
  8023a0:	35404b36 	bltu	r6,r21,8024d0 <_malloc_r+0x5e8>
  8023a4:	00800044 	movi	r2,1
  8023a8:	a0800115 	stw	r2,4(r20)
  8023ac:	003fcd06 	br	8022e4 <_malloc_r+0x3fc>
  8023b0:	2808d27a 	srli	r4,r5,9
  8023b4:	2000371e 	bne	r4,zero,802494 <_malloc_r+0x5ac>
  8023b8:	2808d0fa 	srli	r4,r5,3
  8023bc:	200690fa 	slli	r3,r4,3
  8023c0:	1ad1883a 	add	r8,r3,r11
  8023c4:	41800217 	ldw	r6,8(r8)
  8023c8:	41805b26 	beq	r8,r6,802538 <_malloc_r+0x650>
  8023cc:	30800117 	ldw	r2,4(r6)
  8023d0:	00ffff04 	movi	r3,-4
  8023d4:	10c4703a 	and	r2,r2,r3
  8023d8:	2880022e 	bgeu	r5,r2,8023e4 <_malloc_r+0x4fc>
  8023dc:	31800217 	ldw	r6,8(r6)
  8023e0:	41bffa1e 	bne	r8,r6,8023cc <_malloc_r+0x4e4>
  8023e4:	32000317 	ldw	r8,12(r6)
  8023e8:	39c00117 	ldw	r7,4(r7)
  8023ec:	82000315 	stw	r8,12(r16)
  8023f0:	81800215 	stw	r6,8(r16)
  8023f4:	07002074 	movhi	fp,129
  8023f8:	e727f504 	addi	fp,fp,-24620
  8023fc:	34000315 	stw	r16,12(r6)
  802400:	44000215 	stw	r16,8(r8)
  802404:	003f3e06 	br	802100 <_malloc_r+0x218>
  802408:	63000044 	addi	r12,r12,1
  80240c:	608000cc 	andi	r2,r12,3
  802410:	10005d26 	beq	r2,zero,802588 <_malloc_r+0x6a0>
  802414:	18c00204 	addi	r3,r3,8
  802418:	003f5106 	br	802160 <_malloc_r+0x278>
  80241c:	8089883a 	add	r4,r16,r2
  802420:	003f6d06 	br	8021d8 <_malloc_r+0x2f0>
  802424:	00805504 	movi	r2,340
  802428:	10c02036 	bltu	r2,r3,8024ac <_malloc_r+0x5c4>
  80242c:	8804d3fa 	srli	r2,r17,15
  802430:	11801dc4 	addi	r6,r2,119
  802434:	300490fa 	slli	r2,r6,3
  802438:	003ed806 	br	801f9c <_malloc_r+0xb4>
  80243c:	48c000c4 	addi	r3,r9,3
  802440:	003f3106 	br	802108 <_malloc_r+0x220>
  802444:	05c02074 	movhi	r23,129
  802448:	bdec0904 	addi	r23,r23,-20444
  80244c:	b8800017 	ldw	r2,0(r23)
  802450:	988d883a 	add	r6,r19,r2
  802454:	b9800015 	stw	r6,0(r23)
  802458:	293fb21e 	bne	r5,r4,802324 <_malloc_r+0x43c>
  80245c:	2083ffcc 	andi	r2,r4,4095
  802460:	103fb01e 	bne	r2,zero,802324 <_malloc_r+0x43c>
  802464:	e4000217 	ldw	r16,8(fp)
  802468:	9d45883a 	add	r2,r19,r21
  80246c:	10800054 	ori	r2,r2,1
  802470:	80800115 	stw	r2,4(r16)
  802474:	b8c00017 	ldw	r3,0(r23)
  802478:	d0a29417 	ldw	r2,-30128(gp)
  80247c:	10c0012e 	bgeu	r2,r3,802484 <_malloc_r+0x59c>
  802480:	d0e29415 	stw	r3,-30128(gp)
  802484:	d0a29517 	ldw	r2,-30124(gp)
  802488:	10ff962e 	bgeu	r2,r3,8022e4 <_malloc_r+0x3fc>
  80248c:	d0e29515 	stw	r3,-30124(gp)
  802490:	003f9406 	br	8022e4 <_malloc_r+0x3fc>
  802494:	00800104 	movi	r2,4
  802498:	11001e36 	bltu	r2,r4,802514 <_malloc_r+0x62c>
  80249c:	2804d1ba 	srli	r2,r5,6
  8024a0:	11000e04 	addi	r4,r2,56
  8024a4:	200690fa 	slli	r3,r4,3
  8024a8:	003fc506 	br	8023c0 <_malloc_r+0x4d8>
  8024ac:	00815504 	movi	r2,1364
  8024b0:	10c01d2e 	bgeu	r2,r3,802528 <_malloc_r+0x640>
  8024b4:	01801f84 	movi	r6,126
  8024b8:	0080fc04 	movi	r2,1008
  8024bc:	003eb706 	br	801f9c <_malloc_r+0xb4>
  8024c0:	00800204 	movi	r2,8
  8024c4:	10cbc83a 	sub	r5,r2,r3
  8024c8:	2169883a 	add	r20,r4,r5
  8024cc:	003f9e06 	br	802348 <_malloc_r+0x460>
  8024d0:	00bffe04 	movi	r2,-8
  8024d4:	a93ffd04 	addi	r4,r21,-12
  8024d8:	2088703a 	and	r4,r4,r2
  8024dc:	b10b883a 	add	r5,r22,r4
  8024e0:	00c00144 	movi	r3,5
  8024e4:	28c00215 	stw	r3,8(r5)
  8024e8:	28c00115 	stw	r3,4(r5)
  8024ec:	b0800117 	ldw	r2,4(r22)
  8024f0:	1080004c 	andi	r2,r2,1
  8024f4:	2084b03a 	or	r2,r4,r2
  8024f8:	b0800115 	stw	r2,4(r22)
  8024fc:	313fdd2e 	bgeu	r6,r4,802474 <_malloc_r+0x58c>
  802500:	b1400204 	addi	r5,r22,8
  802504:	9009883a 	mov	r4,r18
  802508:	08033b00 	call	8033b0 <_free_r>
  80250c:	e4000217 	ldw	r16,8(fp)
  802510:	003fd806 	br	802474 <_malloc_r+0x58c>
  802514:	00800504 	movi	r2,20
  802518:	11001536 	bltu	r2,r4,802570 <_malloc_r+0x688>
  80251c:	210016c4 	addi	r4,r4,91
  802520:	200690fa 	slli	r3,r4,3
  802524:	003fa606 	br	8023c0 <_malloc_r+0x4d8>
  802528:	8804d4ba 	srli	r2,r17,18
  80252c:	11801f04 	addi	r6,r2,124
  802530:	300490fa 	slli	r2,r6,3
  802534:	003e9906 	br	801f9c <_malloc_r+0xb4>
  802538:	2009d0ba 	srai	r4,r4,2
  80253c:	01402074 	movhi	r5,129
  802540:	2967f504 	addi	r5,r5,-24620
  802544:	00c00044 	movi	r3,1
  802548:	28800117 	ldw	r2,4(r5)
  80254c:	1906983a 	sll	r3,r3,r4
  802550:	10c4b03a 	or	r2,r2,r3
  802554:	28800115 	stw	r2,4(r5)
  802558:	003fa306 	br	8023e8 <_malloc_r+0x500>
  80255c:	0027883a 	mov	r19,zero
  802560:	00c00044 	movi	r3,1
  802564:	003f8606 	br	802380 <_malloc_r+0x498>
  802568:	d1200315 	stw	r4,-32756(gp)
  80256c:	003f7306 	br	80233c <_malloc_r+0x454>
  802570:	00801504 	movi	r2,84
  802574:	11001936 	bltu	r2,r4,8025dc <_malloc_r+0x6f4>
  802578:	2804d33a 	srli	r2,r5,12
  80257c:	11001b84 	addi	r4,r2,110
  802580:	200690fa 	slli	r3,r4,3
  802584:	003f8e06 	br	8023c0 <_malloc_r+0x4d8>
  802588:	480b883a 	mov	r5,r9
  80258c:	6807883a 	mov	r3,r13
  802590:	288000cc 	andi	r2,r5,3
  802594:	18fffe04 	addi	r3,r3,-8
  802598:	297fffc4 	addi	r5,r5,-1
  80259c:	10001526 	beq	r2,zero,8025f4 <_malloc_r+0x70c>
  8025a0:	18800217 	ldw	r2,8(r3)
  8025a4:	10fffa26 	beq	r2,r3,802590 <_malloc_r+0x6a8>
  8025a8:	2109883a 	add	r4,r4,r4
  8025ac:	393f1e36 	bltu	r7,r4,802228 <_malloc_r+0x340>
  8025b0:	203f1d26 	beq	r4,zero,802228 <_malloc_r+0x340>
  8025b4:	21c4703a 	and	r2,r4,r7
  8025b8:	10000226 	beq	r2,zero,8025c4 <_malloc_r+0x6dc>
  8025bc:	6013883a 	mov	r9,r12
  8025c0:	003ee106 	br	802148 <_malloc_r+0x260>
  8025c4:	2109883a 	add	r4,r4,r4
  8025c8:	3904703a 	and	r2,r7,r4
  8025cc:	63000104 	addi	r12,r12,4
  8025d0:	103ffc26 	beq	r2,zero,8025c4 <_malloc_r+0x6dc>
  8025d4:	6013883a 	mov	r9,r12
  8025d8:	003edb06 	br	802148 <_malloc_r+0x260>
  8025dc:	00805504 	movi	r2,340
  8025e0:	11000836 	bltu	r2,r4,802604 <_malloc_r+0x71c>
  8025e4:	2804d3fa 	srli	r2,r5,15
  8025e8:	11001dc4 	addi	r4,r2,119
  8025ec:	200690fa 	slli	r3,r4,3
  8025f0:	003f7306 	br	8023c0 <_malloc_r+0x4d8>
  8025f4:	0104303a 	nor	r2,zero,r4
  8025f8:	388e703a 	and	r7,r7,r2
  8025fc:	e1c00115 	stw	r7,4(fp)
  802600:	003fe906 	br	8025a8 <_malloc_r+0x6c0>
  802604:	00815504 	movi	r2,1364
  802608:	1100032e 	bgeu	r2,r4,802618 <_malloc_r+0x730>
  80260c:	01001f84 	movi	r4,126
  802610:	00c0fc04 	movi	r3,1008
  802614:	003f6a06 	br	8023c0 <_malloc_r+0x4d8>
  802618:	2804d4ba 	srli	r2,r5,18
  80261c:	11001f04 	addi	r4,r2,124
  802620:	200690fa 	slli	r3,r4,3
  802624:	003f6606 	br	8023c0 <_malloc_r+0x4d8>

00802628 <memcpy>:
  802628:	01c003c4 	movi	r7,15
  80262c:	2007883a 	mov	r3,r4
  802630:	3980032e 	bgeu	r7,r6,802640 <memcpy+0x18>
  802634:	2904b03a 	or	r2,r5,r4
  802638:	108000cc 	andi	r2,r2,3
  80263c:	10000926 	beq	r2,zero,802664 <memcpy+0x3c>
  802640:	30000626 	beq	r6,zero,80265c <memcpy+0x34>
  802644:	30cd883a 	add	r6,r6,r3
  802648:	28800003 	ldbu	r2,0(r5)
  80264c:	29400044 	addi	r5,r5,1
  802650:	18800005 	stb	r2,0(r3)
  802654:	18c00044 	addi	r3,r3,1
  802658:	30fffb1e 	bne	r6,r3,802648 <memcpy+0x20>
  80265c:	2005883a 	mov	r2,r4
  802660:	f800283a 	ret
  802664:	3811883a 	mov	r8,r7
  802668:	200f883a 	mov	r7,r4
  80266c:	28c00017 	ldw	r3,0(r5)
  802670:	31bffc04 	addi	r6,r6,-16
  802674:	38c00015 	stw	r3,0(r7)
  802678:	28800117 	ldw	r2,4(r5)
  80267c:	38800115 	stw	r2,4(r7)
  802680:	28c00217 	ldw	r3,8(r5)
  802684:	38c00215 	stw	r3,8(r7)
  802688:	28800317 	ldw	r2,12(r5)
  80268c:	29400404 	addi	r5,r5,16
  802690:	38800315 	stw	r2,12(r7)
  802694:	39c00404 	addi	r7,r7,16
  802698:	41bff436 	bltu	r8,r6,80266c <memcpy+0x44>
  80269c:	008000c4 	movi	r2,3
  8026a0:	1180072e 	bgeu	r2,r6,8026c0 <memcpy+0x98>
  8026a4:	1007883a 	mov	r3,r2
  8026a8:	28800017 	ldw	r2,0(r5)
  8026ac:	31bfff04 	addi	r6,r6,-4
  8026b0:	29400104 	addi	r5,r5,4
  8026b4:	38800015 	stw	r2,0(r7)
  8026b8:	39c00104 	addi	r7,r7,4
  8026bc:	19bffa36 	bltu	r3,r6,8026a8 <memcpy+0x80>
  8026c0:	3807883a 	mov	r3,r7
  8026c4:	003fde06 	br	802640 <memcpy+0x18>

008026c8 <srand>:
  8026c8:	00802074 	movhi	r2,129
  8026cc:	10a96c04 	addi	r2,r2,-23120
  8026d0:	11400017 	ldw	r5,0(r2)
  8026d4:	0007883a 	mov	r3,zero
  8026d8:	28c02a15 	stw	r3,168(r5)
  8026dc:	29002915 	stw	r4,164(r5)
  8026e0:	f800283a 	ret

008026e4 <rand>:
  8026e4:	defffe04 	addi	sp,sp,-8
  8026e8:	00802074 	movhi	r2,129
  8026ec:	10a96c04 	addi	r2,r2,-23120
  8026f0:	dc000015 	stw	r16,0(sp)
  8026f4:	14000017 	ldw	r16,0(r2)
  8026f8:	dfc00115 	stw	ra,4(sp)
  8026fc:	00932574 	movhi	r2,19605
  802700:	109fcb44 	addi	r2,r2,32557
  802704:	82002917 	ldw	r8,164(r16)
  802708:	82402a17 	ldw	r9,168(r16)
  80270c:	00d614b4 	movhi	r3,22610
  802710:	18fd0b44 	addi	r3,r3,-3027
  802714:	4009883a 	mov	r4,r8
  802718:	180f883a 	mov	r7,r3
  80271c:	100d883a 	mov	r6,r2
  802720:	480b883a 	mov	r5,r9
  802724:	08067300 	call	806730 <__muldi3>
  802728:	02000044 	movi	r8,1
  80272c:	1209883a 	add	r4,r2,r8
  802730:	2095803a 	cmpltu	r10,r4,r2
  802734:	50d5883a 	add	r10,r10,r3
  802738:	81002915 	stw	r4,164(r16)
  80273c:	01200034 	movhi	r4,32768
  802740:	213fffc4 	addi	r4,r4,-1
  802744:	2284703a 	and	r2,r4,r10
  802748:	82802a15 	stw	r10,168(r16)
  80274c:	dfc00117 	ldw	ra,4(sp)
  802750:	dc000017 	ldw	r16,0(sp)
  802754:	dec00204 	addi	sp,sp,8
  802758:	f800283a 	ret

0080275c <_sbrk_r>:
  80275c:	defffd04 	addi	sp,sp,-12
  802760:	dc000015 	stw	r16,0(sp)
  802764:	04002074 	movhi	r16,129
  802768:	842c0204 	addi	r16,r16,-20472
  80276c:	dc400115 	stw	r17,4(sp)
  802770:	80000015 	stw	zero,0(r16)
  802774:	2023883a 	mov	r17,r4
  802778:	2809883a 	mov	r4,r5
  80277c:	dfc00215 	stw	ra,8(sp)
  802780:	08072c80 	call	8072c8 <sbrk>
  802784:	1007883a 	mov	r3,r2
  802788:	00bfffc4 	movi	r2,-1
  80278c:	18800626 	beq	r3,r2,8027a8 <_sbrk_r+0x4c>
  802790:	1805883a 	mov	r2,r3
  802794:	dfc00217 	ldw	ra,8(sp)
  802798:	dc400117 	ldw	r17,4(sp)
  80279c:	dc000017 	ldw	r16,0(sp)
  8027a0:	dec00304 	addi	sp,sp,12
  8027a4:	f800283a 	ret
  8027a8:	80800017 	ldw	r2,0(r16)
  8027ac:	103ff826 	beq	r2,zero,802790 <_sbrk_r+0x34>
  8027b0:	88800015 	stw	r2,0(r17)
  8027b4:	1805883a 	mov	r2,r3
  8027b8:	dfc00217 	ldw	ra,8(sp)
  8027bc:	dc400117 	ldw	r17,4(sp)
  8027c0:	dc000017 	ldw	r16,0(sp)
  8027c4:	dec00304 	addi	sp,sp,12
  8027c8:	f800283a 	ret

008027cc <print_e>:
  8027cc:	defff404 	addi	sp,sp,-48
  8027d0:	dcc00a15 	stw	r19,40(sp)
  8027d4:	dcc00c17 	ldw	r19,48(sp)
  8027d8:	3005883a 	mov	r2,r6
  8027dc:	dc400815 	stw	r17,32(sp)
  8027e0:	2823883a 	mov	r17,r5
  8027e4:	100b883a 	mov	r5,r2
  8027e8:	d8800604 	addi	r2,sp,24
  8027ec:	380d883a 	mov	r6,r7
  8027f0:	9a000044 	addi	r8,r19,1
  8027f4:	d8800115 	stw	r2,4(sp)
  8027f8:	d8c00504 	addi	r3,sp,20
  8027fc:	d8800404 	addi	r2,sp,16
  802800:	01c00084 	movi	r7,2
  802804:	dc800915 	stw	r18,36(sp)
  802808:	dc000715 	stw	r16,28(sp)
  80280c:	dfc00b15 	stw	ra,44(sp)
  802810:	da000015 	stw	r8,0(sp)
  802814:	d8c00315 	stw	r3,12(sp)
  802818:	d8800215 	stw	r2,8(sp)
  80281c:	dc800d03 	ldbu	r18,52(sp)
  802820:	08050040 	call	805004 <_dtoa_r>
  802824:	dc000617 	ldw	r16,24(sp)
  802828:	100b883a 	mov	r5,r2
  80282c:	0089c3c4 	movi	r2,9999
  802830:	80805926 	beq	r16,r2,802998 <print_e+0x1cc>
  802834:	28c00003 	ldbu	r3,0(r5)
  802838:	89000044 	addi	r4,r17,1
  80283c:	29400044 	addi	r5,r5,1
  802840:	88c00005 	stb	r3,0(r17)
  802844:	d8800e17 	ldw	r2,56(sp)
  802848:	10004326 	beq	r2,zero,802958 <print_e+0x18c>
  80284c:	00800b84 	movi	r2,46
  802850:	20800005 	stb	r2,0(r4)
  802854:	9811883a 	mov	r8,r19
  802858:	21000044 	addi	r4,r4,1
  80285c:	28800003 	ldbu	r2,0(r5)
  802860:	10000926 	beq	r2,zero,802888 <print_e+0xbc>
  802864:	02000216 	blt	zero,r8,802870 <print_e+0xa4>
  802868:	00000706 	br	802888 <print_e+0xbc>
  80286c:	40000626 	beq	r8,zero,802888 <print_e+0xbc>
  802870:	20800005 	stb	r2,0(r4)
  802874:	29400044 	addi	r5,r5,1
  802878:	28800003 	ldbu	r2,0(r5)
  80287c:	423fffc4 	addi	r8,r8,-1
  802880:	21000044 	addi	r4,r4,1
  802884:	103ff91e 	bne	r2,zero,80286c <print_e+0xa0>
  802888:	90c03fcc 	andi	r3,r18,255
  80288c:	18c0201c 	xori	r3,r3,128
  802890:	18ffe004 	addi	r3,r3,-128
  802894:	008019c4 	movi	r2,103
  802898:	18803226 	beq	r3,r2,802964 <print_e+0x198>
  80289c:	008011c4 	movi	r2,71
  8028a0:	18803b26 	beq	r3,r2,802990 <print_e+0x1c4>
  8028a4:	0200080e 	bge	zero,r8,8028c8 <print_e+0xfc>
  8028a8:	2007883a 	mov	r3,r4
  8028ac:	4005883a 	mov	r2,r8
  8028b0:	01400c04 	movi	r5,48
  8028b4:	10bfffc4 	addi	r2,r2,-1
  8028b8:	19400005 	stb	r5,0(r3)
  8028bc:	18c00044 	addi	r3,r3,1
  8028c0:	103ffc1e 	bne	r2,zero,8028b4 <print_e+0xe8>
  8028c4:	2209883a 	add	r4,r4,r8
  8028c8:	843fffc4 	addi	r16,r16,-1
  8028cc:	24800005 	stb	r18,0(r4)
  8028d0:	dc000615 	stw	r16,24(sp)
  8028d4:	80002816 	blt	r16,zero,802978 <print_e+0x1ac>
  8028d8:	00800ac4 	movi	r2,43
  8028dc:	20800045 	stb	r2,1(r4)
  8028e0:	24400084 	addi	r17,r4,2
  8028e4:	008018c4 	movi	r2,99
  8028e8:	1400090e 	bge	r2,r16,802910 <print_e+0x144>
  8028ec:	8009883a 	mov	r4,r16
  8028f0:	01401904 	movi	r5,100
  8028f4:	08070100 	call	807010 <__divsi3>
  8028f8:	10c01924 	muli	r3,r2,100
  8028fc:	10800c04 	addi	r2,r2,48
  802900:	88800005 	stb	r2,0(r17)
  802904:	80e1c83a 	sub	r16,r16,r3
  802908:	8c400044 	addi	r17,r17,1
  80290c:	dc000615 	stw	r16,24(sp)
  802910:	8009883a 	mov	r4,r16
  802914:	01400284 	movi	r5,10
  802918:	08070100 	call	807010 <__divsi3>
  80291c:	10c002a4 	muli	r3,r2,10
  802920:	10800c04 	addi	r2,r2,48
  802924:	88800005 	stb	r2,0(r17)
  802928:	80c7c83a 	sub	r3,r16,r3
  80292c:	18800c04 	addi	r2,r3,48
  802930:	88800045 	stb	r2,1(r17)
  802934:	88000085 	stb	zero,2(r17)
  802938:	d8c00615 	stw	r3,24(sp)
  80293c:	dfc00b17 	ldw	ra,44(sp)
  802940:	dcc00a17 	ldw	r19,40(sp)
  802944:	dc800917 	ldw	r18,36(sp)
  802948:	dc400817 	ldw	r17,32(sp)
  80294c:	dc000717 	ldw	r16,28(sp)
  802950:	dec00c04 	addi	sp,sp,48
  802954:	f800283a 	ret
  802958:	983fbc1e 	bne	r19,zero,80284c <print_e+0x80>
  80295c:	0011883a 	mov	r8,zero
  802960:	003fbe06 	br	80285c <print_e+0x90>
  802964:	04801944 	movi	r18,101
  802968:	843fffc4 	addi	r16,r16,-1
  80296c:	24800005 	stb	r18,0(r4)
  802970:	dc000615 	stw	r16,24(sp)
  802974:	803fd80e 	bge	r16,zero,8028d8 <print_e+0x10c>
  802978:	00800b44 	movi	r2,45
  80297c:	0421c83a 	sub	r16,zero,r16
  802980:	20800045 	stb	r2,1(r4)
  802984:	24400084 	addi	r17,r4,2
  802988:	dc000615 	stw	r16,24(sp)
  80298c:	003fd506 	br	8028e4 <print_e+0x118>
  802990:	04801144 	movi	r18,69
  802994:	003fcc06 	br	8028c8 <print_e+0xfc>
  802998:	8809883a 	mov	r4,r17
  80299c:	0804cac0 	call	804cac <strcpy>
  8029a0:	dfc00b17 	ldw	ra,44(sp)
  8029a4:	dcc00a17 	ldw	r19,40(sp)
  8029a8:	dc800917 	ldw	r18,36(sp)
  8029ac:	dc400817 	ldw	r17,32(sp)
  8029b0:	dc000717 	ldw	r16,28(sp)
  8029b4:	dec00c04 	addi	sp,sp,48
  8029b8:	f800283a 	ret

008029bc <_gcvt>:
  8029bc:	defff104 	addi	sp,sp,-60
  8029c0:	dc400815 	stw	r17,32(sp)
  8029c4:	0005883a 	mov	r2,zero
  8029c8:	3023883a 	mov	r17,r6
  8029cc:	dcc00a15 	stw	r19,40(sp)
  8029d0:	dc800915 	stw	r18,36(sp)
  8029d4:	dc000715 	stw	r16,28(sp)
  8029d8:	2027883a 	mov	r19,r4
  8029dc:	2821883a 	mov	r16,r5
  8029e0:	3825883a 	mov	r18,r7
  8029e4:	2809883a 	mov	r4,r5
  8029e8:	100d883a 	mov	r6,r2
  8029ec:	880b883a 	mov	r5,r17
  8029f0:	000f883a 	mov	r7,zero
  8029f4:	dd800d15 	stw	r22,52(sp)
  8029f8:	dd400c15 	stw	r21,48(sp)
  8029fc:	dd000b15 	stw	r20,44(sp)
  802a00:	dfc00e15 	stw	ra,56(sp)
  802a04:	dd400f17 	ldw	r21,60(sp)
  802a08:	dd801117 	ldw	r22,68(sp)
  802a0c:	dd001003 	ldbu	r20,64(sp)
  802a10:	0806dac0 	call	806dac <__ltdf2>
  802a14:	10008e16 	blt	r2,zero,802c50 <_gcvt+0x294>
  802a18:	000d883a 	mov	r6,zero
  802a1c:	000f883a 	mov	r7,zero
  802a20:	8009883a 	mov	r4,r16
  802a24:	880b883a 	mov	r5,r17
  802a28:	0806b8c0 	call	806b8c <__eqdf2>
  802a2c:	10000e1e 	bne	r2,zero,802a68 <_gcvt+0xac>
  802a30:	00800c04 	movi	r2,48
  802a34:	a8800005 	stb	r2,0(r21)
  802a38:	a8000045 	stb	zero,1(r21)
  802a3c:	a805883a 	mov	r2,r21
  802a40:	dfc00e17 	ldw	ra,56(sp)
  802a44:	dd800d17 	ldw	r22,52(sp)
  802a48:	dd400c17 	ldw	r21,48(sp)
  802a4c:	dd000b17 	ldw	r20,44(sp)
  802a50:	dcc00a17 	ldw	r19,40(sp)
  802a54:	dc800917 	ldw	r18,36(sp)
  802a58:	dc400817 	ldw	r17,32(sp)
  802a5c:	dc000717 	ldw	r16,28(sp)
  802a60:	dec00f04 	addi	sp,sp,60
  802a64:	f800283a 	ret
  802a68:	00bac734 	movhi	r2,60188
  802a6c:	1090cb44 	addi	r2,r2,17197
  802a70:	00cfc6b4 	movhi	r3,16154
  802a74:	18cdb884 	addi	r3,r3,14050
  802a78:	180f883a 	mov	r7,r3
  802a7c:	8009883a 	mov	r4,r16
  802a80:	880b883a 	mov	r5,r17
  802a84:	100d883a 	mov	r6,r2
  802a88:	0806e340 	call	806e34 <__ledf2>
  802a8c:	00800d16 	blt	zero,r2,802ac4 <_gcvt+0x108>
  802a90:	a0c03fcc 	andi	r3,r20,255
  802a94:	18c0201c 	xori	r3,r3,128
  802a98:	90bfffc4 	addi	r2,r18,-1
  802a9c:	18ffe004 	addi	r3,r3,-128
  802aa0:	9809883a 	mov	r4,r19
  802aa4:	880f883a 	mov	r7,r17
  802aa8:	a80b883a 	mov	r5,r21
  802aac:	800d883a 	mov	r6,r16
  802ab0:	d8800015 	stw	r2,0(sp)
  802ab4:	d8c00115 	stw	r3,4(sp)
  802ab8:	dd800215 	stw	r22,8(sp)
  802abc:	08027cc0 	call	8027cc <print_e>
  802ac0:	003fde06 	br	802a3c <_gcvt+0x80>
  802ac4:	9009883a 	mov	r4,r18
  802ac8:	0803ad00 	call	803ad0 <_mprec_log10>
  802acc:	180f883a 	mov	r7,r3
  802ad0:	8009883a 	mov	r4,r16
  802ad4:	880b883a 	mov	r5,r17
  802ad8:	100d883a 	mov	r6,r2
  802adc:	0806d240 	call	806d24 <__gedf2>
  802ae0:	103feb0e 	bge	r2,zero,802a90 <_gcvt+0xd4>
  802ae4:	0005883a 	mov	r2,zero
  802ae8:	00cffc34 	movhi	r3,16368
  802aec:	180f883a 	mov	r7,r3
  802af0:	8009883a 	mov	r4,r16
  802af4:	880b883a 	mov	r5,r17
  802af8:	100d883a 	mov	r6,r2
  802afc:	0806dac0 	call	806dac <__ltdf2>
  802b00:	10005616 	blt	r2,zero,802c5c <_gcvt+0x2a0>
  802b04:	9809883a 	mov	r4,r19
  802b08:	880d883a 	mov	r6,r17
  802b0c:	800b883a 	mov	r5,r16
  802b10:	01c00084 	movi	r7,2
  802b14:	d8800504 	addi	r2,sp,20
  802b18:	d8800215 	stw	r2,8(sp)
  802b1c:	d8c00604 	addi	r3,sp,24
  802b20:	d8800404 	addi	r2,sp,16
  802b24:	d8c00315 	stw	r3,12(sp)
  802b28:	dc800015 	stw	r18,0(sp)
  802b2c:	d8800115 	stw	r2,4(sp)
  802b30:	08050040 	call	805004 <_dtoa_r>
  802b34:	d9000417 	ldw	r4,16(sp)
  802b38:	100b883a 	mov	r5,r2
  802b3c:	0089c3c4 	movi	r2,9999
  802b40:	20804b26 	beq	r4,r2,802c70 <_gcvt+0x2b4>
  802b44:	28800003 	ldbu	r2,0(r5)
  802b48:	10005026 	beq	r2,zero,802c8c <_gcvt+0x2d0>
  802b4c:	0100510e 	bge	zero,r4,802c94 <_gcvt+0x2d8>
  802b50:	a807883a 	mov	r3,r21
  802b54:	00000106 	br	802b5c <_gcvt+0x1a0>
  802b58:	0100130e 	bge	zero,r4,802ba8 <_gcvt+0x1ec>
  802b5c:	18800005 	stb	r2,0(r3)
  802b60:	213fffc4 	addi	r4,r4,-1
  802b64:	d9000415 	stw	r4,16(sp)
  802b68:	29400044 	addi	r5,r5,1
  802b6c:	28800003 	ldbu	r2,0(r5)
  802b70:	18c00044 	addi	r3,r3,1
  802b74:	94bfffc4 	addi	r18,r18,-1
  802b78:	103ff71e 	bne	r2,zero,802b58 <_gcvt+0x19c>
  802b7c:	01000a0e 	bge	zero,r4,802ba8 <_gcvt+0x1ec>
  802b80:	0480090e 	bge	zero,r18,802ba8 <_gcvt+0x1ec>
  802b84:	00800c04 	movi	r2,48
  802b88:	00000106 	br	802b90 <_gcvt+0x1d4>
  802b8c:	90000526 	beq	r18,zero,802ba4 <_gcvt+0x1e8>
  802b90:	213fffc4 	addi	r4,r4,-1
  802b94:	18800005 	stb	r2,0(r3)
  802b98:	94bfffc4 	addi	r18,r18,-1
  802b9c:	18c00044 	addi	r3,r3,1
  802ba0:	013ffa16 	blt	zero,r4,802b8c <_gcvt+0x1d0>
  802ba4:	d9000415 	stw	r4,16(sp)
  802ba8:	b000021e 	bne	r22,zero,802bb4 <_gcvt+0x1f8>
  802bac:	28800007 	ldb	r2,0(r5)
  802bb0:	10002526 	beq	r2,zero,802c48 <_gcvt+0x28c>
  802bb4:	a8c03126 	beq	r21,r3,802c7c <_gcvt+0x2c0>
  802bb8:	00800b84 	movi	r2,46
  802bbc:	18800005 	stb	r2,0(r3)
  802bc0:	18c00044 	addi	r3,r3,1
  802bc4:	20000b0e 	bge	r4,zero,802bf4 <_gcvt+0x238>
  802bc8:	04800a0e 	bge	zero,r18,802bf4 <_gcvt+0x238>
  802bcc:	01800c04 	movi	r6,48
  802bd0:	00000106 	br	802bd8 <_gcvt+0x21c>
  802bd4:	90000626 	beq	r18,zero,802bf0 <_gcvt+0x234>
  802bd8:	20800044 	addi	r2,r4,1
  802bdc:	19800005 	stb	r6,0(r3)
  802be0:	94bfffc4 	addi	r18,r18,-1
  802be4:	18c00044 	addi	r3,r3,1
  802be8:	1009883a 	mov	r4,r2
  802bec:	103ff916 	blt	r2,zero,802bd4 <_gcvt+0x218>
  802bf0:	d8800415 	stw	r2,16(sp)
  802bf4:	28800003 	ldbu	r2,0(r5)
  802bf8:	10000926 	beq	r2,zero,802c20 <_gcvt+0x264>
  802bfc:	04800216 	blt	zero,r18,802c08 <_gcvt+0x24c>
  802c00:	00000706 	br	802c20 <_gcvt+0x264>
  802c04:	90000626 	beq	r18,zero,802c20 <_gcvt+0x264>
  802c08:	18800005 	stb	r2,0(r3)
  802c0c:	29400044 	addi	r5,r5,1
  802c10:	28800003 	ldbu	r2,0(r5)
  802c14:	94bfffc4 	addi	r18,r18,-1
  802c18:	18c00044 	addi	r3,r3,1
  802c1c:	103ff91e 	bne	r2,zero,802c04 <_gcvt+0x248>
  802c20:	b0000926 	beq	r22,zero,802c48 <_gcvt+0x28c>
  802c24:	0480080e 	bge	zero,r18,802c48 <_gcvt+0x28c>
  802c28:	9009883a 	mov	r4,r18
  802c2c:	1805883a 	mov	r2,r3
  802c30:	01400c04 	movi	r5,48
  802c34:	213fffc4 	addi	r4,r4,-1
  802c38:	11400005 	stb	r5,0(r2)
  802c3c:	10800044 	addi	r2,r2,1
  802c40:	203ffc1e 	bne	r4,zero,802c34 <_gcvt+0x278>
  802c44:	1c87883a 	add	r3,r3,r18
  802c48:	18000005 	stb	zero,0(r3)
  802c4c:	003f7b06 	br	802a3c <_gcvt+0x80>
  802c50:	88e0003c 	xorhi	r3,r17,32768
  802c54:	1823883a 	mov	r17,r3
  802c58:	003f6f06 	br	802a18 <_gcvt+0x5c>
  802c5c:	9809883a 	mov	r4,r19
  802c60:	880d883a 	mov	r6,r17
  802c64:	800b883a 	mov	r5,r16
  802c68:	01c000c4 	movi	r7,3
  802c6c:	003fa906 	br	802b14 <_gcvt+0x158>
  802c70:	a809883a 	mov	r4,r21
  802c74:	0804cac0 	call	804cac <strcpy>
  802c78:	003f7006 	br	802a3c <_gcvt+0x80>
  802c7c:	00800c04 	movi	r2,48
  802c80:	a8c00044 	addi	r3,r21,1
  802c84:	a8800005 	stb	r2,0(r21)
  802c88:	003fcb06 	br	802bb8 <_gcvt+0x1fc>
  802c8c:	a807883a 	mov	r3,r21
  802c90:	003fba06 	br	802b7c <_gcvt+0x1c0>
  802c94:	a807883a 	mov	r3,r21
  802c98:	003fc306 	br	802ba8 <_gcvt+0x1ec>

00802c9c <_dcvt>:
  802c9c:	defff504 	addi	sp,sp,-44
  802ca0:	d8800d17 	ldw	r2,52(sp)
  802ca4:	3011883a 	mov	r8,r6
  802ca8:	dc800915 	stw	r18,36(sp)
  802cac:	10ffeec4 	addi	r3,r2,-69
  802cb0:	12c03fcc 	andi	r11,r2,255
  802cb4:	19803fcc 	andi	r6,r3,255
  802cb8:	5ac0201c 	xori	r11,r11,128
  802cbc:	00c00884 	movi	r3,34
  802cc0:	dc400815 	stw	r17,32(sp)
  802cc4:	dc000715 	stw	r16,28(sp)
  802cc8:	dfc00a15 	stw	ra,40(sp)
  802ccc:	2015883a 	mov	r10,r4
  802cd0:	2823883a 	mov	r17,r5
  802cd4:	3813883a 	mov	r9,r7
  802cd8:	dc000b17 	ldw	r16,44(sp)
  802cdc:	dc800e17 	ldw	r18,56(sp)
  802ce0:	5affe004 	addi	r11,r11,-128
  802ce4:	19803436 	bltu	r3,r6,802db8 <_dcvt+0x11c>
  802ce8:	3185883a 	add	r2,r6,r6
  802cec:	1085883a 	add	r2,r2,r2
  802cf0:	00c02034 	movhi	r3,128
  802cf4:	18cb4104 	addi	r3,r3,11524
  802cf8:	10c5883a 	add	r2,r2,r3
  802cfc:	11000017 	ldw	r4,0(r2)
  802d00:	2000683a 	jmp	r4
  802d04:	00802dd4 	movui	r2,183
  802d08:	00802e08 	cmpgei	r2,zero,184
  802d0c:	00802d90 	cmplti	r2,zero,182
  802d10:	00802db8 	rdprs	r2,zero,182
  802d14:	00802db8 	rdprs	r2,zero,182
  802d18:	00802db8 	rdprs	r2,zero,182
  802d1c:	00802db8 	rdprs	r2,zero,182
  802d20:	00802db8 	rdprs	r2,zero,182
  802d24:	00802db8 	rdprs	r2,zero,182
  802d28:	00802db8 	rdprs	r2,zero,182
  802d2c:	00802db8 	rdprs	r2,zero,182
  802d30:	00802db8 	rdprs	r2,zero,182
  802d34:	00802db8 	rdprs	r2,zero,182
  802d38:	00802db8 	rdprs	r2,zero,182
  802d3c:	00802db8 	rdprs	r2,zero,182
  802d40:	00802db8 	rdprs	r2,zero,182
  802d44:	00802db8 	rdprs	r2,zero,182
  802d48:	00802db8 	rdprs	r2,zero,182
  802d4c:	00802db8 	rdprs	r2,zero,182
  802d50:	00802db8 	rdprs	r2,zero,182
  802d54:	00802db8 	rdprs	r2,zero,182
  802d58:	00802db8 	rdprs	r2,zero,182
  802d5c:	00802db8 	rdprs	r2,zero,182
  802d60:	00802db8 	rdprs	r2,zero,182
  802d64:	00802db8 	rdprs	r2,zero,182
  802d68:	00802db8 	rdprs	r2,zero,182
  802d6c:	00802db8 	rdprs	r2,zero,182
  802d70:	00802db8 	rdprs	r2,zero,182
  802d74:	00802db8 	rdprs	r2,zero,182
  802d78:	00802db8 	rdprs	r2,zero,182
  802d7c:	00802db8 	rdprs	r2,zero,182
  802d80:	00802db8 	rdprs	r2,zero,182
  802d84:	00802dd4 	movui	r2,183
  802d88:	00802e08 	cmpgei	r2,zero,184
  802d8c:	00802d90 	cmplti	r2,zero,182
  802d90:	8000011e 	bne	r16,zero,802d98 <_dcvt+0xfc>
  802d94:	04000044 	movi	r16,1
  802d98:	5009883a 	mov	r4,r10
  802d9c:	480d883a 	mov	r6,r9
  802da0:	800f883a 	mov	r7,r16
  802da4:	400b883a 	mov	r5,r8
  802da8:	dac00115 	stw	r11,4(sp)
  802dac:	dc800215 	stw	r18,8(sp)
  802db0:	dc400015 	stw	r17,0(sp)
  802db4:	08029bc0 	call	8029bc <_gcvt>
  802db8:	8805883a 	mov	r2,r17
  802dbc:	dfc00a17 	ldw	ra,40(sp)
  802dc0:	dc800917 	ldw	r18,36(sp)
  802dc4:	dc400817 	ldw	r17,32(sp)
  802dc8:	dc000717 	ldw	r16,28(sp)
  802dcc:	dec00b04 	addi	sp,sp,44
  802dd0:	f800283a 	ret
  802dd4:	5009883a 	mov	r4,r10
  802dd8:	400d883a 	mov	r6,r8
  802ddc:	dc000015 	stw	r16,0(sp)
  802de0:	dac00115 	stw	r11,4(sp)
  802de4:	dc800215 	stw	r18,8(sp)
  802de8:	08027cc0 	call	8027cc <print_e>
  802dec:	8805883a 	mov	r2,r17
  802df0:	dfc00a17 	ldw	ra,40(sp)
  802df4:	dc800917 	ldw	r18,36(sp)
  802df8:	dc400817 	ldw	r17,32(sp)
  802dfc:	dc000717 	ldw	r16,28(sp)
  802e00:	dec00b04 	addi	sp,sp,44
  802e04:	f800283a 	ret
  802e08:	80000126 	beq	r16,zero,802e10 <_dcvt+0x174>
  802e0c:	04800044 	movi	r18,1
  802e10:	d8800504 	addi	r2,sp,20
  802e14:	d8c00604 	addi	r3,sp,24
  802e18:	400b883a 	mov	r5,r8
  802e1c:	d8800215 	stw	r2,8(sp)
  802e20:	5009883a 	mov	r4,r10
  802e24:	d8800404 	addi	r2,sp,16
  802e28:	480d883a 	mov	r6,r9
  802e2c:	01c000c4 	movi	r7,3
  802e30:	d8c00315 	stw	r3,12(sp)
  802e34:	dc000015 	stw	r16,0(sp)
  802e38:	d8800115 	stw	r2,4(sp)
  802e3c:	08050040 	call	805004 <_dtoa_r>
  802e40:	d9400417 	ldw	r5,16(sp)
  802e44:	1007883a 	mov	r3,r2
  802e48:	0089c3c4 	movi	r2,9999
  802e4c:	28804626 	beq	r5,r2,802f68 <_dcvt+0x2cc>
  802e50:	18800003 	ldbu	r2,0(r3)
  802e54:	10004c26 	beq	r2,zero,802f88 <_dcvt+0x2ec>
  802e58:	0140120e 	bge	zero,r5,802ea4 <_dcvt+0x208>
  802e5c:	8809883a 	mov	r4,r17
  802e60:	180d883a 	mov	r6,r3
  802e64:	00000106 	br	802e6c <_dcvt+0x1d0>
  802e68:	0140100e 	bge	zero,r5,802eac <_dcvt+0x210>
  802e6c:	20800005 	stb	r2,0(r4)
  802e70:	297fffc4 	addi	r5,r5,-1
  802e74:	31800044 	addi	r6,r6,1
  802e78:	d9400415 	stw	r5,16(sp)
  802e7c:	30800003 	ldbu	r2,0(r6)
  802e80:	21000044 	addi	r4,r4,1
  802e84:	103ff81e 	bne	r2,zero,802e68 <_dcvt+0x1cc>
  802e88:	0140080e 	bge	zero,r5,802eac <_dcvt+0x210>
  802e8c:	00800c04 	movi	r2,48
  802e90:	20800005 	stb	r2,0(r4)
  802e94:	297fffc4 	addi	r5,r5,-1
  802e98:	21000044 	addi	r4,r4,1
  802e9c:	d9400415 	stw	r5,16(sp)
  802ea0:	003ff906 	br	802e88 <_dcvt+0x1ec>
  802ea4:	8809883a 	mov	r4,r17
  802ea8:	180d883a 	mov	r6,r3
  802eac:	9000021e 	bne	r18,zero,802eb8 <_dcvt+0x21c>
  802eb0:	30800007 	ldb	r2,0(r6)
  802eb4:	10002426 	beq	r2,zero,802f48 <_dcvt+0x2ac>
  802eb8:	19802f26 	beq	r3,r6,802f78 <_dcvt+0x2dc>
  802ebc:	00800b84 	movi	r2,46
  802ec0:	20800005 	stb	r2,0(r4)
  802ec4:	21000044 	addi	r4,r4,1
  802ec8:	28000b0e 	bge	r5,zero,802ef8 <_dcvt+0x25c>
  802ecc:	04000216 	blt	zero,r16,802ed8 <_dcvt+0x23c>
  802ed0:	00000906 	br	802ef8 <_dcvt+0x25c>
  802ed4:	80000826 	beq	r16,zero,802ef8 <_dcvt+0x25c>
  802ed8:	00800c04 	movi	r2,48
  802edc:	28c00044 	addi	r3,r5,1
  802ee0:	20800005 	stb	r2,0(r4)
  802ee4:	d8c00415 	stw	r3,16(sp)
  802ee8:	21000044 	addi	r4,r4,1
  802eec:	843fffc4 	addi	r16,r16,-1
  802ef0:	180b883a 	mov	r5,r3
  802ef4:	183ff716 	blt	r3,zero,802ed4 <_dcvt+0x238>
  802ef8:	30800003 	ldbu	r2,0(r6)
  802efc:	10000926 	beq	r2,zero,802f24 <_dcvt+0x288>
  802f00:	04000216 	blt	zero,r16,802f0c <_dcvt+0x270>
  802f04:	00001006 	br	802f48 <_dcvt+0x2ac>
  802f08:	80000f26 	beq	r16,zero,802f48 <_dcvt+0x2ac>
  802f0c:	20800005 	stb	r2,0(r4)
  802f10:	31800044 	addi	r6,r6,1
  802f14:	30800003 	ldbu	r2,0(r6)
  802f18:	21000044 	addi	r4,r4,1
  802f1c:	843fffc4 	addi	r16,r16,-1
  802f20:	103ff91e 	bne	r2,zero,802f08 <_dcvt+0x26c>
  802f24:	0400080e 	bge	zero,r16,802f48 <_dcvt+0x2ac>
  802f28:	2007883a 	mov	r3,r4
  802f2c:	8005883a 	mov	r2,r16
  802f30:	01400c04 	movi	r5,48
  802f34:	10bfffc4 	addi	r2,r2,-1
  802f38:	19400005 	stb	r5,0(r3)
  802f3c:	18c00044 	addi	r3,r3,1
  802f40:	103ffc1e 	bne	r2,zero,802f34 <_dcvt+0x298>
  802f44:	2409883a 	add	r4,r4,r16
  802f48:	8805883a 	mov	r2,r17
  802f4c:	20000005 	stb	zero,0(r4)
  802f50:	dfc00a17 	ldw	ra,40(sp)
  802f54:	dc800917 	ldw	r18,36(sp)
  802f58:	dc400817 	ldw	r17,32(sp)
  802f5c:	dc000717 	ldw	r16,28(sp)
  802f60:	dec00b04 	addi	sp,sp,44
  802f64:	f800283a 	ret
  802f68:	180b883a 	mov	r5,r3
  802f6c:	8809883a 	mov	r4,r17
  802f70:	0804cac0 	call	804cac <strcpy>
  802f74:	003f9006 	br	802db8 <_dcvt+0x11c>
  802f78:	00800c04 	movi	r2,48
  802f7c:	20800005 	stb	r2,0(r4)
  802f80:	21000044 	addi	r4,r4,1
  802f84:	003fcd06 	br	802ebc <_dcvt+0x220>
  802f88:	8809883a 	mov	r4,r17
  802f8c:	180d883a 	mov	r6,r3
  802f90:	003fbd06 	br	802e88 <_dcvt+0x1ec>

00802f94 <ecvtbuf>:
  802f94:	defff404 	addi	sp,sp,-48
  802f98:	dc800715 	stw	r18,28(sp)
  802f9c:	dc800d17 	ldw	r18,52(sp)
  802fa0:	dd000915 	stw	r20,36(sp)
  802fa4:	dcc00815 	stw	r19,32(sp)
  802fa8:	dc400615 	stw	r17,24(sp)
  802fac:	dc000515 	stw	r16,20(sp)
  802fb0:	dfc00b15 	stw	ra,44(sp)
  802fb4:	dd400a15 	stw	r21,40(sp)
  802fb8:	2021883a 	mov	r16,r4
  802fbc:	2823883a 	mov	r17,r5
  802fc0:	3027883a 	mov	r19,r6
  802fc4:	3829883a 	mov	r20,r7
  802fc8:	90002d26 	beq	r18,zero,803080 <ecvtbuf+0xec>
  802fcc:	05402074 	movhi	r21,129
  802fd0:	ad696c04 	addi	r21,r21,-23120
  802fd4:	d8800c17 	ldw	r2,48(sp)
  802fd8:	a9000017 	ldw	r4,0(r21)
  802fdc:	880d883a 	mov	r6,r17
  802fe0:	d8800215 	stw	r2,8(sp)
  802fe4:	800b883a 	mov	r5,r16
  802fe8:	d8800404 	addi	r2,sp,16
  802fec:	01c00084 	movi	r7,2
  802ff0:	dd000115 	stw	r20,4(sp)
  802ff4:	dcc00015 	stw	r19,0(sp)
  802ff8:	d8800315 	stw	r2,12(sp)
  802ffc:	08050040 	call	805004 <_dtoa_r>
  803000:	1007883a 	mov	r3,r2
  803004:	d8800417 	ldw	r2,16(sp)
  803008:	1880252e 	bgeu	r3,r2,8030a0 <ecvtbuf+0x10c>
  80300c:	900d883a 	mov	r6,r18
  803010:	0009883a 	mov	r4,zero
  803014:	18800003 	ldbu	r2,0(r3)
  803018:	18c00044 	addi	r3,r3,1
  80301c:	21000044 	addi	r4,r4,1
  803020:	30800005 	stb	r2,0(r6)
  803024:	d8800417 	ldw	r2,16(sp)
  803028:	31800044 	addi	r6,r6,1
  80302c:	18bff936 	bltu	r3,r2,803014 <ecvtbuf+0x80>
  803030:	24c0080e 	bge	r4,r19,803054 <ecvtbuf+0xc0>
  803034:	9905c83a 	sub	r2,r19,r4
  803038:	3007883a 	mov	r3,r6
  80303c:	1185883a 	add	r2,r2,r6
  803040:	01000c04 	movi	r4,48
  803044:	19000005 	stb	r4,0(r3)
  803048:	18c00044 	addi	r3,r3,1
  80304c:	10fffd1e 	bne	r2,r3,803044 <ecvtbuf+0xb0>
  803050:	100d883a 	mov	r6,r2
  803054:	30000005 	stb	zero,0(r6)
  803058:	9005883a 	mov	r2,r18
  80305c:	dfc00b17 	ldw	ra,44(sp)
  803060:	dd400a17 	ldw	r21,40(sp)
  803064:	dd000917 	ldw	r20,36(sp)
  803068:	dcc00817 	ldw	r19,32(sp)
  80306c:	dc800717 	ldw	r18,28(sp)
  803070:	dc400617 	ldw	r17,24(sp)
  803074:	dc000517 	ldw	r16,20(sp)
  803078:	dec00c04 	addi	sp,sp,48
  80307c:	f800283a 	ret
  803080:	05402074 	movhi	r21,129
  803084:	ad696c04 	addi	r21,r21,-23120
  803088:	a9000017 	ldw	r4,0(r21)
  80308c:	20801417 	ldw	r2,80(r4)
  803090:	3080060e 	bge	r6,r2,8030ac <ecvtbuf+0x118>
  803094:	a8800017 	ldw	r2,0(r21)
  803098:	14801517 	ldw	r18,84(r2)
  80309c:	003fcd06 	br	802fd4 <ecvtbuf+0x40>
  8030a0:	900d883a 	mov	r6,r18
  8030a4:	0009883a 	mov	r4,zero
  8030a8:	003fe106 	br	803030 <ecvtbuf+0x9c>
  8030ac:	21401517 	ldw	r5,84(r4)
  8030b0:	34800044 	addi	r18,r6,1
  8030b4:	900d883a 	mov	r6,r18
  8030b8:	08046b80 	call	8046b8 <_realloc_r>
  8030bc:	1007883a 	mov	r3,r2
  8030c0:	10000426 	beq	r2,zero,8030d4 <ecvtbuf+0x140>
  8030c4:	a8800017 	ldw	r2,0(r21)
  8030c8:	10c01515 	stw	r3,84(r2)
  8030cc:	14801415 	stw	r18,80(r2)
  8030d0:	003ff006 	br	803094 <ecvtbuf+0x100>
  8030d4:	0005883a 	mov	r2,zero
  8030d8:	003fe006 	br	80305c <ecvtbuf+0xc8>

008030dc <fcvtbuf>:
  8030dc:	defff304 	addi	sp,sp,-52
  8030e0:	dc800715 	stw	r18,28(sp)
  8030e4:	dc800e17 	ldw	r18,56(sp)
  8030e8:	dd800b15 	stw	r22,44(sp)
  8030ec:	dd000915 	stw	r20,36(sp)
  8030f0:	dcc00815 	stw	r19,32(sp)
  8030f4:	dc400615 	stw	r17,24(sp)
  8030f8:	dc000515 	stw	r16,20(sp)
  8030fc:	dfc00c15 	stw	ra,48(sp)
  803100:	dd400a15 	stw	r21,40(sp)
  803104:	2021883a 	mov	r16,r4
  803108:	2823883a 	mov	r17,r5
  80310c:	3027883a 	mov	r19,r6
  803110:	3829883a 	mov	r20,r7
  803114:	dd800d17 	ldw	r22,52(sp)
  803118:	90004326 	beq	r18,zero,803228 <fcvtbuf+0x14c>
  80311c:	05402074 	movhi	r21,129
  803120:	ad696c04 	addi	r21,r21,-23120
  803124:	0005883a 	mov	r2,zero
  803128:	00cffc34 	movhi	r3,16368
  80312c:	180f883a 	mov	r7,r3
  803130:	8009883a 	mov	r4,r16
  803134:	880b883a 	mov	r5,r17
  803138:	100d883a 	mov	r6,r2
  80313c:	0806dac0 	call	806dac <__ltdf2>
  803140:	1000080e 	bge	r2,zero,803164 <fcvtbuf+0x88>
  803144:	0005883a 	mov	r2,zero
  803148:	00effc34 	movhi	r3,49136
  80314c:	180f883a 	mov	r7,r3
  803150:	8009883a 	mov	r4,r16
  803154:	880b883a 	mov	r5,r17
  803158:	100d883a 	mov	r6,r2
  80315c:	0806c9c0 	call	806c9c <__gtdf2>
  803160:	00802c16 	blt	zero,r2,803214 <fcvtbuf+0x138>
  803164:	a9000017 	ldw	r4,0(r21)
  803168:	880d883a 	mov	r6,r17
  80316c:	800b883a 	mov	r5,r16
  803170:	01c000c4 	movi	r7,3
  803174:	d8800404 	addi	r2,sp,16
  803178:	dd800215 	stw	r22,8(sp)
  80317c:	dcc00015 	stw	r19,0(sp)
  803180:	dd000115 	stw	r20,4(sp)
  803184:	d8800315 	stw	r2,12(sp)
  803188:	08050040 	call	805004 <_dtoa_r>
  80318c:	1009883a 	mov	r4,r2
  803190:	d8c00417 	ldw	r3,16(sp)
  803194:	a0800017 	ldw	r2,0(r20)
  803198:	008dc83a 	sub	r6,zero,r2
  80319c:	20c02b2e 	bgeu	r4,r3,80324c <fcvtbuf+0x170>
  8031a0:	9007883a 	mov	r3,r18
  8031a4:	20800003 	ldbu	r2,0(r4)
  8031a8:	21000044 	addi	r4,r4,1
  8031ac:	31800044 	addi	r6,r6,1
  8031b0:	18800005 	stb	r2,0(r3)
  8031b4:	d8800417 	ldw	r2,16(sp)
  8031b8:	18c00044 	addi	r3,r3,1
  8031bc:	20bff936 	bltu	r4,r2,8031a4 <fcvtbuf+0xc8>
  8031c0:	34c0080e 	bge	r6,r19,8031e4 <fcvtbuf+0x108>
  8031c4:	9985c83a 	sub	r2,r19,r6
  8031c8:	1809883a 	mov	r4,r3
  8031cc:	10c5883a 	add	r2,r2,r3
  8031d0:	00c00c04 	movi	r3,48
  8031d4:	20c00005 	stb	r3,0(r4)
  8031d8:	21000044 	addi	r4,r4,1
  8031dc:	113ffd1e 	bne	r2,r4,8031d4 <fcvtbuf+0xf8>
  8031e0:	1007883a 	mov	r3,r2
  8031e4:	18000005 	stb	zero,0(r3)
  8031e8:	9005883a 	mov	r2,r18
  8031ec:	dfc00c17 	ldw	ra,48(sp)
  8031f0:	dd800b17 	ldw	r22,44(sp)
  8031f4:	dd400a17 	ldw	r21,40(sp)
  8031f8:	dd000917 	ldw	r20,36(sp)
  8031fc:	dcc00817 	ldw	r19,32(sp)
  803200:	dc800717 	ldw	r18,28(sp)
  803204:	dc400617 	ldw	r17,24(sp)
  803208:	dc000517 	ldw	r16,20(sp)
  80320c:	dec00d04 	addi	sp,sp,52
  803210:	f800283a 	ret
  803214:	a9000017 	ldw	r4,0(r21)
  803218:	880d883a 	mov	r6,r17
  80321c:	800b883a 	mov	r5,r16
  803220:	01c00084 	movi	r7,2
  803224:	003fd306 	br	803174 <fcvtbuf+0x98>
  803228:	05402074 	movhi	r21,129
  80322c:	ad696c04 	addi	r21,r21,-23120
  803230:	a9000017 	ldw	r4,0(r21)
  803234:	30c008c4 	addi	r3,r6,35
  803238:	20801417 	ldw	r2,80(r4)
  80323c:	1880050e 	bge	r3,r2,803254 <fcvtbuf+0x178>
  803240:	a8800017 	ldw	r2,0(r21)
  803244:	14801517 	ldw	r18,84(r2)
  803248:	003fb606 	br	803124 <fcvtbuf+0x48>
  80324c:	9007883a 	mov	r3,r18
  803250:	003fdb06 	br	8031c0 <fcvtbuf+0xe4>
  803254:	21401517 	ldw	r5,84(r4)
  803258:	34800904 	addi	r18,r6,36
  80325c:	900d883a 	mov	r6,r18
  803260:	08046b80 	call	8046b8 <_realloc_r>
  803264:	1007883a 	mov	r3,r2
  803268:	10000426 	beq	r2,zero,80327c <fcvtbuf+0x1a0>
  80326c:	a8800017 	ldw	r2,0(r21)
  803270:	10c01515 	stw	r3,84(r2)
  803274:	14801415 	stw	r18,80(r2)
  803278:	003ff106 	br	803240 <fcvtbuf+0x164>
  80327c:	0005883a 	mov	r2,zero
  803280:	003fda06 	br	8031ec <fcvtbuf+0x110>

00803284 <_malloc_trim_r>:
  803284:	defffb04 	addi	sp,sp,-20
  803288:	dcc00315 	stw	r19,12(sp)
  80328c:	04c02074 	movhi	r19,129
  803290:	9ce7f504 	addi	r19,r19,-24620
  803294:	dc800215 	stw	r18,8(sp)
  803298:	dc400115 	stw	r17,4(sp)
  80329c:	dc000015 	stw	r16,0(sp)
  8032a0:	2823883a 	mov	r17,r5
  8032a4:	2025883a 	mov	r18,r4
  8032a8:	dfc00415 	stw	ra,16(sp)
  8032ac:	08072ac0 	call	8072ac <__malloc_lock>
  8032b0:	98800217 	ldw	r2,8(r19)
  8032b4:	9009883a 	mov	r4,r18
  8032b8:	000b883a 	mov	r5,zero
  8032bc:	10c00117 	ldw	r3,4(r2)
  8032c0:	00bfff04 	movi	r2,-4
  8032c4:	18a0703a 	and	r16,r3,r2
  8032c8:	8463c83a 	sub	r17,r16,r17
  8032cc:	8c43fbc4 	addi	r17,r17,4079
  8032d0:	8822d33a 	srli	r17,r17,12
  8032d4:	0083ffc4 	movi	r2,4095
  8032d8:	8c7fffc4 	addi	r17,r17,-1
  8032dc:	8822933a 	slli	r17,r17,12
  8032e0:	1440060e 	bge	r2,r17,8032fc <_malloc_trim_r+0x78>
  8032e4:	080275c0 	call	80275c <_sbrk_r>
  8032e8:	98c00217 	ldw	r3,8(r19)
  8032ec:	9009883a 	mov	r4,r18
  8032f0:	044bc83a 	sub	r5,zero,r17
  8032f4:	80c7883a 	add	r3,r16,r3
  8032f8:	10c00926 	beq	r2,r3,803320 <_malloc_trim_r+0x9c>
  8032fc:	08072b00 	call	8072b0 <__malloc_unlock>
  803300:	0005883a 	mov	r2,zero
  803304:	dfc00417 	ldw	ra,16(sp)
  803308:	dcc00317 	ldw	r19,12(sp)
  80330c:	dc800217 	ldw	r18,8(sp)
  803310:	dc400117 	ldw	r17,4(sp)
  803314:	dc000017 	ldw	r16,0(sp)
  803318:	dec00504 	addi	sp,sp,20
  80331c:	f800283a 	ret
  803320:	9009883a 	mov	r4,r18
  803324:	080275c0 	call	80275c <_sbrk_r>
  803328:	844dc83a 	sub	r6,r16,r17
  80332c:	00ffffc4 	movi	r3,-1
  803330:	9009883a 	mov	r4,r18
  803334:	000b883a 	mov	r5,zero
  803338:	01c02074 	movhi	r7,129
  80333c:	39ec0904 	addi	r7,r7,-20444
  803340:	31800054 	ori	r6,r6,1
  803344:	10c00926 	beq	r2,r3,80336c <_malloc_trim_r+0xe8>
  803348:	38800017 	ldw	r2,0(r7)
  80334c:	98c00217 	ldw	r3,8(r19)
  803350:	9009883a 	mov	r4,r18
  803354:	1445c83a 	sub	r2,r2,r17
  803358:	38800015 	stw	r2,0(r7)
  80335c:	19800115 	stw	r6,4(r3)
  803360:	08072b00 	call	8072b0 <__malloc_unlock>
  803364:	00800044 	movi	r2,1
  803368:	003fe606 	br	803304 <_malloc_trim_r+0x80>
  80336c:	080275c0 	call	80275c <_sbrk_r>
  803370:	99800217 	ldw	r6,8(r19)
  803374:	100f883a 	mov	r7,r2
  803378:	9009883a 	mov	r4,r18
  80337c:	1187c83a 	sub	r3,r2,r6
  803380:	008003c4 	movi	r2,15
  803384:	19400054 	ori	r5,r3,1
  803388:	10ffdc0e 	bge	r2,r3,8032fc <_malloc_trim_r+0x78>
  80338c:	00802074 	movhi	r2,129
  803390:	10a96f04 	addi	r2,r2,-23108
  803394:	10c00017 	ldw	r3,0(r2)
  803398:	00802074 	movhi	r2,129
  80339c:	10ac0904 	addi	r2,r2,-20444
  8033a0:	31400115 	stw	r5,4(r6)
  8033a4:	38c7c83a 	sub	r3,r7,r3
  8033a8:	10c00015 	stw	r3,0(r2)
  8033ac:	003fd306 	br	8032fc <_malloc_trim_r+0x78>

008033b0 <_free_r>:
  8033b0:	defffd04 	addi	sp,sp,-12
  8033b4:	dc400115 	stw	r17,4(sp)
  8033b8:	dc000015 	stw	r16,0(sp)
  8033bc:	dfc00215 	stw	ra,8(sp)
  8033c0:	2821883a 	mov	r16,r5
  8033c4:	2023883a 	mov	r17,r4
  8033c8:	28005a26 	beq	r5,zero,803534 <_free_r+0x184>
  8033cc:	08072ac0 	call	8072ac <__malloc_lock>
  8033d0:	823ffe04 	addi	r8,r16,-8
  8033d4:	41400117 	ldw	r5,4(r8)
  8033d8:	00bfff84 	movi	r2,-2
  8033dc:	02802074 	movhi	r10,129
  8033e0:	52a7f504 	addi	r10,r10,-24620
  8033e4:	288e703a 	and	r7,r5,r2
  8033e8:	41cd883a 	add	r6,r8,r7
  8033ec:	30c00117 	ldw	r3,4(r6)
  8033f0:	51000217 	ldw	r4,8(r10)
  8033f4:	00bfff04 	movi	r2,-4
  8033f8:	1892703a 	and	r9,r3,r2
  8033fc:	5017883a 	mov	r11,r10
  803400:	31006726 	beq	r6,r4,8035a0 <_free_r+0x1f0>
  803404:	2880004c 	andi	r2,r5,1
  803408:	1005003a 	cmpeq	r2,r2,zero
  80340c:	32400115 	stw	r9,4(r6)
  803410:	10001a1e 	bne	r2,zero,80347c <_free_r+0xcc>
  803414:	000b883a 	mov	r5,zero
  803418:	3247883a 	add	r3,r6,r9
  80341c:	18800117 	ldw	r2,4(r3)
  803420:	1080004c 	andi	r2,r2,1
  803424:	1000231e 	bne	r2,zero,8034b4 <_free_r+0x104>
  803428:	280ac03a 	cmpne	r5,r5,zero
  80342c:	3a4f883a 	add	r7,r7,r9
  803430:	2800451e 	bne	r5,zero,803548 <_free_r+0x198>
  803434:	31000217 	ldw	r4,8(r6)
  803438:	00802074 	movhi	r2,129
  80343c:	10a7f704 	addi	r2,r2,-24612
  803440:	20807b26 	beq	r4,r2,803630 <_free_r+0x280>
  803444:	30800317 	ldw	r2,12(r6)
  803448:	3a07883a 	add	r3,r7,r8
  80344c:	19c00015 	stw	r7,0(r3)
  803450:	11000215 	stw	r4,8(r2)
  803454:	20800315 	stw	r2,12(r4)
  803458:	38800054 	ori	r2,r7,1
  80345c:	40800115 	stw	r2,4(r8)
  803460:	28001a26 	beq	r5,zero,8034cc <_free_r+0x11c>
  803464:	8809883a 	mov	r4,r17
  803468:	dfc00217 	ldw	ra,8(sp)
  80346c:	dc400117 	ldw	r17,4(sp)
  803470:	dc000017 	ldw	r16,0(sp)
  803474:	dec00304 	addi	sp,sp,12
  803478:	08072b01 	jmpi	8072b0 <__malloc_unlock>
  80347c:	80bffe17 	ldw	r2,-8(r16)
  803480:	50c00204 	addi	r3,r10,8
  803484:	4091c83a 	sub	r8,r8,r2
  803488:	41000217 	ldw	r4,8(r8)
  80348c:	388f883a 	add	r7,r7,r2
  803490:	20c06126 	beq	r4,r3,803618 <_free_r+0x268>
  803494:	40800317 	ldw	r2,12(r8)
  803498:	3247883a 	add	r3,r6,r9
  80349c:	000b883a 	mov	r5,zero
  8034a0:	11000215 	stw	r4,8(r2)
  8034a4:	20800315 	stw	r2,12(r4)
  8034a8:	18800117 	ldw	r2,4(r3)
  8034ac:	1080004c 	andi	r2,r2,1
  8034b0:	103fdd26 	beq	r2,zero,803428 <_free_r+0x78>
  8034b4:	38800054 	ori	r2,r7,1
  8034b8:	3a07883a 	add	r3,r7,r8
  8034bc:	280ac03a 	cmpne	r5,r5,zero
  8034c0:	40800115 	stw	r2,4(r8)
  8034c4:	19c00015 	stw	r7,0(r3)
  8034c8:	283fe61e 	bne	r5,zero,803464 <_free_r+0xb4>
  8034cc:	00807fc4 	movi	r2,511
  8034d0:	11c01f2e 	bgeu	r2,r7,803550 <_free_r+0x1a0>
  8034d4:	3806d27a 	srli	r3,r7,9
  8034d8:	1800481e 	bne	r3,zero,8035fc <_free_r+0x24c>
  8034dc:	3804d0fa 	srli	r2,r7,3
  8034e0:	100690fa 	slli	r3,r2,3
  8034e4:	1acd883a 	add	r6,r3,r11
  8034e8:	31400217 	ldw	r5,8(r6)
  8034ec:	31405926 	beq	r6,r5,803654 <_free_r+0x2a4>
  8034f0:	28800117 	ldw	r2,4(r5)
  8034f4:	00ffff04 	movi	r3,-4
  8034f8:	10c4703a 	and	r2,r2,r3
  8034fc:	3880022e 	bgeu	r7,r2,803508 <_free_r+0x158>
  803500:	29400217 	ldw	r5,8(r5)
  803504:	317ffa1e 	bne	r6,r5,8034f0 <_free_r+0x140>
  803508:	29800317 	ldw	r6,12(r5)
  80350c:	41800315 	stw	r6,12(r8)
  803510:	41400215 	stw	r5,8(r8)
  803514:	8809883a 	mov	r4,r17
  803518:	2a000315 	stw	r8,12(r5)
  80351c:	32000215 	stw	r8,8(r6)
  803520:	dfc00217 	ldw	ra,8(sp)
  803524:	dc400117 	ldw	r17,4(sp)
  803528:	dc000017 	ldw	r16,0(sp)
  80352c:	dec00304 	addi	sp,sp,12
  803530:	08072b01 	jmpi	8072b0 <__malloc_unlock>
  803534:	dfc00217 	ldw	ra,8(sp)
  803538:	dc400117 	ldw	r17,4(sp)
  80353c:	dc000017 	ldw	r16,0(sp)
  803540:	dec00304 	addi	sp,sp,12
  803544:	f800283a 	ret
  803548:	31000217 	ldw	r4,8(r6)
  80354c:	003fbd06 	br	803444 <_free_r+0x94>
  803550:	3806d0fa 	srli	r3,r7,3
  803554:	00800044 	movi	r2,1
  803558:	51400117 	ldw	r5,4(r10)
  80355c:	180890fa 	slli	r4,r3,3
  803560:	1807d0ba 	srai	r3,r3,2
  803564:	22c9883a 	add	r4,r4,r11
  803568:	21800217 	ldw	r6,8(r4)
  80356c:	10c4983a 	sll	r2,r2,r3
  803570:	41000315 	stw	r4,12(r8)
  803574:	41800215 	stw	r6,8(r8)
  803578:	288ab03a 	or	r5,r5,r2
  80357c:	22000215 	stw	r8,8(r4)
  803580:	8809883a 	mov	r4,r17
  803584:	51400115 	stw	r5,4(r10)
  803588:	32000315 	stw	r8,12(r6)
  80358c:	dfc00217 	ldw	ra,8(sp)
  803590:	dc400117 	ldw	r17,4(sp)
  803594:	dc000017 	ldw	r16,0(sp)
  803598:	dec00304 	addi	sp,sp,12
  80359c:	08072b01 	jmpi	8072b0 <__malloc_unlock>
  8035a0:	2880004c 	andi	r2,r5,1
  8035a4:	3a4d883a 	add	r6,r7,r9
  8035a8:	1000071e 	bne	r2,zero,8035c8 <_free_r+0x218>
  8035ac:	80bffe17 	ldw	r2,-8(r16)
  8035b0:	4091c83a 	sub	r8,r8,r2
  8035b4:	41000317 	ldw	r4,12(r8)
  8035b8:	40c00217 	ldw	r3,8(r8)
  8035bc:	308d883a 	add	r6,r6,r2
  8035c0:	20c00215 	stw	r3,8(r4)
  8035c4:	19000315 	stw	r4,12(r3)
  8035c8:	00802074 	movhi	r2,129
  8035cc:	10a96e04 	addi	r2,r2,-23112
  8035d0:	11000017 	ldw	r4,0(r2)
  8035d4:	30c00054 	ori	r3,r6,1
  8035d8:	52000215 	stw	r8,8(r10)
  8035dc:	40c00115 	stw	r3,4(r8)
  8035e0:	313fa036 	bltu	r6,r4,803464 <_free_r+0xb4>
  8035e4:	00802074 	movhi	r2,129
  8035e8:	10abff04 	addi	r2,r2,-20484
  8035ec:	11400017 	ldw	r5,0(r2)
  8035f0:	8809883a 	mov	r4,r17
  8035f4:	08032840 	call	803284 <_malloc_trim_r>
  8035f8:	003f9a06 	br	803464 <_free_r+0xb4>
  8035fc:	00800104 	movi	r2,4
  803600:	10c0072e 	bgeu	r2,r3,803620 <_free_r+0x270>
  803604:	00800504 	movi	r2,20
  803608:	10c01936 	bltu	r2,r3,803670 <_free_r+0x2c0>
  80360c:	188016c4 	addi	r2,r3,91
  803610:	100690fa 	slli	r3,r2,3
  803614:	003fb306 	br	8034e4 <_free_r+0x134>
  803618:	01400044 	movi	r5,1
  80361c:	003f7e06 	br	803418 <_free_r+0x68>
  803620:	3804d1ba 	srli	r2,r7,6
  803624:	10800e04 	addi	r2,r2,56
  803628:	100690fa 	slli	r3,r2,3
  80362c:	003fad06 	br	8034e4 <_free_r+0x134>
  803630:	22000315 	stw	r8,12(r4)
  803634:	22000215 	stw	r8,8(r4)
  803638:	3a05883a 	add	r2,r7,r8
  80363c:	38c00054 	ori	r3,r7,1
  803640:	11c00015 	stw	r7,0(r2)
  803644:	41000215 	stw	r4,8(r8)
  803648:	40c00115 	stw	r3,4(r8)
  80364c:	41000315 	stw	r4,12(r8)
  803650:	003f8406 	br	803464 <_free_r+0xb4>
  803654:	1005d0ba 	srai	r2,r2,2
  803658:	00c00044 	movi	r3,1
  80365c:	51000117 	ldw	r4,4(r10)
  803660:	1886983a 	sll	r3,r3,r2
  803664:	20c8b03a 	or	r4,r4,r3
  803668:	51000115 	stw	r4,4(r10)
  80366c:	003fa706 	br	80350c <_free_r+0x15c>
  803670:	00801504 	movi	r2,84
  803674:	10c00436 	bltu	r2,r3,803688 <_free_r+0x2d8>
  803678:	3804d33a 	srli	r2,r7,12
  80367c:	10801b84 	addi	r2,r2,110
  803680:	100690fa 	slli	r3,r2,3
  803684:	003f9706 	br	8034e4 <_free_r+0x134>
  803688:	00805504 	movi	r2,340
  80368c:	10c00436 	bltu	r2,r3,8036a0 <_free_r+0x2f0>
  803690:	3804d3fa 	srli	r2,r7,15
  803694:	10801dc4 	addi	r2,r2,119
  803698:	100690fa 	slli	r3,r2,3
  80369c:	003f9106 	br	8034e4 <_free_r+0x134>
  8036a0:	00815504 	movi	r2,1364
  8036a4:	10c0032e 	bgeu	r2,r3,8036b4 <_free_r+0x304>
  8036a8:	00801f84 	movi	r2,126
  8036ac:	00c0fc04 	movi	r3,1008
  8036b0:	003f8c06 	br	8034e4 <_free_r+0x134>
  8036b4:	3804d4ba 	srli	r2,r7,18
  8036b8:	10801f04 	addi	r2,r2,124
  8036bc:	100690fa 	slli	r3,r2,3
  8036c0:	003f8806 	br	8034e4 <_free_r+0x134>

008036c4 <_Bfree>:
  8036c4:	28000826 	beq	r5,zero,8036e8 <_Bfree+0x24>
  8036c8:	28800117 	ldw	r2,4(r5)
  8036cc:	21001317 	ldw	r4,76(r4)
  8036d0:	1085883a 	add	r2,r2,r2
  8036d4:	1085883a 	add	r2,r2,r2
  8036d8:	1105883a 	add	r2,r2,r4
  8036dc:	10c00017 	ldw	r3,0(r2)
  8036e0:	28c00015 	stw	r3,0(r5)
  8036e4:	11400015 	stw	r5,0(r2)
  8036e8:	f800283a 	ret

008036ec <__hi0bits>:
  8036ec:	20bfffec 	andhi	r2,r4,65535
  8036f0:	10001426 	beq	r2,zero,803744 <__hi0bits+0x58>
  8036f4:	0007883a 	mov	r3,zero
  8036f8:	20bfc02c 	andhi	r2,r4,65280
  8036fc:	1000021e 	bne	r2,zero,803708 <__hi0bits+0x1c>
  803700:	2008923a 	slli	r4,r4,8
  803704:	18c00204 	addi	r3,r3,8
  803708:	20bc002c 	andhi	r2,r4,61440
  80370c:	1000021e 	bne	r2,zero,803718 <__hi0bits+0x2c>
  803710:	2008913a 	slli	r4,r4,4
  803714:	18c00104 	addi	r3,r3,4
  803718:	20b0002c 	andhi	r2,r4,49152
  80371c:	1000031e 	bne	r2,zero,80372c <__hi0bits+0x40>
  803720:	2105883a 	add	r2,r4,r4
  803724:	18c00084 	addi	r3,r3,2
  803728:	1089883a 	add	r4,r2,r2
  80372c:	20000316 	blt	r4,zero,80373c <__hi0bits+0x50>
  803730:	2090002c 	andhi	r2,r4,16384
  803734:	10000626 	beq	r2,zero,803750 <__hi0bits+0x64>
  803738:	18c00044 	addi	r3,r3,1
  80373c:	1805883a 	mov	r2,r3
  803740:	f800283a 	ret
  803744:	2008943a 	slli	r4,r4,16
  803748:	00c00404 	movi	r3,16
  80374c:	003fea06 	br	8036f8 <__hi0bits+0xc>
  803750:	00c00804 	movi	r3,32
  803754:	1805883a 	mov	r2,r3
  803758:	f800283a 	ret

0080375c <__lo0bits>:
  80375c:	20c00017 	ldw	r3,0(r4)
  803760:	188001cc 	andi	r2,r3,7
  803764:	10000a26 	beq	r2,zero,803790 <__lo0bits+0x34>
  803768:	1880004c 	andi	r2,r3,1
  80376c:	1005003a 	cmpeq	r2,r2,zero
  803770:	10002126 	beq	r2,zero,8037f8 <__lo0bits+0x9c>
  803774:	1880008c 	andi	r2,r3,2
  803778:	1000251e 	bne	r2,zero,803810 <__lo0bits+0xb4>
  80377c:	1804d0ba 	srli	r2,r3,2
  803780:	01400084 	movi	r5,2
  803784:	20800015 	stw	r2,0(r4)
  803788:	2805883a 	mov	r2,r5
  80378c:	f800283a 	ret
  803790:	18bfffcc 	andi	r2,r3,65535
  803794:	10001526 	beq	r2,zero,8037ec <__lo0bits+0x90>
  803798:	000b883a 	mov	r5,zero
  80379c:	18803fcc 	andi	r2,r3,255
  8037a0:	1000021e 	bne	r2,zero,8037ac <__lo0bits+0x50>
  8037a4:	1806d23a 	srli	r3,r3,8
  8037a8:	29400204 	addi	r5,r5,8
  8037ac:	188003cc 	andi	r2,r3,15
  8037b0:	1000021e 	bne	r2,zero,8037bc <__lo0bits+0x60>
  8037b4:	1806d13a 	srli	r3,r3,4
  8037b8:	29400104 	addi	r5,r5,4
  8037bc:	188000cc 	andi	r2,r3,3
  8037c0:	1000021e 	bne	r2,zero,8037cc <__lo0bits+0x70>
  8037c4:	1806d0ba 	srli	r3,r3,2
  8037c8:	29400084 	addi	r5,r5,2
  8037cc:	1880004c 	andi	r2,r3,1
  8037d0:	1000031e 	bne	r2,zero,8037e0 <__lo0bits+0x84>
  8037d4:	1806d07a 	srli	r3,r3,1
  8037d8:	18000a26 	beq	r3,zero,803804 <__lo0bits+0xa8>
  8037dc:	29400044 	addi	r5,r5,1
  8037e0:	2805883a 	mov	r2,r5
  8037e4:	20c00015 	stw	r3,0(r4)
  8037e8:	f800283a 	ret
  8037ec:	1806d43a 	srli	r3,r3,16
  8037f0:	01400404 	movi	r5,16
  8037f4:	003fe906 	br	80379c <__lo0bits+0x40>
  8037f8:	000b883a 	mov	r5,zero
  8037fc:	2805883a 	mov	r2,r5
  803800:	f800283a 	ret
  803804:	01400804 	movi	r5,32
  803808:	2805883a 	mov	r2,r5
  80380c:	f800283a 	ret
  803810:	1804d07a 	srli	r2,r3,1
  803814:	01400044 	movi	r5,1
  803818:	20800015 	stw	r2,0(r4)
  80381c:	003fda06 	br	803788 <__lo0bits+0x2c>

00803820 <__mcmp>:
  803820:	20800417 	ldw	r2,16(r4)
  803824:	28c00417 	ldw	r3,16(r5)
  803828:	10cfc83a 	sub	r7,r2,r3
  80382c:	38000c1e 	bne	r7,zero,803860 <__mcmp+0x40>
  803830:	18c5883a 	add	r2,r3,r3
  803834:	1085883a 	add	r2,r2,r2
  803838:	10c00504 	addi	r3,r2,20
  80383c:	21000504 	addi	r4,r4,20
  803840:	28cb883a 	add	r5,r5,r3
  803844:	2085883a 	add	r2,r4,r2
  803848:	10bfff04 	addi	r2,r2,-4
  80384c:	297fff04 	addi	r5,r5,-4
  803850:	11800017 	ldw	r6,0(r2)
  803854:	28c00017 	ldw	r3,0(r5)
  803858:	30c0031e 	bne	r6,r3,803868 <__mcmp+0x48>
  80385c:	20bffa36 	bltu	r4,r2,803848 <__mcmp+0x28>
  803860:	3805883a 	mov	r2,r7
  803864:	f800283a 	ret
  803868:	30c00336 	bltu	r6,r3,803878 <__mcmp+0x58>
  80386c:	01c00044 	movi	r7,1
  803870:	3805883a 	mov	r2,r7
  803874:	f800283a 	ret
  803878:	01ffffc4 	movi	r7,-1
  80387c:	003ff806 	br	803860 <__mcmp+0x40>

00803880 <__ulp>:
  803880:	295ffc2c 	andhi	r5,r5,32752
  803884:	013f3034 	movhi	r4,64704
  803888:	290b883a 	add	r5,r5,r4
  80388c:	0145c83a 	sub	r2,zero,r5
  803890:	1007d53a 	srai	r3,r2,20
  803894:	000d883a 	mov	r6,zero
  803898:	0140040e 	bge	zero,r5,8038ac <__ulp+0x2c>
  80389c:	280f883a 	mov	r7,r5
  8038a0:	3807883a 	mov	r3,r7
  8038a4:	3005883a 	mov	r2,r6
  8038a8:	f800283a 	ret
  8038ac:	008004c4 	movi	r2,19
  8038b0:	193ffb04 	addi	r4,r3,-20
  8038b4:	10c00c0e 	bge	r2,r3,8038e8 <__ulp+0x68>
  8038b8:	008007c4 	movi	r2,31
  8038bc:	1107c83a 	sub	r3,r2,r4
  8038c0:	00800784 	movi	r2,30
  8038c4:	01400044 	movi	r5,1
  8038c8:	11000216 	blt	r2,r4,8038d4 <__ulp+0x54>
  8038cc:	00800044 	movi	r2,1
  8038d0:	10ca983a 	sll	r5,r2,r3
  8038d4:	000f883a 	mov	r7,zero
  8038d8:	280d883a 	mov	r6,r5
  8038dc:	3807883a 	mov	r3,r7
  8038e0:	3005883a 	mov	r2,r6
  8038e4:	f800283a 	ret
  8038e8:	00800234 	movhi	r2,8
  8038ec:	10cfd83a 	sra	r7,r2,r3
  8038f0:	000d883a 	mov	r6,zero
  8038f4:	3005883a 	mov	r2,r6
  8038f8:	3807883a 	mov	r3,r7
  8038fc:	f800283a 	ret

00803900 <__b2d>:
  803900:	20800417 	ldw	r2,16(r4)
  803904:	defff904 	addi	sp,sp,-28
  803908:	dd000415 	stw	r20,16(sp)
  80390c:	1085883a 	add	r2,r2,r2
  803910:	25000504 	addi	r20,r4,20
  803914:	1085883a 	add	r2,r2,r2
  803918:	dc000015 	stw	r16,0(sp)
  80391c:	a0a1883a 	add	r16,r20,r2
  803920:	dd400515 	stw	r21,20(sp)
  803924:	857fff17 	ldw	r21,-4(r16)
  803928:	dc400115 	stw	r17,4(sp)
  80392c:	dfc00615 	stw	ra,24(sp)
  803930:	a809883a 	mov	r4,r21
  803934:	2823883a 	mov	r17,r5
  803938:	dcc00315 	stw	r19,12(sp)
  80393c:	dc800215 	stw	r18,8(sp)
  803940:	08036ec0 	call	8036ec <__hi0bits>
  803944:	100b883a 	mov	r5,r2
  803948:	00800804 	movi	r2,32
  80394c:	1145c83a 	sub	r2,r2,r5
  803950:	88800015 	stw	r2,0(r17)
  803954:	00800284 	movi	r2,10
  803958:	80ffff04 	addi	r3,r16,-4
  80395c:	11401416 	blt	r2,r5,8039b0 <__b2d+0xb0>
  803960:	008002c4 	movi	r2,11
  803964:	1149c83a 	sub	r4,r2,r5
  803968:	a0c02736 	bltu	r20,r3,803a08 <__b2d+0x108>
  80396c:	000d883a 	mov	r6,zero
  803970:	28800544 	addi	r2,r5,21
  803974:	a906d83a 	srl	r3,r21,r4
  803978:	a884983a 	sll	r2,r21,r2
  80397c:	1ccffc34 	orhi	r19,r3,16368
  803980:	11a4b03a 	or	r18,r2,r6
  803984:	9005883a 	mov	r2,r18
  803988:	9807883a 	mov	r3,r19
  80398c:	dfc00617 	ldw	ra,24(sp)
  803990:	dd400517 	ldw	r21,20(sp)
  803994:	dd000417 	ldw	r20,16(sp)
  803998:	dcc00317 	ldw	r19,12(sp)
  80399c:	dc800217 	ldw	r18,8(sp)
  8039a0:	dc400117 	ldw	r17,4(sp)
  8039a4:	dc000017 	ldw	r16,0(sp)
  8039a8:	dec00704 	addi	sp,sp,28
  8039ac:	f800283a 	ret
  8039b0:	a0c00e36 	bltu	r20,r3,8039ec <__b2d+0xec>
  8039b4:	293ffd44 	addi	r4,r5,-11
  8039b8:	000d883a 	mov	r6,zero
  8039bc:	20000f26 	beq	r4,zero,8039fc <__b2d+0xfc>
  8039c0:	00800804 	movi	r2,32
  8039c4:	110bc83a 	sub	r5,r2,r4
  8039c8:	a0c01236 	bltu	r20,r3,803a14 <__b2d+0x114>
  8039cc:	000f883a 	mov	r7,zero
  8039d0:	a904983a 	sll	r2,r21,r4
  8039d4:	3146d83a 	srl	r3,r6,r5
  8039d8:	3108983a 	sll	r4,r6,r4
  8039dc:	108ffc34 	orhi	r2,r2,16368
  8039e0:	18a6b03a 	or	r19,r3,r2
  8039e4:	3924b03a 	or	r18,r7,r4
  8039e8:	003fe606 	br	803984 <__b2d+0x84>
  8039ec:	293ffd44 	addi	r4,r5,-11
  8039f0:	81bffe17 	ldw	r6,-8(r16)
  8039f4:	80fffe04 	addi	r3,r16,-8
  8039f8:	203ff11e 	bne	r4,zero,8039c0 <__b2d+0xc0>
  8039fc:	accffc34 	orhi	r19,r21,16368
  803a00:	3025883a 	mov	r18,r6
  803a04:	003fdf06 	br	803984 <__b2d+0x84>
  803a08:	18bfff17 	ldw	r2,-4(r3)
  803a0c:	110cd83a 	srl	r6,r2,r4
  803a10:	003fd706 	br	803970 <__b2d+0x70>
  803a14:	18bfff17 	ldw	r2,-4(r3)
  803a18:	114ed83a 	srl	r7,r2,r5
  803a1c:	003fec06 	br	8039d0 <__b2d+0xd0>

00803a20 <__ratio>:
  803a20:	defff904 	addi	sp,sp,-28
  803a24:	dc400215 	stw	r17,8(sp)
  803a28:	2823883a 	mov	r17,r5
  803a2c:	d80b883a 	mov	r5,sp
  803a30:	dfc00615 	stw	ra,24(sp)
  803a34:	dd000515 	stw	r20,20(sp)
  803a38:	dcc00415 	stw	r19,16(sp)
  803a3c:	dc800315 	stw	r18,12(sp)
  803a40:	2025883a 	mov	r18,r4
  803a44:	08039000 	call	803900 <__b2d>
  803a48:	8809883a 	mov	r4,r17
  803a4c:	d9400104 	addi	r5,sp,4
  803a50:	1027883a 	mov	r19,r2
  803a54:	1829883a 	mov	r20,r3
  803a58:	08039000 	call	803900 <__b2d>
  803a5c:	89000417 	ldw	r4,16(r17)
  803a60:	91c00417 	ldw	r7,16(r18)
  803a64:	d9800117 	ldw	r6,4(sp)
  803a68:	180b883a 	mov	r5,r3
  803a6c:	390fc83a 	sub	r7,r7,r4
  803a70:	1009883a 	mov	r4,r2
  803a74:	d8800017 	ldw	r2,0(sp)
  803a78:	380e917a 	slli	r7,r7,5
  803a7c:	2011883a 	mov	r8,r4
  803a80:	1185c83a 	sub	r2,r2,r6
  803a84:	11c5883a 	add	r2,r2,r7
  803a88:	1006953a 	slli	r3,r2,20
  803a8c:	2813883a 	mov	r9,r5
  803a90:	00800d0e 	bge	zero,r2,803ac8 <__ratio+0xa8>
  803a94:	1d29883a 	add	r20,r3,r20
  803a98:	a00b883a 	mov	r5,r20
  803a9c:	480f883a 	mov	r7,r9
  803aa0:	9809883a 	mov	r4,r19
  803aa4:	400d883a 	mov	r6,r8
  803aa8:	08010b40 	call	8010b4 <__divdf3>
  803aac:	dfc00617 	ldw	ra,24(sp)
  803ab0:	dd000517 	ldw	r20,20(sp)
  803ab4:	dcc00417 	ldw	r19,16(sp)
  803ab8:	dc800317 	ldw	r18,12(sp)
  803abc:	dc400217 	ldw	r17,8(sp)
  803ac0:	dec00704 	addi	sp,sp,28
  803ac4:	f800283a 	ret
  803ac8:	28d3c83a 	sub	r9,r5,r3
  803acc:	003ff206 	br	803a98 <__ratio+0x78>

00803ad0 <_mprec_log10>:
  803ad0:	defffe04 	addi	sp,sp,-8
  803ad4:	008005c4 	movi	r2,23
  803ad8:	dc000015 	stw	r16,0(sp)
  803adc:	dfc00115 	stw	ra,4(sp)
  803ae0:	2021883a 	mov	r16,r4
  803ae4:	11000c16 	blt	r2,r4,803b18 <_mprec_log10+0x48>
  803ae8:	200490fa 	slli	r2,r4,3
  803aec:	00c02074 	movhi	r3,129
  803af0:	18e6a004 	addi	r3,r3,-25984
  803af4:	10c5883a 	add	r2,r2,r3
  803af8:	12400117 	ldw	r9,4(r2)
  803afc:	12000017 	ldw	r8,0(r2)
  803b00:	4807883a 	mov	r3,r9
  803b04:	4005883a 	mov	r2,r8
  803b08:	dfc00117 	ldw	ra,4(sp)
  803b0c:	dc000017 	ldw	r16,0(sp)
  803b10:	dec00204 	addi	sp,sp,8
  803b14:	f800283a 	ret
  803b18:	0011883a 	mov	r8,zero
  803b1c:	024ffc34 	movhi	r9,16368
  803b20:	0005883a 	mov	r2,zero
  803b24:	00d00934 	movhi	r3,16420
  803b28:	480b883a 	mov	r5,r9
  803b2c:	4009883a 	mov	r4,r8
  803b30:	180f883a 	mov	r7,r3
  803b34:	100d883a 	mov	r6,r2
  803b38:	08067c80 	call	8067c8 <__muldf3>
  803b3c:	843fffc4 	addi	r16,r16,-1
  803b40:	1011883a 	mov	r8,r2
  803b44:	1813883a 	mov	r9,r3
  803b48:	803ff51e 	bne	r16,zero,803b20 <_mprec_log10+0x50>
  803b4c:	4005883a 	mov	r2,r8
  803b50:	4807883a 	mov	r3,r9
  803b54:	dfc00117 	ldw	ra,4(sp)
  803b58:	dc000017 	ldw	r16,0(sp)
  803b5c:	dec00204 	addi	sp,sp,8
  803b60:	f800283a 	ret

00803b64 <__copybits>:
  803b64:	297fffc4 	addi	r5,r5,-1
  803b68:	30800417 	ldw	r2,16(r6)
  803b6c:	280bd17a 	srai	r5,r5,5
  803b70:	31800504 	addi	r6,r6,20
  803b74:	1085883a 	add	r2,r2,r2
  803b78:	294b883a 	add	r5,r5,r5
  803b7c:	294b883a 	add	r5,r5,r5
  803b80:	1085883a 	add	r2,r2,r2
  803b84:	290b883a 	add	r5,r5,r4
  803b88:	3087883a 	add	r3,r6,r2
  803b8c:	29400104 	addi	r5,r5,4
  803b90:	30c0052e 	bgeu	r6,r3,803ba8 <__copybits+0x44>
  803b94:	30800017 	ldw	r2,0(r6)
  803b98:	31800104 	addi	r6,r6,4
  803b9c:	20800015 	stw	r2,0(r4)
  803ba0:	21000104 	addi	r4,r4,4
  803ba4:	30fffb36 	bltu	r6,r3,803b94 <__copybits+0x30>
  803ba8:	2140032e 	bgeu	r4,r5,803bb8 <__copybits+0x54>
  803bac:	20000015 	stw	zero,0(r4)
  803bb0:	21000104 	addi	r4,r4,4
  803bb4:	217ffd36 	bltu	r4,r5,803bac <__copybits+0x48>
  803bb8:	f800283a 	ret

00803bbc <__any_on>:
  803bbc:	20800417 	ldw	r2,16(r4)
  803bc0:	2807d17a 	srai	r3,r5,5
  803bc4:	21000504 	addi	r4,r4,20
  803bc8:	10c00d0e 	bge	r2,r3,803c00 <__any_on+0x44>
  803bcc:	1085883a 	add	r2,r2,r2
  803bd0:	1085883a 	add	r2,r2,r2
  803bd4:	208d883a 	add	r6,r4,r2
  803bd8:	2180182e 	bgeu	r4,r6,803c3c <__any_on+0x80>
  803bdc:	30bfff17 	ldw	r2,-4(r6)
  803be0:	30ffff04 	addi	r3,r6,-4
  803be4:	1000041e 	bne	r2,zero,803bf8 <__any_on+0x3c>
  803be8:	20c0142e 	bgeu	r4,r3,803c3c <__any_on+0x80>
  803bec:	18ffff04 	addi	r3,r3,-4
  803bf0:	18800017 	ldw	r2,0(r3)
  803bf4:	103ffc26 	beq	r2,zero,803be8 <__any_on+0x2c>
  803bf8:	00800044 	movi	r2,1
  803bfc:	f800283a 	ret
  803c00:	18800a0e 	bge	r3,r2,803c2c <__any_on+0x70>
  803c04:	294007cc 	andi	r5,r5,31
  803c08:	28000826 	beq	r5,zero,803c2c <__any_on+0x70>
  803c0c:	18c5883a 	add	r2,r3,r3
  803c10:	1085883a 	add	r2,r2,r2
  803c14:	208d883a 	add	r6,r4,r2
  803c18:	30c00017 	ldw	r3,0(r6)
  803c1c:	1944d83a 	srl	r2,r3,r5
  803c20:	1144983a 	sll	r2,r2,r5
  803c24:	18bff41e 	bne	r3,r2,803bf8 <__any_on+0x3c>
  803c28:	003feb06 	br	803bd8 <__any_on+0x1c>
  803c2c:	18c5883a 	add	r2,r3,r3
  803c30:	1085883a 	add	r2,r2,r2
  803c34:	208d883a 	add	r6,r4,r2
  803c38:	003fe706 	br	803bd8 <__any_on+0x1c>
  803c3c:	0005883a 	mov	r2,zero
  803c40:	f800283a 	ret

00803c44 <_Balloc>:
  803c44:	20c01317 	ldw	r3,76(r4)
  803c48:	defffb04 	addi	sp,sp,-20
  803c4c:	dcc00315 	stw	r19,12(sp)
  803c50:	dc800215 	stw	r18,8(sp)
  803c54:	dfc00415 	stw	ra,16(sp)
  803c58:	2825883a 	mov	r18,r5
  803c5c:	dc400115 	stw	r17,4(sp)
  803c60:	dc000015 	stw	r16,0(sp)
  803c64:	2027883a 	mov	r19,r4
  803c68:	01800404 	movi	r6,16
  803c6c:	01400104 	movi	r5,4
  803c70:	18001726 	beq	r3,zero,803cd0 <_Balloc+0x8c>
  803c74:	01400044 	movi	r5,1
  803c78:	9485883a 	add	r2,r18,r18
  803c7c:	2ca2983a 	sll	r17,r5,r18
  803c80:	1085883a 	add	r2,r2,r2
  803c84:	10c7883a 	add	r3,r2,r3
  803c88:	1c000017 	ldw	r16,0(r3)
  803c8c:	8c4d883a 	add	r6,r17,r17
  803c90:	318d883a 	add	r6,r6,r6
  803c94:	9809883a 	mov	r4,r19
  803c98:	31800504 	addi	r6,r6,20
  803c9c:	80001226 	beq	r16,zero,803ce8 <_Balloc+0xa4>
  803ca0:	80800017 	ldw	r2,0(r16)
  803ca4:	18800015 	stw	r2,0(r3)
  803ca8:	80000415 	stw	zero,16(r16)
  803cac:	80000315 	stw	zero,12(r16)
  803cb0:	8005883a 	mov	r2,r16
  803cb4:	dfc00417 	ldw	ra,16(sp)
  803cb8:	dcc00317 	ldw	r19,12(sp)
  803cbc:	dc800217 	ldw	r18,8(sp)
  803cc0:	dc400117 	ldw	r17,4(sp)
  803cc4:	dc000017 	ldw	r16,0(sp)
  803cc8:	dec00504 	addi	sp,sp,20
  803ccc:	f800283a 	ret
  803cd0:	0804d380 	call	804d38 <_calloc_r>
  803cd4:	1007883a 	mov	r3,r2
  803cd8:	0021883a 	mov	r16,zero
  803cdc:	98801315 	stw	r2,76(r19)
  803ce0:	103fe41e 	bne	r2,zero,803c74 <_Balloc+0x30>
  803ce4:	003ff206 	br	803cb0 <_Balloc+0x6c>
  803ce8:	0804d380 	call	804d38 <_calloc_r>
  803cec:	103ff026 	beq	r2,zero,803cb0 <_Balloc+0x6c>
  803cf0:	1021883a 	mov	r16,r2
  803cf4:	14800115 	stw	r18,4(r2)
  803cf8:	14400215 	stw	r17,8(r2)
  803cfc:	003fea06 	br	803ca8 <_Balloc+0x64>

00803d00 <__d2b>:
  803d00:	defff504 	addi	sp,sp,-44
  803d04:	dcc00515 	stw	r19,20(sp)
  803d08:	04c00044 	movi	r19,1
  803d0c:	dc000215 	stw	r16,8(sp)
  803d10:	2821883a 	mov	r16,r5
  803d14:	980b883a 	mov	r5,r19
  803d18:	ddc00915 	stw	r23,36(sp)
  803d1c:	dd800815 	stw	r22,32(sp)
  803d20:	dd400715 	stw	r21,28(sp)
  803d24:	dd000615 	stw	r20,24(sp)
  803d28:	dc800415 	stw	r18,16(sp)
  803d2c:	dc400315 	stw	r17,12(sp)
  803d30:	dfc00a15 	stw	ra,40(sp)
  803d34:	3023883a 	mov	r17,r6
  803d38:	382d883a 	mov	r22,r7
  803d3c:	ddc00b17 	ldw	r23,44(sp)
  803d40:	0803c440 	call	803c44 <_Balloc>
  803d44:	1025883a 	mov	r18,r2
  803d48:	00a00034 	movhi	r2,32768
  803d4c:	10bfffc4 	addi	r2,r2,-1
  803d50:	8888703a 	and	r4,r17,r2
  803d54:	202ad53a 	srli	r21,r4,20
  803d58:	00800434 	movhi	r2,16
  803d5c:	10bfffc4 	addi	r2,r2,-1
  803d60:	8886703a 	and	r3,r17,r2
  803d64:	a829003a 	cmpeq	r20,r21,zero
  803d68:	800b883a 	mov	r5,r16
  803d6c:	d8c00115 	stw	r3,4(sp)
  803d70:	94000504 	addi	r16,r18,20
  803d74:	a000021e 	bne	r20,zero,803d80 <__d2b+0x80>
  803d78:	18c00434 	orhi	r3,r3,16
  803d7c:	d8c00115 	stw	r3,4(sp)
  803d80:	28002726 	beq	r5,zero,803e20 <__d2b+0x120>
  803d84:	d809883a 	mov	r4,sp
  803d88:	d9400015 	stw	r5,0(sp)
  803d8c:	080375c0 	call	80375c <__lo0bits>
  803d90:	100d883a 	mov	r6,r2
  803d94:	10003526 	beq	r2,zero,803e6c <__d2b+0x16c>
  803d98:	d8c00117 	ldw	r3,4(sp)
  803d9c:	00800804 	movi	r2,32
  803da0:	1185c83a 	sub	r2,r2,r6
  803da4:	d9000017 	ldw	r4,0(sp)
  803da8:	1886983a 	sll	r3,r3,r2
  803dac:	1906b03a 	or	r3,r3,r4
  803db0:	90c00515 	stw	r3,20(r18)
  803db4:	d8c00117 	ldw	r3,4(sp)
  803db8:	1986d83a 	srl	r3,r3,r6
  803dbc:	d8c00115 	stw	r3,4(sp)
  803dc0:	180b003a 	cmpeq	r5,r3,zero
  803dc4:	00800084 	movi	r2,2
  803dc8:	114bc83a 	sub	r5,r2,r5
  803dcc:	80c00115 	stw	r3,4(r16)
  803dd0:	91400415 	stw	r5,16(r18)
  803dd4:	a0001a1e 	bne	r20,zero,803e40 <__d2b+0x140>
  803dd8:	3545883a 	add	r2,r6,r21
  803ddc:	10bef344 	addi	r2,r2,-1075
  803de0:	00c00d44 	movi	r3,53
  803de4:	b0800015 	stw	r2,0(r22)
  803de8:	1987c83a 	sub	r3,r3,r6
  803dec:	b8c00015 	stw	r3,0(r23)
  803df0:	9005883a 	mov	r2,r18
  803df4:	dfc00a17 	ldw	ra,40(sp)
  803df8:	ddc00917 	ldw	r23,36(sp)
  803dfc:	dd800817 	ldw	r22,32(sp)
  803e00:	dd400717 	ldw	r21,28(sp)
  803e04:	dd000617 	ldw	r20,24(sp)
  803e08:	dcc00517 	ldw	r19,20(sp)
  803e0c:	dc800417 	ldw	r18,16(sp)
  803e10:	dc400317 	ldw	r17,12(sp)
  803e14:	dc000217 	ldw	r16,8(sp)
  803e18:	dec00b04 	addi	sp,sp,44
  803e1c:	f800283a 	ret
  803e20:	d9000104 	addi	r4,sp,4
  803e24:	080375c0 	call	80375c <__lo0bits>
  803e28:	11800804 	addi	r6,r2,32
  803e2c:	d8800117 	ldw	r2,4(sp)
  803e30:	94c00415 	stw	r19,16(r18)
  803e34:	980b883a 	mov	r5,r19
  803e38:	90800515 	stw	r2,20(r18)
  803e3c:	a03fe626 	beq	r20,zero,803dd8 <__d2b+0xd8>
  803e40:	2945883a 	add	r2,r5,r5
  803e44:	1085883a 	add	r2,r2,r2
  803e48:	1405883a 	add	r2,r2,r16
  803e4c:	113fff17 	ldw	r4,-4(r2)
  803e50:	30fef384 	addi	r3,r6,-1074
  803e54:	2820917a 	slli	r16,r5,5
  803e58:	b0c00015 	stw	r3,0(r22)
  803e5c:	08036ec0 	call	8036ec <__hi0bits>
  803e60:	80a1c83a 	sub	r16,r16,r2
  803e64:	bc000015 	stw	r16,0(r23)
  803e68:	003fe106 	br	803df0 <__d2b+0xf0>
  803e6c:	d8800017 	ldw	r2,0(sp)
  803e70:	90800515 	stw	r2,20(r18)
  803e74:	d8c00117 	ldw	r3,4(sp)
  803e78:	003fd106 	br	803dc0 <__d2b+0xc0>

00803e7c <__mdiff>:
  803e7c:	defffb04 	addi	sp,sp,-20
  803e80:	dc000015 	stw	r16,0(sp)
  803e84:	2821883a 	mov	r16,r5
  803e88:	dc800215 	stw	r18,8(sp)
  803e8c:	300b883a 	mov	r5,r6
  803e90:	2025883a 	mov	r18,r4
  803e94:	8009883a 	mov	r4,r16
  803e98:	dc400115 	stw	r17,4(sp)
  803e9c:	dfc00415 	stw	ra,16(sp)
  803ea0:	dcc00315 	stw	r19,12(sp)
  803ea4:	3023883a 	mov	r17,r6
  803ea8:	08038200 	call	803820 <__mcmp>
  803eac:	10004226 	beq	r2,zero,803fb8 <__mdiff+0x13c>
  803eb0:	10005016 	blt	r2,zero,803ff4 <__mdiff+0x178>
  803eb4:	0027883a 	mov	r19,zero
  803eb8:	81400117 	ldw	r5,4(r16)
  803ebc:	9009883a 	mov	r4,r18
  803ec0:	0803c440 	call	803c44 <_Balloc>
  803ec4:	1019883a 	mov	r12,r2
  803ec8:	82800417 	ldw	r10,16(r16)
  803ecc:	88800417 	ldw	r2,16(r17)
  803ed0:	81800504 	addi	r6,r16,20
  803ed4:	5287883a 	add	r3,r10,r10
  803ed8:	1085883a 	add	r2,r2,r2
  803edc:	18c7883a 	add	r3,r3,r3
  803ee0:	1085883a 	add	r2,r2,r2
  803ee4:	8a000504 	addi	r8,r17,20
  803ee8:	64c00315 	stw	r19,12(r12)
  803eec:	30db883a 	add	r13,r6,r3
  803ef0:	4097883a 	add	r11,r8,r2
  803ef4:	61c00504 	addi	r7,r12,20
  803ef8:	0013883a 	mov	r9,zero
  803efc:	31000017 	ldw	r4,0(r6)
  803f00:	41400017 	ldw	r5,0(r8)
  803f04:	42000104 	addi	r8,r8,4
  803f08:	20bfffcc 	andi	r2,r4,65535
  803f0c:	28ffffcc 	andi	r3,r5,65535
  803f10:	10c5c83a 	sub	r2,r2,r3
  803f14:	1245883a 	add	r2,r2,r9
  803f18:	2008d43a 	srli	r4,r4,16
  803f1c:	280ad43a 	srli	r5,r5,16
  803f20:	1007d43a 	srai	r3,r2,16
  803f24:	3880000d 	sth	r2,0(r7)
  803f28:	2149c83a 	sub	r4,r4,r5
  803f2c:	20c9883a 	add	r4,r4,r3
  803f30:	3900008d 	sth	r4,2(r7)
  803f34:	31800104 	addi	r6,r6,4
  803f38:	39c00104 	addi	r7,r7,4
  803f3c:	2013d43a 	srai	r9,r4,16
  803f40:	42ffee36 	bltu	r8,r11,803efc <__mdiff+0x80>
  803f44:	33400c2e 	bgeu	r6,r13,803f78 <__mdiff+0xfc>
  803f48:	30800017 	ldw	r2,0(r6)
  803f4c:	31800104 	addi	r6,r6,4
  803f50:	10ffffcc 	andi	r3,r2,65535
  803f54:	1a47883a 	add	r3,r3,r9
  803f58:	1004d43a 	srli	r2,r2,16
  803f5c:	1809d43a 	srai	r4,r3,16
  803f60:	38c0000d 	sth	r3,0(r7)
  803f64:	1105883a 	add	r2,r2,r4
  803f68:	3880008d 	sth	r2,2(r7)
  803f6c:	1013d43a 	srai	r9,r2,16
  803f70:	39c00104 	addi	r7,r7,4
  803f74:	337ff436 	bltu	r6,r13,803f48 <__mdiff+0xcc>
  803f78:	38bfff17 	ldw	r2,-4(r7)
  803f7c:	38ffff04 	addi	r3,r7,-4
  803f80:	1000041e 	bne	r2,zero,803f94 <__mdiff+0x118>
  803f84:	18ffff04 	addi	r3,r3,-4
  803f88:	18800017 	ldw	r2,0(r3)
  803f8c:	52bfffc4 	addi	r10,r10,-1
  803f90:	103ffc26 	beq	r2,zero,803f84 <__mdiff+0x108>
  803f94:	6005883a 	mov	r2,r12
  803f98:	62800415 	stw	r10,16(r12)
  803f9c:	dfc00417 	ldw	ra,16(sp)
  803fa0:	dcc00317 	ldw	r19,12(sp)
  803fa4:	dc800217 	ldw	r18,8(sp)
  803fa8:	dc400117 	ldw	r17,4(sp)
  803fac:	dc000017 	ldw	r16,0(sp)
  803fb0:	dec00504 	addi	sp,sp,20
  803fb4:	f800283a 	ret
  803fb8:	9009883a 	mov	r4,r18
  803fbc:	000b883a 	mov	r5,zero
  803fc0:	0803c440 	call	803c44 <_Balloc>
  803fc4:	1019883a 	mov	r12,r2
  803fc8:	00800044 	movi	r2,1
  803fcc:	60800415 	stw	r2,16(r12)
  803fd0:	6005883a 	mov	r2,r12
  803fd4:	60000515 	stw	zero,20(r12)
  803fd8:	dfc00417 	ldw	ra,16(sp)
  803fdc:	dcc00317 	ldw	r19,12(sp)
  803fe0:	dc800217 	ldw	r18,8(sp)
  803fe4:	dc400117 	ldw	r17,4(sp)
  803fe8:	dc000017 	ldw	r16,0(sp)
  803fec:	dec00504 	addi	sp,sp,20
  803ff0:	f800283a 	ret
  803ff4:	880d883a 	mov	r6,r17
  803ff8:	04c00044 	movi	r19,1
  803ffc:	8023883a 	mov	r17,r16
  804000:	3021883a 	mov	r16,r6
  804004:	003fac06 	br	803eb8 <__mdiff+0x3c>

00804008 <__lshift>:
  804008:	defff904 	addi	sp,sp,-28
  80400c:	28800417 	ldw	r2,16(r5)
  804010:	dc000015 	stw	r16,0(sp)
  804014:	3021d17a 	srai	r16,r6,5
  804018:	28c00217 	ldw	r3,8(r5)
  80401c:	10800044 	addi	r2,r2,1
  804020:	dc400115 	stw	r17,4(sp)
  804024:	80a3883a 	add	r17,r16,r2
  804028:	dd400515 	stw	r21,20(sp)
  80402c:	dd000415 	stw	r20,16(sp)
  804030:	dc800215 	stw	r18,8(sp)
  804034:	dfc00615 	stw	ra,24(sp)
  804038:	2825883a 	mov	r18,r5
  80403c:	dcc00315 	stw	r19,12(sp)
  804040:	3029883a 	mov	r20,r6
  804044:	202b883a 	mov	r21,r4
  804048:	29400117 	ldw	r5,4(r5)
  80404c:	1c40030e 	bge	r3,r17,80405c <__lshift+0x54>
  804050:	18c7883a 	add	r3,r3,r3
  804054:	29400044 	addi	r5,r5,1
  804058:	1c7ffd16 	blt	r3,r17,804050 <__lshift+0x48>
  80405c:	a809883a 	mov	r4,r21
  804060:	0803c440 	call	803c44 <_Balloc>
  804064:	1027883a 	mov	r19,r2
  804068:	11400504 	addi	r5,r2,20
  80406c:	0400090e 	bge	zero,r16,804094 <__lshift+0x8c>
  804070:	2805883a 	mov	r2,r5
  804074:	0007883a 	mov	r3,zero
  804078:	18c00044 	addi	r3,r3,1
  80407c:	10000015 	stw	zero,0(r2)
  804080:	10800104 	addi	r2,r2,4
  804084:	80fffc1e 	bne	r16,r3,804078 <__lshift+0x70>
  804088:	8405883a 	add	r2,r16,r16
  80408c:	1085883a 	add	r2,r2,r2
  804090:	288b883a 	add	r5,r5,r2
  804094:	90800417 	ldw	r2,16(r18)
  804098:	91000504 	addi	r4,r18,20
  80409c:	a18007cc 	andi	r6,r20,31
  8040a0:	1085883a 	add	r2,r2,r2
  8040a4:	1085883a 	add	r2,r2,r2
  8040a8:	208f883a 	add	r7,r4,r2
  8040ac:	30001e26 	beq	r6,zero,804128 <__lshift+0x120>
  8040b0:	00800804 	movi	r2,32
  8040b4:	1191c83a 	sub	r8,r2,r6
  8040b8:	0007883a 	mov	r3,zero
  8040bc:	20800017 	ldw	r2,0(r4)
  8040c0:	1184983a 	sll	r2,r2,r6
  8040c4:	1884b03a 	or	r2,r3,r2
  8040c8:	28800015 	stw	r2,0(r5)
  8040cc:	20c00017 	ldw	r3,0(r4)
  8040d0:	21000104 	addi	r4,r4,4
  8040d4:	29400104 	addi	r5,r5,4
  8040d8:	1a06d83a 	srl	r3,r3,r8
  8040dc:	21fff736 	bltu	r4,r7,8040bc <__lshift+0xb4>
  8040e0:	28c00015 	stw	r3,0(r5)
  8040e4:	18000126 	beq	r3,zero,8040ec <__lshift+0xe4>
  8040e8:	8c400044 	addi	r17,r17,1
  8040ec:	88bfffc4 	addi	r2,r17,-1
  8040f0:	98800415 	stw	r2,16(r19)
  8040f4:	a809883a 	mov	r4,r21
  8040f8:	900b883a 	mov	r5,r18
  8040fc:	08036c40 	call	8036c4 <_Bfree>
  804100:	9805883a 	mov	r2,r19
  804104:	dfc00617 	ldw	ra,24(sp)
  804108:	dd400517 	ldw	r21,20(sp)
  80410c:	dd000417 	ldw	r20,16(sp)
  804110:	dcc00317 	ldw	r19,12(sp)
  804114:	dc800217 	ldw	r18,8(sp)
  804118:	dc400117 	ldw	r17,4(sp)
  80411c:	dc000017 	ldw	r16,0(sp)
  804120:	dec00704 	addi	sp,sp,28
  804124:	f800283a 	ret
  804128:	20800017 	ldw	r2,0(r4)
  80412c:	21000104 	addi	r4,r4,4
  804130:	28800015 	stw	r2,0(r5)
  804134:	29400104 	addi	r5,r5,4
  804138:	21ffec2e 	bgeu	r4,r7,8040ec <__lshift+0xe4>
  80413c:	20800017 	ldw	r2,0(r4)
  804140:	21000104 	addi	r4,r4,4
  804144:	28800015 	stw	r2,0(r5)
  804148:	29400104 	addi	r5,r5,4
  80414c:	21fff636 	bltu	r4,r7,804128 <__lshift+0x120>
  804150:	003fe606 	br	8040ec <__lshift+0xe4>

00804154 <__multiply>:
  804154:	defff904 	addi	sp,sp,-28
  804158:	dcc00315 	stw	r19,12(sp)
  80415c:	dc800215 	stw	r18,8(sp)
  804160:	2cc00417 	ldw	r19,16(r5)
  804164:	34800417 	ldw	r18,16(r6)
  804168:	dd000415 	stw	r20,16(sp)
  80416c:	dc400115 	stw	r17,4(sp)
  804170:	dfc00615 	stw	ra,24(sp)
  804174:	dd400515 	stw	r21,20(sp)
  804178:	dc000015 	stw	r16,0(sp)
  80417c:	2823883a 	mov	r17,r5
  804180:	3029883a 	mov	r20,r6
  804184:	9c80040e 	bge	r19,r18,804198 <__multiply+0x44>
  804188:	9027883a 	mov	r19,r18
  80418c:	2c800417 	ldw	r18,16(r5)
  804190:	2829883a 	mov	r20,r5
  804194:	3023883a 	mov	r17,r6
  804198:	88800217 	ldw	r2,8(r17)
  80419c:	9ca1883a 	add	r16,r19,r18
  8041a0:	89400117 	ldw	r5,4(r17)
  8041a4:	1400010e 	bge	r2,r16,8041ac <__multiply+0x58>
  8041a8:	29400044 	addi	r5,r5,1
  8041ac:	0803c440 	call	803c44 <_Balloc>
  8041b0:	102b883a 	mov	r21,r2
  8041b4:	8405883a 	add	r2,r16,r16
  8041b8:	1085883a 	add	r2,r2,r2
  8041bc:	a9000504 	addi	r4,r21,20
  8041c0:	209d883a 	add	r14,r4,r2
  8041c4:	2380042e 	bgeu	r4,r14,8041d8 <__multiply+0x84>
  8041c8:	2005883a 	mov	r2,r4
  8041cc:	10000015 	stw	zero,0(r2)
  8041d0:	10800104 	addi	r2,r2,4
  8041d4:	13bffd36 	bltu	r2,r14,8041cc <__multiply+0x78>
  8041d8:	9485883a 	add	r2,r18,r18
  8041dc:	9cc7883a 	add	r3,r19,r19
  8041e0:	a1800504 	addi	r6,r20,20
  8041e4:	1085883a 	add	r2,r2,r2
  8041e8:	8b400504 	addi	r13,r17,20
  8041ec:	18c7883a 	add	r3,r3,r3
  8041f0:	309f883a 	add	r15,r6,r2
  8041f4:	68d7883a 	add	r11,r13,r3
  8041f8:	33c03b2e 	bgeu	r6,r15,8042e8 <__multiply+0x194>
  8041fc:	2019883a 	mov	r12,r4
  804200:	30800017 	ldw	r2,0(r6)
  804204:	127fffcc 	andi	r9,r2,65535
  804208:	48001826 	beq	r9,zero,80426c <__multiply+0x118>
  80420c:	6811883a 	mov	r8,r13
  804210:	600f883a 	mov	r7,r12
  804214:	0015883a 	mov	r10,zero
  804218:	40c00017 	ldw	r3,0(r8)
  80421c:	39400017 	ldw	r5,0(r7)
  804220:	42000104 	addi	r8,r8,4
  804224:	193fffcc 	andi	r4,r3,65535
  804228:	4909383a 	mul	r4,r9,r4
  80422c:	1806d43a 	srli	r3,r3,16
  804230:	28bfffcc 	andi	r2,r5,65535
  804234:	5085883a 	add	r2,r10,r2
  804238:	2089883a 	add	r4,r4,r2
  80423c:	48c7383a 	mul	r3,r9,r3
  804240:	280ad43a 	srli	r5,r5,16
  804244:	2004d43a 	srli	r2,r4,16
  804248:	3900000d 	sth	r4,0(r7)
  80424c:	1947883a 	add	r3,r3,r5
  804250:	10c5883a 	add	r2,r2,r3
  804254:	3880008d 	sth	r2,2(r7)
  804258:	1014d43a 	srli	r10,r2,16
  80425c:	39c00104 	addi	r7,r7,4
  804260:	42ffed36 	bltu	r8,r11,804218 <__multiply+0xc4>
  804264:	3a800015 	stw	r10,0(r7)
  804268:	30800017 	ldw	r2,0(r6)
  80426c:	1012d43a 	srli	r9,r2,16
  804270:	48001926 	beq	r9,zero,8042d8 <__multiply+0x184>
  804274:	60800017 	ldw	r2,0(r12)
  804278:	6811883a 	mov	r8,r13
  80427c:	600f883a 	mov	r7,r12
  804280:	0015883a 	mov	r10,zero
  804284:	100b883a 	mov	r5,r2
  804288:	41000017 	ldw	r4,0(r8)
  80428c:	2806d43a 	srli	r3,r5,16
  804290:	3880000d 	sth	r2,0(r7)
  804294:	20bfffcc 	andi	r2,r4,65535
  804298:	4885383a 	mul	r2,r9,r2
  80429c:	50c7883a 	add	r3,r10,r3
  8042a0:	2008d43a 	srli	r4,r4,16
  8042a4:	10c5883a 	add	r2,r2,r3
  8042a8:	3880008d 	sth	r2,2(r7)
  8042ac:	39c00104 	addi	r7,r7,4
  8042b0:	39400017 	ldw	r5,0(r7)
  8042b4:	4909383a 	mul	r4,r9,r4
  8042b8:	1004d43a 	srli	r2,r2,16
  8042bc:	28ffffcc 	andi	r3,r5,65535
  8042c0:	20c9883a 	add	r4,r4,r3
  8042c4:	1105883a 	add	r2,r2,r4
  8042c8:	42000104 	addi	r8,r8,4
  8042cc:	1014d43a 	srli	r10,r2,16
  8042d0:	42ffed36 	bltu	r8,r11,804288 <__multiply+0x134>
  8042d4:	38800015 	stw	r2,0(r7)
  8042d8:	31800104 	addi	r6,r6,4
  8042dc:	33c0022e 	bgeu	r6,r15,8042e8 <__multiply+0x194>
  8042e0:	63000104 	addi	r12,r12,4
  8042e4:	003fc606 	br	804200 <__multiply+0xac>
  8042e8:	0400090e 	bge	zero,r16,804310 <__multiply+0x1bc>
  8042ec:	70bfff17 	ldw	r2,-4(r14)
  8042f0:	70ffff04 	addi	r3,r14,-4
  8042f4:	10000326 	beq	r2,zero,804304 <__multiply+0x1b0>
  8042f8:	00000506 	br	804310 <__multiply+0x1bc>
  8042fc:	18800017 	ldw	r2,0(r3)
  804300:	1000031e 	bne	r2,zero,804310 <__multiply+0x1bc>
  804304:	843fffc4 	addi	r16,r16,-1
  804308:	18ffff04 	addi	r3,r3,-4
  80430c:	803ffb1e 	bne	r16,zero,8042fc <__multiply+0x1a8>
  804310:	a805883a 	mov	r2,r21
  804314:	ac000415 	stw	r16,16(r21)
  804318:	dfc00617 	ldw	ra,24(sp)
  80431c:	dd400517 	ldw	r21,20(sp)
  804320:	dd000417 	ldw	r20,16(sp)
  804324:	dcc00317 	ldw	r19,12(sp)
  804328:	dc800217 	ldw	r18,8(sp)
  80432c:	dc400117 	ldw	r17,4(sp)
  804330:	dc000017 	ldw	r16,0(sp)
  804334:	dec00704 	addi	sp,sp,28
  804338:	f800283a 	ret

0080433c <__i2b>:
  80433c:	defffd04 	addi	sp,sp,-12
  804340:	dc000015 	stw	r16,0(sp)
  804344:	04000044 	movi	r16,1
  804348:	dc800115 	stw	r18,4(sp)
  80434c:	2825883a 	mov	r18,r5
  804350:	800b883a 	mov	r5,r16
  804354:	dfc00215 	stw	ra,8(sp)
  804358:	0803c440 	call	803c44 <_Balloc>
  80435c:	14000415 	stw	r16,16(r2)
  804360:	14800515 	stw	r18,20(r2)
  804364:	dfc00217 	ldw	ra,8(sp)
  804368:	dc800117 	ldw	r18,4(sp)
  80436c:	dc000017 	ldw	r16,0(sp)
  804370:	dec00304 	addi	sp,sp,12
  804374:	f800283a 	ret

00804378 <__multadd>:
  804378:	defffa04 	addi	sp,sp,-24
  80437c:	dc800215 	stw	r18,8(sp)
  804380:	2c800417 	ldw	r18,16(r5)
  804384:	dd000415 	stw	r20,16(sp)
  804388:	dcc00315 	stw	r19,12(sp)
  80438c:	dc000015 	stw	r16,0(sp)
  804390:	dfc00515 	stw	ra,20(sp)
  804394:	3821883a 	mov	r16,r7
  804398:	dc400115 	stw	r17,4(sp)
  80439c:	2827883a 	mov	r19,r5
  8043a0:	2029883a 	mov	r20,r4
  8043a4:	2a000504 	addi	r8,r5,20
  8043a8:	000f883a 	mov	r7,zero
  8043ac:	40800017 	ldw	r2,0(r8)
  8043b0:	39c00044 	addi	r7,r7,1
  8043b4:	10ffffcc 	andi	r3,r2,65535
  8043b8:	1987383a 	mul	r3,r3,r6
  8043bc:	1004d43a 	srli	r2,r2,16
  8043c0:	1c07883a 	add	r3,r3,r16
  8043c4:	180ad43a 	srli	r5,r3,16
  8043c8:	1185383a 	mul	r2,r2,r6
  8043cc:	18ffffcc 	andi	r3,r3,65535
  8043d0:	1145883a 	add	r2,r2,r5
  8043d4:	1008943a 	slli	r4,r2,16
  8043d8:	1020d43a 	srli	r16,r2,16
  8043dc:	20c9883a 	add	r4,r4,r3
  8043e0:	41000015 	stw	r4,0(r8)
  8043e4:	42000104 	addi	r8,r8,4
  8043e8:	3cbff016 	blt	r7,r18,8043ac <__multadd+0x34>
  8043ec:	80000826 	beq	r16,zero,804410 <__multadd+0x98>
  8043f0:	98800217 	ldw	r2,8(r19)
  8043f4:	90800f0e 	bge	r18,r2,804434 <__multadd+0xbc>
  8043f8:	9485883a 	add	r2,r18,r18
  8043fc:	1085883a 	add	r2,r2,r2
  804400:	14c5883a 	add	r2,r2,r19
  804404:	90c00044 	addi	r3,r18,1
  804408:	14000515 	stw	r16,20(r2)
  80440c:	98c00415 	stw	r3,16(r19)
  804410:	9805883a 	mov	r2,r19
  804414:	dfc00517 	ldw	ra,20(sp)
  804418:	dd000417 	ldw	r20,16(sp)
  80441c:	dcc00317 	ldw	r19,12(sp)
  804420:	dc800217 	ldw	r18,8(sp)
  804424:	dc400117 	ldw	r17,4(sp)
  804428:	dc000017 	ldw	r16,0(sp)
  80442c:	dec00604 	addi	sp,sp,24
  804430:	f800283a 	ret
  804434:	99400117 	ldw	r5,4(r19)
  804438:	a009883a 	mov	r4,r20
  80443c:	29400044 	addi	r5,r5,1
  804440:	0803c440 	call	803c44 <_Balloc>
  804444:	99800417 	ldw	r6,16(r19)
  804448:	99400304 	addi	r5,r19,12
  80444c:	11000304 	addi	r4,r2,12
  804450:	318d883a 	add	r6,r6,r6
  804454:	318d883a 	add	r6,r6,r6
  804458:	31800204 	addi	r6,r6,8
  80445c:	1023883a 	mov	r17,r2
  804460:	08026280 	call	802628 <memcpy>
  804464:	980b883a 	mov	r5,r19
  804468:	a009883a 	mov	r4,r20
  80446c:	08036c40 	call	8036c4 <_Bfree>
  804470:	8827883a 	mov	r19,r17
  804474:	003fe006 	br	8043f8 <__multadd+0x80>

00804478 <__pow5mult>:
  804478:	defffa04 	addi	sp,sp,-24
  80447c:	308000cc 	andi	r2,r6,3
  804480:	dd000415 	stw	r20,16(sp)
  804484:	dcc00315 	stw	r19,12(sp)
  804488:	dc000015 	stw	r16,0(sp)
  80448c:	dfc00515 	stw	ra,20(sp)
  804490:	dc800215 	stw	r18,8(sp)
  804494:	dc400115 	stw	r17,4(sp)
  804498:	3021883a 	mov	r16,r6
  80449c:	2027883a 	mov	r19,r4
  8044a0:	2829883a 	mov	r20,r5
  8044a4:	10002b1e 	bne	r2,zero,804554 <__pow5mult+0xdc>
  8044a8:	8025d0ba 	srai	r18,r16,2
  8044ac:	90001b26 	beq	r18,zero,80451c <__pow5mult+0xa4>
  8044b0:	9c001217 	ldw	r16,72(r19)
  8044b4:	8000081e 	bne	r16,zero,8044d8 <__pow5mult+0x60>
  8044b8:	00003006 	br	80457c <__pow5mult+0x104>
  8044bc:	800b883a 	mov	r5,r16
  8044c0:	800d883a 	mov	r6,r16
  8044c4:	9809883a 	mov	r4,r19
  8044c8:	90001426 	beq	r18,zero,80451c <__pow5mult+0xa4>
  8044cc:	80800017 	ldw	r2,0(r16)
  8044d0:	10001b26 	beq	r2,zero,804540 <__pow5mult+0xc8>
  8044d4:	1021883a 	mov	r16,r2
  8044d8:	9080004c 	andi	r2,r18,1
  8044dc:	1005003a 	cmpeq	r2,r2,zero
  8044e0:	9025d07a 	srai	r18,r18,1
  8044e4:	800d883a 	mov	r6,r16
  8044e8:	9809883a 	mov	r4,r19
  8044ec:	a00b883a 	mov	r5,r20
  8044f0:	103ff21e 	bne	r2,zero,8044bc <__pow5mult+0x44>
  8044f4:	08041540 	call	804154 <__multiply>
  8044f8:	a00b883a 	mov	r5,r20
  8044fc:	9809883a 	mov	r4,r19
  804500:	1023883a 	mov	r17,r2
  804504:	08036c40 	call	8036c4 <_Bfree>
  804508:	8829883a 	mov	r20,r17
  80450c:	800b883a 	mov	r5,r16
  804510:	800d883a 	mov	r6,r16
  804514:	9809883a 	mov	r4,r19
  804518:	903fec1e 	bne	r18,zero,8044cc <__pow5mult+0x54>
  80451c:	a005883a 	mov	r2,r20
  804520:	dfc00517 	ldw	ra,20(sp)
  804524:	dd000417 	ldw	r20,16(sp)
  804528:	dcc00317 	ldw	r19,12(sp)
  80452c:	dc800217 	ldw	r18,8(sp)
  804530:	dc400117 	ldw	r17,4(sp)
  804534:	dc000017 	ldw	r16,0(sp)
  804538:	dec00604 	addi	sp,sp,24
  80453c:	f800283a 	ret
  804540:	08041540 	call	804154 <__multiply>
  804544:	80800015 	stw	r2,0(r16)
  804548:	1021883a 	mov	r16,r2
  80454c:	10000015 	stw	zero,0(r2)
  804550:	003fe106 	br	8044d8 <__pow5mult+0x60>
  804554:	1085883a 	add	r2,r2,r2
  804558:	00c02074 	movhi	r3,129
  80455c:	18e6e604 	addi	r3,r3,-25704
  804560:	1085883a 	add	r2,r2,r2
  804564:	10c5883a 	add	r2,r2,r3
  804568:	11bfff17 	ldw	r6,-4(r2)
  80456c:	000f883a 	mov	r7,zero
  804570:	08043780 	call	804378 <__multadd>
  804574:	1029883a 	mov	r20,r2
  804578:	003fcb06 	br	8044a8 <__pow5mult+0x30>
  80457c:	9809883a 	mov	r4,r19
  804580:	01409c44 	movi	r5,625
  804584:	080433c0 	call	80433c <__i2b>
  804588:	98801215 	stw	r2,72(r19)
  80458c:	1021883a 	mov	r16,r2
  804590:	10000015 	stw	zero,0(r2)
  804594:	003fd006 	br	8044d8 <__pow5mult+0x60>

00804598 <__s2b>:
  804598:	defff904 	addi	sp,sp,-28
  80459c:	dcc00315 	stw	r19,12(sp)
  8045a0:	dc800215 	stw	r18,8(sp)
  8045a4:	2827883a 	mov	r19,r5
  8045a8:	2025883a 	mov	r18,r4
  8045ac:	01400244 	movi	r5,9
  8045b0:	39000204 	addi	r4,r7,8
  8045b4:	dd000415 	stw	r20,16(sp)
  8045b8:	dc400115 	stw	r17,4(sp)
  8045bc:	dfc00615 	stw	ra,24(sp)
  8045c0:	dd400515 	stw	r21,20(sp)
  8045c4:	dc000015 	stw	r16,0(sp)
  8045c8:	3829883a 	mov	r20,r7
  8045cc:	3023883a 	mov	r17,r6
  8045d0:	08070100 	call	807010 <__divsi3>
  8045d4:	00c00044 	movi	r3,1
  8045d8:	1880350e 	bge	r3,r2,8046b0 <__s2b+0x118>
  8045dc:	000b883a 	mov	r5,zero
  8045e0:	18c7883a 	add	r3,r3,r3
  8045e4:	29400044 	addi	r5,r5,1
  8045e8:	18bffd16 	blt	r3,r2,8045e0 <__s2b+0x48>
  8045ec:	9009883a 	mov	r4,r18
  8045f0:	0803c440 	call	803c44 <_Balloc>
  8045f4:	1011883a 	mov	r8,r2
  8045f8:	d8800717 	ldw	r2,28(sp)
  8045fc:	00c00044 	movi	r3,1
  804600:	01800244 	movi	r6,9
  804604:	40800515 	stw	r2,20(r8)
  804608:	40c00415 	stw	r3,16(r8)
  80460c:	3440260e 	bge	r6,r17,8046a8 <__s2b+0x110>
  804610:	3021883a 	mov	r16,r6
  804614:	99ab883a 	add	r21,r19,r6
  804618:	9c05883a 	add	r2,r19,r16
  80461c:	11c00007 	ldb	r7,0(r2)
  804620:	400b883a 	mov	r5,r8
  804624:	9009883a 	mov	r4,r18
  804628:	39fff404 	addi	r7,r7,-48
  80462c:	01800284 	movi	r6,10
  804630:	08043780 	call	804378 <__multadd>
  804634:	84000044 	addi	r16,r16,1
  804638:	1011883a 	mov	r8,r2
  80463c:	8c3ff61e 	bne	r17,r16,804618 <__s2b+0x80>
  804640:	ac45883a 	add	r2,r21,r17
  804644:	117ffe04 	addi	r5,r2,-8
  804648:	880d883a 	mov	r6,r17
  80464c:	35000c0e 	bge	r6,r20,804680 <__s2b+0xe8>
  804650:	a185c83a 	sub	r2,r20,r6
  804654:	2821883a 	mov	r16,r5
  804658:	28a3883a 	add	r17,r5,r2
  80465c:	81c00007 	ldb	r7,0(r16)
  804660:	400b883a 	mov	r5,r8
  804664:	9009883a 	mov	r4,r18
  804668:	39fff404 	addi	r7,r7,-48
  80466c:	01800284 	movi	r6,10
  804670:	08043780 	call	804378 <__multadd>
  804674:	84000044 	addi	r16,r16,1
  804678:	1011883a 	mov	r8,r2
  80467c:	847ff71e 	bne	r16,r17,80465c <__s2b+0xc4>
  804680:	4005883a 	mov	r2,r8
  804684:	dfc00617 	ldw	ra,24(sp)
  804688:	dd400517 	ldw	r21,20(sp)
  80468c:	dd000417 	ldw	r20,16(sp)
  804690:	dcc00317 	ldw	r19,12(sp)
  804694:	dc800217 	ldw	r18,8(sp)
  804698:	dc400117 	ldw	r17,4(sp)
  80469c:	dc000017 	ldw	r16,0(sp)
  8046a0:	dec00704 	addi	sp,sp,28
  8046a4:	f800283a 	ret
  8046a8:	99400284 	addi	r5,r19,10
  8046ac:	003fe706 	br	80464c <__s2b+0xb4>
  8046b0:	000b883a 	mov	r5,zero
  8046b4:	003fcd06 	br	8045ec <__s2b+0x54>

008046b8 <_realloc_r>:
  8046b8:	defff404 	addi	sp,sp,-48
  8046bc:	dd800815 	stw	r22,32(sp)
  8046c0:	dc800415 	stw	r18,16(sp)
  8046c4:	dc400315 	stw	r17,12(sp)
  8046c8:	dfc00b15 	stw	ra,44(sp)
  8046cc:	df000a15 	stw	fp,40(sp)
  8046d0:	ddc00915 	stw	r23,36(sp)
  8046d4:	dd400715 	stw	r21,28(sp)
  8046d8:	dd000615 	stw	r20,24(sp)
  8046dc:	dcc00515 	stw	r19,20(sp)
  8046e0:	dc000215 	stw	r16,8(sp)
  8046e4:	2825883a 	mov	r18,r5
  8046e8:	3023883a 	mov	r17,r6
  8046ec:	202d883a 	mov	r22,r4
  8046f0:	2800c926 	beq	r5,zero,804a18 <_realloc_r+0x360>
  8046f4:	08072ac0 	call	8072ac <__malloc_lock>
  8046f8:	943ffe04 	addi	r16,r18,-8
  8046fc:	88c002c4 	addi	r3,r17,11
  804700:	00800584 	movi	r2,22
  804704:	82000117 	ldw	r8,4(r16)
  804708:	10c01b2e 	bgeu	r2,r3,804778 <_realloc_r+0xc0>
  80470c:	00bffe04 	movi	r2,-8
  804710:	188e703a 	and	r7,r3,r2
  804714:	3839883a 	mov	fp,r7
  804718:	38001a16 	blt	r7,zero,804784 <_realloc_r+0xcc>
  80471c:	e4401936 	bltu	fp,r17,804784 <_realloc_r+0xcc>
  804720:	013fff04 	movi	r4,-4
  804724:	4126703a 	and	r19,r8,r4
  804728:	99c02616 	blt	r19,r7,8047c4 <_realloc_r+0x10c>
  80472c:	802b883a 	mov	r21,r16
  804730:	9829883a 	mov	r20,r19
  804734:	84000204 	addi	r16,r16,8
  804738:	a80f883a 	mov	r7,r21
  80473c:	a70dc83a 	sub	r6,r20,fp
  804740:	008003c4 	movi	r2,15
  804744:	1180c136 	bltu	r2,r6,804a4c <_realloc_r+0x394>
  804748:	38800117 	ldw	r2,4(r7)
  80474c:	a549883a 	add	r4,r20,r21
  804750:	1080004c 	andi	r2,r2,1
  804754:	a084b03a 	or	r2,r20,r2
  804758:	38800115 	stw	r2,4(r7)
  80475c:	20c00117 	ldw	r3,4(r4)
  804760:	18c00054 	ori	r3,r3,1
  804764:	20c00115 	stw	r3,4(r4)
  804768:	b009883a 	mov	r4,r22
  80476c:	08072b00 	call	8072b0 <__malloc_unlock>
  804770:	8023883a 	mov	r17,r16
  804774:	00000606 	br	804790 <_realloc_r+0xd8>
  804778:	01c00404 	movi	r7,16
  80477c:	3839883a 	mov	fp,r7
  804780:	e47fe72e 	bgeu	fp,r17,804720 <_realloc_r+0x68>
  804784:	00800304 	movi	r2,12
  804788:	0023883a 	mov	r17,zero
  80478c:	b0800015 	stw	r2,0(r22)
  804790:	8805883a 	mov	r2,r17
  804794:	dfc00b17 	ldw	ra,44(sp)
  804798:	df000a17 	ldw	fp,40(sp)
  80479c:	ddc00917 	ldw	r23,36(sp)
  8047a0:	dd800817 	ldw	r22,32(sp)
  8047a4:	dd400717 	ldw	r21,28(sp)
  8047a8:	dd000617 	ldw	r20,24(sp)
  8047ac:	dcc00517 	ldw	r19,20(sp)
  8047b0:	dc800417 	ldw	r18,16(sp)
  8047b4:	dc400317 	ldw	r17,12(sp)
  8047b8:	dc000217 	ldw	r16,8(sp)
  8047bc:	dec00c04 	addi	sp,sp,48
  8047c0:	f800283a 	ret
  8047c4:	00802074 	movhi	r2,129
  8047c8:	10a7f504 	addi	r2,r2,-24620
  8047cc:	12400217 	ldw	r9,8(r2)
  8047d0:	84cd883a 	add	r6,r16,r19
  8047d4:	802b883a 	mov	r21,r16
  8047d8:	3240b926 	beq	r6,r9,804ac0 <_realloc_r+0x408>
  8047dc:	31400117 	ldw	r5,4(r6)
  8047e0:	00bfff84 	movi	r2,-2
  8047e4:	2884703a 	and	r2,r5,r2
  8047e8:	1185883a 	add	r2,r2,r6
  8047ec:	10c00117 	ldw	r3,4(r2)
  8047f0:	18c0004c 	andi	r3,r3,1
  8047f4:	1807003a 	cmpeq	r3,r3,zero
  8047f8:	1800a326 	beq	r3,zero,804a88 <_realloc_r+0x3d0>
  8047fc:	2908703a 	and	r4,r5,r4
  804800:	9929883a 	add	r20,r19,r4
  804804:	a1c0a30e 	bge	r20,r7,804a94 <_realloc_r+0x3dc>
  804808:	4080004c 	andi	r2,r8,1
  80480c:	1000551e 	bne	r2,zero,804964 <_realloc_r+0x2ac>
  804810:	80800017 	ldw	r2,0(r16)
  804814:	80afc83a 	sub	r23,r16,r2
  804818:	b8c00117 	ldw	r3,4(r23)
  80481c:	00bfff04 	movi	r2,-4
  804820:	1884703a 	and	r2,r3,r2
  804824:	30002e26 	beq	r6,zero,8048e0 <_realloc_r+0x228>
  804828:	3240b926 	beq	r6,r9,804b10 <_realloc_r+0x458>
  80482c:	98a9883a 	add	r20,r19,r2
  804830:	2509883a 	add	r4,r4,r20
  804834:	d9000015 	stw	r4,0(sp)
  804838:	21c02a16 	blt	r4,r7,8048e4 <_realloc_r+0x22c>
  80483c:	30800317 	ldw	r2,12(r6)
  804840:	30c00217 	ldw	r3,8(r6)
  804844:	01400904 	movi	r5,36
  804848:	99bfff04 	addi	r6,r19,-4
  80484c:	18800315 	stw	r2,12(r3)
  804850:	10c00215 	stw	r3,8(r2)
  804854:	b9000317 	ldw	r4,12(r23)
  804858:	b8800217 	ldw	r2,8(r23)
  80485c:	b82b883a 	mov	r21,r23
  804860:	bc000204 	addi	r16,r23,8
  804864:	20800215 	stw	r2,8(r4)
  804868:	11000315 	stw	r4,12(r2)
  80486c:	2980e436 	bltu	r5,r6,804c00 <_realloc_r+0x548>
  804870:	008004c4 	movi	r2,19
  804874:	9009883a 	mov	r4,r18
  804878:	8011883a 	mov	r8,r16
  80487c:	11800f2e 	bgeu	r2,r6,8048bc <_realloc_r+0x204>
  804880:	90800017 	ldw	r2,0(r18)
  804884:	ba000404 	addi	r8,r23,16
  804888:	91000204 	addi	r4,r18,8
  80488c:	b8800215 	stw	r2,8(r23)
  804890:	90c00117 	ldw	r3,4(r18)
  804894:	008006c4 	movi	r2,27
  804898:	b8c00315 	stw	r3,12(r23)
  80489c:	1180072e 	bgeu	r2,r6,8048bc <_realloc_r+0x204>
  8048a0:	90c00217 	ldw	r3,8(r18)
  8048a4:	ba000604 	addi	r8,r23,24
  8048a8:	91000404 	addi	r4,r18,16
  8048ac:	b8c00415 	stw	r3,16(r23)
  8048b0:	90800317 	ldw	r2,12(r18)
  8048b4:	b8800515 	stw	r2,20(r23)
  8048b8:	3140e726 	beq	r6,r5,804c58 <_realloc_r+0x5a0>
  8048bc:	20800017 	ldw	r2,0(r4)
  8048c0:	dd000017 	ldw	r20,0(sp)
  8048c4:	b80f883a 	mov	r7,r23
  8048c8:	40800015 	stw	r2,0(r8)
  8048cc:	20c00117 	ldw	r3,4(r4)
  8048d0:	40c00115 	stw	r3,4(r8)
  8048d4:	20800217 	ldw	r2,8(r4)
  8048d8:	40800215 	stw	r2,8(r8)
  8048dc:	003f9706 	br	80473c <_realloc_r+0x84>
  8048e0:	98a9883a 	add	r20,r19,r2
  8048e4:	a1c01f16 	blt	r20,r7,804964 <_realloc_r+0x2ac>
  8048e8:	b8c00317 	ldw	r3,12(r23)
  8048ec:	b8800217 	ldw	r2,8(r23)
  8048f0:	99bfff04 	addi	r6,r19,-4
  8048f4:	01400904 	movi	r5,36
  8048f8:	b82b883a 	mov	r21,r23
  8048fc:	18800215 	stw	r2,8(r3)
  804900:	10c00315 	stw	r3,12(r2)
  804904:	bc000204 	addi	r16,r23,8
  804908:	2980c336 	bltu	r5,r6,804c18 <_realloc_r+0x560>
  80490c:	008004c4 	movi	r2,19
  804910:	9009883a 	mov	r4,r18
  804914:	8011883a 	mov	r8,r16
  804918:	11800f2e 	bgeu	r2,r6,804958 <_realloc_r+0x2a0>
  80491c:	90800017 	ldw	r2,0(r18)
  804920:	ba000404 	addi	r8,r23,16
  804924:	91000204 	addi	r4,r18,8
  804928:	b8800215 	stw	r2,8(r23)
  80492c:	90c00117 	ldw	r3,4(r18)
  804930:	008006c4 	movi	r2,27
  804934:	b8c00315 	stw	r3,12(r23)
  804938:	1180072e 	bgeu	r2,r6,804958 <_realloc_r+0x2a0>
  80493c:	90c00217 	ldw	r3,8(r18)
  804940:	ba000604 	addi	r8,r23,24
  804944:	91000404 	addi	r4,r18,16
  804948:	b8c00415 	stw	r3,16(r23)
  80494c:	90800317 	ldw	r2,12(r18)
  804950:	b8800515 	stw	r2,20(r23)
  804954:	3140c726 	beq	r6,r5,804c74 <_realloc_r+0x5bc>
  804958:	20800017 	ldw	r2,0(r4)
  80495c:	b80f883a 	mov	r7,r23
  804960:	003fd906 	br	8048c8 <_realloc_r+0x210>
  804964:	880b883a 	mov	r5,r17
  804968:	b009883a 	mov	r4,r22
  80496c:	0801ee80 	call	801ee8 <_malloc_r>
  804970:	1023883a 	mov	r17,r2
  804974:	10002526 	beq	r2,zero,804a0c <_realloc_r+0x354>
  804978:	80800117 	ldw	r2,4(r16)
  80497c:	00ffff84 	movi	r3,-2
  804980:	893ffe04 	addi	r4,r17,-8
  804984:	10c4703a 	and	r2,r2,r3
  804988:	8085883a 	add	r2,r16,r2
  80498c:	20809526 	beq	r4,r2,804be4 <_realloc_r+0x52c>
  804990:	99bfff04 	addi	r6,r19,-4
  804994:	01c00904 	movi	r7,36
  804998:	39804536 	bltu	r7,r6,804ab0 <_realloc_r+0x3f8>
  80499c:	008004c4 	movi	r2,19
  8049a0:	9009883a 	mov	r4,r18
  8049a4:	880b883a 	mov	r5,r17
  8049a8:	11800f2e 	bgeu	r2,r6,8049e8 <_realloc_r+0x330>
  8049ac:	90800017 	ldw	r2,0(r18)
  8049b0:	89400204 	addi	r5,r17,8
  8049b4:	91000204 	addi	r4,r18,8
  8049b8:	88800015 	stw	r2,0(r17)
  8049bc:	90c00117 	ldw	r3,4(r18)
  8049c0:	008006c4 	movi	r2,27
  8049c4:	88c00115 	stw	r3,4(r17)
  8049c8:	1180072e 	bgeu	r2,r6,8049e8 <_realloc_r+0x330>
  8049cc:	90c00217 	ldw	r3,8(r18)
  8049d0:	89400404 	addi	r5,r17,16
  8049d4:	91000404 	addi	r4,r18,16
  8049d8:	88c00215 	stw	r3,8(r17)
  8049dc:	90800317 	ldw	r2,12(r18)
  8049e0:	88800315 	stw	r2,12(r17)
  8049e4:	31c09126 	beq	r6,r7,804c2c <_realloc_r+0x574>
  8049e8:	20800017 	ldw	r2,0(r4)
  8049ec:	28800015 	stw	r2,0(r5)
  8049f0:	20c00117 	ldw	r3,4(r4)
  8049f4:	28c00115 	stw	r3,4(r5)
  8049f8:	20800217 	ldw	r2,8(r4)
  8049fc:	28800215 	stw	r2,8(r5)
  804a00:	900b883a 	mov	r5,r18
  804a04:	b009883a 	mov	r4,r22
  804a08:	08033b00 	call	8033b0 <_free_r>
  804a0c:	b009883a 	mov	r4,r22
  804a10:	08072b00 	call	8072b0 <__malloc_unlock>
  804a14:	003f5e06 	br	804790 <_realloc_r+0xd8>
  804a18:	300b883a 	mov	r5,r6
  804a1c:	dfc00b17 	ldw	ra,44(sp)
  804a20:	df000a17 	ldw	fp,40(sp)
  804a24:	ddc00917 	ldw	r23,36(sp)
  804a28:	dd800817 	ldw	r22,32(sp)
  804a2c:	dd400717 	ldw	r21,28(sp)
  804a30:	dd000617 	ldw	r20,24(sp)
  804a34:	dcc00517 	ldw	r19,20(sp)
  804a38:	dc800417 	ldw	r18,16(sp)
  804a3c:	dc400317 	ldw	r17,12(sp)
  804a40:	dc000217 	ldw	r16,8(sp)
  804a44:	dec00c04 	addi	sp,sp,48
  804a48:	0801ee81 	jmpi	801ee8 <_malloc_r>
  804a4c:	38800117 	ldw	r2,4(r7)
  804a50:	e54b883a 	add	r5,fp,r21
  804a54:	31000054 	ori	r4,r6,1
  804a58:	1080004c 	andi	r2,r2,1
  804a5c:	1704b03a 	or	r2,r2,fp
  804a60:	38800115 	stw	r2,4(r7)
  804a64:	29000115 	stw	r4,4(r5)
  804a68:	2987883a 	add	r3,r5,r6
  804a6c:	18800117 	ldw	r2,4(r3)
  804a70:	29400204 	addi	r5,r5,8
  804a74:	b009883a 	mov	r4,r22
  804a78:	10800054 	ori	r2,r2,1
  804a7c:	18800115 	stw	r2,4(r3)
  804a80:	08033b00 	call	8033b0 <_free_r>
  804a84:	003f3806 	br	804768 <_realloc_r+0xb0>
  804a88:	000d883a 	mov	r6,zero
  804a8c:	0009883a 	mov	r4,zero
  804a90:	003f5d06 	br	804808 <_realloc_r+0x150>
  804a94:	30c00217 	ldw	r3,8(r6)
  804a98:	30800317 	ldw	r2,12(r6)
  804a9c:	800f883a 	mov	r7,r16
  804aa0:	84000204 	addi	r16,r16,8
  804aa4:	10c00215 	stw	r3,8(r2)
  804aa8:	18800315 	stw	r2,12(r3)
  804aac:	003f2306 	br	80473c <_realloc_r+0x84>
  804ab0:	8809883a 	mov	r4,r17
  804ab4:	900b883a 	mov	r5,r18
  804ab8:	08065b80 	call	8065b8 <memmove>
  804abc:	003fd006 	br	804a00 <_realloc_r+0x348>
  804ac0:	30800117 	ldw	r2,4(r6)
  804ac4:	e0c00404 	addi	r3,fp,16
  804ac8:	1108703a 	and	r4,r2,r4
  804acc:	9905883a 	add	r2,r19,r4
  804ad0:	10ff4d16 	blt	r2,r3,804808 <_realloc_r+0x150>
  804ad4:	1705c83a 	sub	r2,r2,fp
  804ad8:	870b883a 	add	r5,r16,fp
  804adc:	10800054 	ori	r2,r2,1
  804ae0:	28800115 	stw	r2,4(r5)
  804ae4:	80c00117 	ldw	r3,4(r16)
  804ae8:	00802074 	movhi	r2,129
  804aec:	10a7f504 	addi	r2,r2,-24620
  804af0:	b009883a 	mov	r4,r22
  804af4:	18c0004c 	andi	r3,r3,1
  804af8:	e0c6b03a 	or	r3,fp,r3
  804afc:	11400215 	stw	r5,8(r2)
  804b00:	80c00115 	stw	r3,4(r16)
  804b04:	08072b00 	call	8072b0 <__malloc_unlock>
  804b08:	84400204 	addi	r17,r16,8
  804b0c:	003f2006 	br	804790 <_realloc_r+0xd8>
  804b10:	98a9883a 	add	r20,r19,r2
  804b14:	2509883a 	add	r4,r4,r20
  804b18:	e0800404 	addi	r2,fp,16
  804b1c:	d9000115 	stw	r4,4(sp)
  804b20:	20bf7016 	blt	r4,r2,8048e4 <_realloc_r+0x22c>
  804b24:	b8c00317 	ldw	r3,12(r23)
  804b28:	b8800217 	ldw	r2,8(r23)
  804b2c:	99bfff04 	addi	r6,r19,-4
  804b30:	01400904 	movi	r5,36
  804b34:	18800215 	stw	r2,8(r3)
  804b38:	10c00315 	stw	r3,12(r2)
  804b3c:	bc400204 	addi	r17,r23,8
  804b40:	29804136 	bltu	r5,r6,804c48 <_realloc_r+0x590>
  804b44:	008004c4 	movi	r2,19
  804b48:	9009883a 	mov	r4,r18
  804b4c:	880f883a 	mov	r7,r17
  804b50:	11800f2e 	bgeu	r2,r6,804b90 <_realloc_r+0x4d8>
  804b54:	90800017 	ldw	r2,0(r18)
  804b58:	b9c00404 	addi	r7,r23,16
  804b5c:	91000204 	addi	r4,r18,8
  804b60:	b8800215 	stw	r2,8(r23)
  804b64:	90c00117 	ldw	r3,4(r18)
  804b68:	008006c4 	movi	r2,27
  804b6c:	b8c00315 	stw	r3,12(r23)
  804b70:	1180072e 	bgeu	r2,r6,804b90 <_realloc_r+0x4d8>
  804b74:	90c00217 	ldw	r3,8(r18)
  804b78:	b9c00604 	addi	r7,r23,24
  804b7c:	91000404 	addi	r4,r18,16
  804b80:	b8c00415 	stw	r3,16(r23)
  804b84:	90800317 	ldw	r2,12(r18)
  804b88:	b8800515 	stw	r2,20(r23)
  804b8c:	31404026 	beq	r6,r5,804c90 <_realloc_r+0x5d8>
  804b90:	20800017 	ldw	r2,0(r4)
  804b94:	38800015 	stw	r2,0(r7)
  804b98:	20c00117 	ldw	r3,4(r4)
  804b9c:	38c00115 	stw	r3,4(r7)
  804ba0:	20800217 	ldw	r2,8(r4)
  804ba4:	38800215 	stw	r2,8(r7)
  804ba8:	d8c00117 	ldw	r3,4(sp)
  804bac:	bf0b883a 	add	r5,r23,fp
  804bb0:	b009883a 	mov	r4,r22
  804bb4:	1f05c83a 	sub	r2,r3,fp
  804bb8:	10800054 	ori	r2,r2,1
  804bbc:	28800115 	stw	r2,4(r5)
  804bc0:	b8c00117 	ldw	r3,4(r23)
  804bc4:	00802074 	movhi	r2,129
  804bc8:	10a7f504 	addi	r2,r2,-24620
  804bcc:	11400215 	stw	r5,8(r2)
  804bd0:	18c0004c 	andi	r3,r3,1
  804bd4:	e0c6b03a 	or	r3,fp,r3
  804bd8:	b8c00115 	stw	r3,4(r23)
  804bdc:	08072b00 	call	8072b0 <__malloc_unlock>
  804be0:	003eeb06 	br	804790 <_realloc_r+0xd8>
  804be4:	20800117 	ldw	r2,4(r4)
  804be8:	00ffff04 	movi	r3,-4
  804bec:	800f883a 	mov	r7,r16
  804bf0:	10c4703a 	and	r2,r2,r3
  804bf4:	98a9883a 	add	r20,r19,r2
  804bf8:	84000204 	addi	r16,r16,8
  804bfc:	003ecf06 	br	80473c <_realloc_r+0x84>
  804c00:	900b883a 	mov	r5,r18
  804c04:	8009883a 	mov	r4,r16
  804c08:	08065b80 	call	8065b8 <memmove>
  804c0c:	dd000017 	ldw	r20,0(sp)
  804c10:	b80f883a 	mov	r7,r23
  804c14:	003ec906 	br	80473c <_realloc_r+0x84>
  804c18:	900b883a 	mov	r5,r18
  804c1c:	8009883a 	mov	r4,r16
  804c20:	08065b80 	call	8065b8 <memmove>
  804c24:	b80f883a 	mov	r7,r23
  804c28:	003ec406 	br	80473c <_realloc_r+0x84>
  804c2c:	90c00417 	ldw	r3,16(r18)
  804c30:	89400604 	addi	r5,r17,24
  804c34:	91000604 	addi	r4,r18,24
  804c38:	88c00415 	stw	r3,16(r17)
  804c3c:	90800517 	ldw	r2,20(r18)
  804c40:	88800515 	stw	r2,20(r17)
  804c44:	003f6806 	br	8049e8 <_realloc_r+0x330>
  804c48:	900b883a 	mov	r5,r18
  804c4c:	8809883a 	mov	r4,r17
  804c50:	08065b80 	call	8065b8 <memmove>
  804c54:	003fd406 	br	804ba8 <_realloc_r+0x4f0>
  804c58:	90c00417 	ldw	r3,16(r18)
  804c5c:	91000604 	addi	r4,r18,24
  804c60:	ba000804 	addi	r8,r23,32
  804c64:	b8c00615 	stw	r3,24(r23)
  804c68:	90800517 	ldw	r2,20(r18)
  804c6c:	b8800715 	stw	r2,28(r23)
  804c70:	003f1206 	br	8048bc <_realloc_r+0x204>
  804c74:	90c00417 	ldw	r3,16(r18)
  804c78:	91000604 	addi	r4,r18,24
  804c7c:	ba000804 	addi	r8,r23,32
  804c80:	b8c00615 	stw	r3,24(r23)
  804c84:	90800517 	ldw	r2,20(r18)
  804c88:	b8800715 	stw	r2,28(r23)
  804c8c:	003f3206 	br	804958 <_realloc_r+0x2a0>
  804c90:	90c00417 	ldw	r3,16(r18)
  804c94:	91000604 	addi	r4,r18,24
  804c98:	b9c00804 	addi	r7,r23,32
  804c9c:	b8c00615 	stw	r3,24(r23)
  804ca0:	90800517 	ldw	r2,20(r18)
  804ca4:	b8800715 	stw	r2,28(r23)
  804ca8:	003fb906 	br	804b90 <_realloc_r+0x4d8>

00804cac <strcpy>:
  804cac:	2904b03a 	or	r2,r5,r4
  804cb0:	108000cc 	andi	r2,r2,3
  804cb4:	10000826 	beq	r2,zero,804cd8 <strcpy+0x2c>
  804cb8:	2007883a 	mov	r3,r4
  804cbc:	28800003 	ldbu	r2,0(r5)
  804cc0:	29400044 	addi	r5,r5,1
  804cc4:	18800005 	stb	r2,0(r3)
  804cc8:	18c00044 	addi	r3,r3,1
  804ccc:	103ffb1e 	bne	r2,zero,804cbc <strcpy+0x10>
  804cd0:	2005883a 	mov	r2,r4
  804cd4:	f800283a 	ret
  804cd8:	29800017 	ldw	r6,0(r5)
  804cdc:	023fbff4 	movhi	r8,65279
  804ce0:	423fbfc4 	addi	r8,r8,-257
  804ce4:	02a02074 	movhi	r10,32897
  804ce8:	52a02004 	addi	r10,r10,-32640
  804cec:	3205883a 	add	r2,r6,r8
  804cf0:	0186303a 	nor	r3,zero,r6
  804cf4:	10c4703a 	and	r2,r2,r3
  804cf8:	1284703a 	and	r2,r2,r10
  804cfc:	200f883a 	mov	r7,r4
  804d00:	10000b1e 	bne	r2,zero,804d30 <strcpy+0x84>
  804d04:	4013883a 	mov	r9,r8
  804d08:	5011883a 	mov	r8,r10
  804d0c:	39800015 	stw	r6,0(r7)
  804d10:	29400104 	addi	r5,r5,4
  804d14:	29800017 	ldw	r6,0(r5)
  804d18:	39c00104 	addi	r7,r7,4
  804d1c:	3245883a 	add	r2,r6,r9
  804d20:	0186303a 	nor	r3,zero,r6
  804d24:	10c4703a 	and	r2,r2,r3
  804d28:	1204703a 	and	r2,r2,r8
  804d2c:	103ff726 	beq	r2,zero,804d0c <strcpy+0x60>
  804d30:	3807883a 	mov	r3,r7
  804d34:	003fe106 	br	804cbc <strcpy+0x10>

00804d38 <_calloc_r>:
  804d38:	298b383a 	mul	r5,r5,r6
  804d3c:	defffe04 	addi	sp,sp,-8
  804d40:	dc000015 	stw	r16,0(sp)
  804d44:	dfc00115 	stw	ra,4(sp)
  804d48:	0801ee80 	call	801ee8 <_malloc_r>
  804d4c:	1021883a 	mov	r16,r2
  804d50:	01c00904 	movi	r7,36
  804d54:	10000d26 	beq	r2,zero,804d8c <_calloc_r+0x54>
  804d58:	10ffff17 	ldw	r3,-4(r2)
  804d5c:	1009883a 	mov	r4,r2
  804d60:	00bfff04 	movi	r2,-4
  804d64:	1886703a 	and	r3,r3,r2
  804d68:	1887883a 	add	r3,r3,r2
  804d6c:	180d883a 	mov	r6,r3
  804d70:	000b883a 	mov	r5,zero
  804d74:	38c01736 	bltu	r7,r3,804dd4 <_calloc_r+0x9c>
  804d78:	008004c4 	movi	r2,19
  804d7c:	10c00836 	bltu	r2,r3,804da0 <_calloc_r+0x68>
  804d80:	20000215 	stw	zero,8(r4)
  804d84:	20000015 	stw	zero,0(r4)
  804d88:	20000115 	stw	zero,4(r4)
  804d8c:	8005883a 	mov	r2,r16
  804d90:	dfc00117 	ldw	ra,4(sp)
  804d94:	dc000017 	ldw	r16,0(sp)
  804d98:	dec00204 	addi	sp,sp,8
  804d9c:	f800283a 	ret
  804da0:	008006c4 	movi	r2,27
  804da4:	80000015 	stw	zero,0(r16)
  804da8:	80000115 	stw	zero,4(r16)
  804dac:	81000204 	addi	r4,r16,8
  804db0:	10fff32e 	bgeu	r2,r3,804d80 <_calloc_r+0x48>
  804db4:	80000215 	stw	zero,8(r16)
  804db8:	80000315 	stw	zero,12(r16)
  804dbc:	81000404 	addi	r4,r16,16
  804dc0:	19ffef1e 	bne	r3,r7,804d80 <_calloc_r+0x48>
  804dc4:	81000604 	addi	r4,r16,24
  804dc8:	80000415 	stw	zero,16(r16)
  804dcc:	80000515 	stw	zero,20(r16)
  804dd0:	003feb06 	br	804d80 <_calloc_r+0x48>
  804dd4:	08066980 	call	806698 <memset>
  804dd8:	8005883a 	mov	r2,r16
  804ddc:	dfc00117 	ldw	ra,4(sp)
  804de0:	dc000017 	ldw	r16,0(sp)
  804de4:	dec00204 	addi	sp,sp,8
  804de8:	f800283a 	ret

00804dec <quorem>:
  804dec:	28c00417 	ldw	r3,16(r5)
  804df0:	20800417 	ldw	r2,16(r4)
  804df4:	defff604 	addi	sp,sp,-40
  804df8:	ddc00715 	stw	r23,28(sp)
  804dfc:	dd400515 	stw	r21,20(sp)
  804e00:	dfc00915 	stw	ra,36(sp)
  804e04:	df000815 	stw	fp,32(sp)
  804e08:	dd800615 	stw	r22,24(sp)
  804e0c:	dd000415 	stw	r20,16(sp)
  804e10:	dcc00315 	stw	r19,12(sp)
  804e14:	dc800215 	stw	r18,8(sp)
  804e18:	dc400115 	stw	r17,4(sp)
  804e1c:	dc000015 	stw	r16,0(sp)
  804e20:	202f883a 	mov	r23,r4
  804e24:	282b883a 	mov	r21,r5
  804e28:	10c07416 	blt	r2,r3,804ffc <quorem+0x210>
  804e2c:	1c7fffc4 	addi	r17,r3,-1
  804e30:	8c45883a 	add	r2,r17,r17
  804e34:	1085883a 	add	r2,r2,r2
  804e38:	2c000504 	addi	r16,r5,20
  804e3c:	24c00504 	addi	r19,r4,20
  804e40:	14ed883a 	add	r22,r2,r19
  804e44:	80a5883a 	add	r18,r16,r2
  804e48:	b7000017 	ldw	fp,0(r22)
  804e4c:	91400017 	ldw	r5,0(r18)
  804e50:	e009883a 	mov	r4,fp
  804e54:	29400044 	addi	r5,r5,1
  804e58:	08070d00 	call	8070d0 <__udivsi3>
  804e5c:	1029883a 	mov	r20,r2
  804e60:	10003c1e 	bne	r2,zero,804f54 <quorem+0x168>
  804e64:	a80b883a 	mov	r5,r21
  804e68:	b809883a 	mov	r4,r23
  804e6c:	08038200 	call	803820 <__mcmp>
  804e70:	10002b16 	blt	r2,zero,804f20 <quorem+0x134>
  804e74:	a5000044 	addi	r20,r20,1
  804e78:	980f883a 	mov	r7,r19
  804e7c:	0011883a 	mov	r8,zero
  804e80:	0009883a 	mov	r4,zero
  804e84:	81400017 	ldw	r5,0(r16)
  804e88:	38c00017 	ldw	r3,0(r7)
  804e8c:	84000104 	addi	r16,r16,4
  804e90:	28bfffcc 	andi	r2,r5,65535
  804e94:	2085883a 	add	r2,r4,r2
  804e98:	11bfffcc 	andi	r6,r2,65535
  804e9c:	193fffcc 	andi	r4,r3,65535
  804ea0:	1004d43a 	srli	r2,r2,16
  804ea4:	280ad43a 	srli	r5,r5,16
  804ea8:	2189c83a 	sub	r4,r4,r6
  804eac:	2209883a 	add	r4,r4,r8
  804eb0:	1806d43a 	srli	r3,r3,16
  804eb4:	288b883a 	add	r5,r5,r2
  804eb8:	200dd43a 	srai	r6,r4,16
  804ebc:	28bfffcc 	andi	r2,r5,65535
  804ec0:	1887c83a 	sub	r3,r3,r2
  804ec4:	1987883a 	add	r3,r3,r6
  804ec8:	3900000d 	sth	r4,0(r7)
  804ecc:	38c0008d 	sth	r3,2(r7)
  804ed0:	2808d43a 	srli	r4,r5,16
  804ed4:	39c00104 	addi	r7,r7,4
  804ed8:	1811d43a 	srai	r8,r3,16
  804edc:	943fe92e 	bgeu	r18,r16,804e84 <quorem+0x98>
  804ee0:	8c45883a 	add	r2,r17,r17
  804ee4:	1085883a 	add	r2,r2,r2
  804ee8:	9885883a 	add	r2,r19,r2
  804eec:	10c00017 	ldw	r3,0(r2)
  804ef0:	18000b1e 	bne	r3,zero,804f20 <quorem+0x134>
  804ef4:	113fff04 	addi	r4,r2,-4
  804ef8:	9900082e 	bgeu	r19,r4,804f1c <quorem+0x130>
  804efc:	10bfff17 	ldw	r2,-4(r2)
  804f00:	10000326 	beq	r2,zero,804f10 <quorem+0x124>
  804f04:	00000506 	br	804f1c <quorem+0x130>
  804f08:	20800017 	ldw	r2,0(r4)
  804f0c:	1000031e 	bne	r2,zero,804f1c <quorem+0x130>
  804f10:	213fff04 	addi	r4,r4,-4
  804f14:	8c7fffc4 	addi	r17,r17,-1
  804f18:	993ffb36 	bltu	r19,r4,804f08 <quorem+0x11c>
  804f1c:	bc400415 	stw	r17,16(r23)
  804f20:	a005883a 	mov	r2,r20
  804f24:	dfc00917 	ldw	ra,36(sp)
  804f28:	df000817 	ldw	fp,32(sp)
  804f2c:	ddc00717 	ldw	r23,28(sp)
  804f30:	dd800617 	ldw	r22,24(sp)
  804f34:	dd400517 	ldw	r21,20(sp)
  804f38:	dd000417 	ldw	r20,16(sp)
  804f3c:	dcc00317 	ldw	r19,12(sp)
  804f40:	dc800217 	ldw	r18,8(sp)
  804f44:	dc400117 	ldw	r17,4(sp)
  804f48:	dc000017 	ldw	r16,0(sp)
  804f4c:	dec00a04 	addi	sp,sp,40
  804f50:	f800283a 	ret
  804f54:	980f883a 	mov	r7,r19
  804f58:	8011883a 	mov	r8,r16
  804f5c:	0013883a 	mov	r9,zero
  804f60:	000d883a 	mov	r6,zero
  804f64:	40c00017 	ldw	r3,0(r8)
  804f68:	39000017 	ldw	r4,0(r7)
  804f6c:	42000104 	addi	r8,r8,4
  804f70:	18bfffcc 	andi	r2,r3,65535
  804f74:	a085383a 	mul	r2,r20,r2
  804f78:	1806d43a 	srli	r3,r3,16
  804f7c:	217fffcc 	andi	r5,r4,65535
  804f80:	3085883a 	add	r2,r6,r2
  804f84:	11bfffcc 	andi	r6,r2,65535
  804f88:	a0c7383a 	mul	r3,r20,r3
  804f8c:	1004d43a 	srli	r2,r2,16
  804f90:	298bc83a 	sub	r5,r5,r6
  804f94:	2a4b883a 	add	r5,r5,r9
  804f98:	2008d43a 	srli	r4,r4,16
  804f9c:	1887883a 	add	r3,r3,r2
  804fa0:	280dd43a 	srai	r6,r5,16
  804fa4:	18bfffcc 	andi	r2,r3,65535
  804fa8:	2089c83a 	sub	r4,r4,r2
  804fac:	2189883a 	add	r4,r4,r6
  804fb0:	3900008d 	sth	r4,2(r7)
  804fb4:	3940000d 	sth	r5,0(r7)
  804fb8:	180cd43a 	srli	r6,r3,16
  804fbc:	39c00104 	addi	r7,r7,4
  804fc0:	2013d43a 	srai	r9,r4,16
  804fc4:	923fe72e 	bgeu	r18,r8,804f64 <quorem+0x178>
  804fc8:	e03fa61e 	bne	fp,zero,804e64 <quorem+0x78>
  804fcc:	b0ffff04 	addi	r3,r22,-4
  804fd0:	98c0082e 	bgeu	r19,r3,804ff4 <quorem+0x208>
  804fd4:	b0bfff17 	ldw	r2,-4(r22)
  804fd8:	10000326 	beq	r2,zero,804fe8 <quorem+0x1fc>
  804fdc:	00000506 	br	804ff4 <quorem+0x208>
  804fe0:	18800017 	ldw	r2,0(r3)
  804fe4:	1000031e 	bne	r2,zero,804ff4 <quorem+0x208>
  804fe8:	18ffff04 	addi	r3,r3,-4
  804fec:	8c7fffc4 	addi	r17,r17,-1
  804ff0:	98fffb36 	bltu	r19,r3,804fe0 <quorem+0x1f4>
  804ff4:	bc400415 	stw	r17,16(r23)
  804ff8:	003f9a06 	br	804e64 <quorem+0x78>
  804ffc:	0005883a 	mov	r2,zero
  805000:	003fc806 	br	804f24 <quorem+0x138>

00805004 <_dtoa_r>:
  805004:	22001017 	ldw	r8,64(r4)
  805008:	deffda04 	addi	sp,sp,-152
  80500c:	dd402115 	stw	r21,132(sp)
  805010:	dd002015 	stw	r20,128(sp)
  805014:	dc801e15 	stw	r18,120(sp)
  805018:	dc401d15 	stw	r17,116(sp)
  80501c:	dfc02515 	stw	ra,148(sp)
  805020:	df002415 	stw	fp,144(sp)
  805024:	ddc02315 	stw	r23,140(sp)
  805028:	dd802215 	stw	r22,136(sp)
  80502c:	dcc01f15 	stw	r19,124(sp)
  805030:	dc001c15 	stw	r16,112(sp)
  805034:	d9001615 	stw	r4,88(sp)
  805038:	3023883a 	mov	r17,r6
  80503c:	2829883a 	mov	r20,r5
  805040:	d9c01715 	stw	r7,92(sp)
  805044:	dc802817 	ldw	r18,160(sp)
  805048:	302b883a 	mov	r21,r6
  80504c:	40000a26 	beq	r8,zero,805078 <_dtoa_r+0x74>
  805050:	20801117 	ldw	r2,68(r4)
  805054:	400b883a 	mov	r5,r8
  805058:	40800115 	stw	r2,4(r8)
  80505c:	20c01117 	ldw	r3,68(r4)
  805060:	00800044 	movi	r2,1
  805064:	10c4983a 	sll	r2,r2,r3
  805068:	40800215 	stw	r2,8(r8)
  80506c:	08036c40 	call	8036c4 <_Bfree>
  805070:	d8c01617 	ldw	r3,88(sp)
  805074:	18001015 	stw	zero,64(r3)
  805078:	8800a316 	blt	r17,zero,805308 <_dtoa_r+0x304>
  80507c:	90000015 	stw	zero,0(r18)
  805080:	a8dffc2c 	andhi	r3,r21,32752
  805084:	009ffc34 	movhi	r2,32752
  805088:	18809126 	beq	r3,r2,8052d0 <_dtoa_r+0x2cc>
  80508c:	000d883a 	mov	r6,zero
  805090:	000f883a 	mov	r7,zero
  805094:	a009883a 	mov	r4,r20
  805098:	a80b883a 	mov	r5,r21
  80509c:	dd001215 	stw	r20,72(sp)
  8050a0:	dd401315 	stw	r21,76(sp)
  8050a4:	0806c140 	call	806c14 <__nedf2>
  8050a8:	1000171e 	bne	r2,zero,805108 <_dtoa_r+0x104>
  8050ac:	d9802717 	ldw	r6,156(sp)
  8050b0:	00800044 	movi	r2,1
  8050b4:	30800015 	stw	r2,0(r6)
  8050b8:	d8802917 	ldw	r2,164(sp)
  8050bc:	10029b26 	beq	r2,zero,805b2c <_dtoa_r+0xb28>
  8050c0:	d9002917 	ldw	r4,164(sp)
  8050c4:	00802074 	movhi	r2,129
  8050c8:	10a6ed44 	addi	r2,r2,-25675
  8050cc:	10ffffc4 	addi	r3,r2,-1
  8050d0:	20800015 	stw	r2,0(r4)
  8050d4:	1805883a 	mov	r2,r3
  8050d8:	dfc02517 	ldw	ra,148(sp)
  8050dc:	df002417 	ldw	fp,144(sp)
  8050e0:	ddc02317 	ldw	r23,140(sp)
  8050e4:	dd802217 	ldw	r22,136(sp)
  8050e8:	dd402117 	ldw	r21,132(sp)
  8050ec:	dd002017 	ldw	r20,128(sp)
  8050f0:	dcc01f17 	ldw	r19,124(sp)
  8050f4:	dc801e17 	ldw	r18,120(sp)
  8050f8:	dc401d17 	ldw	r17,116(sp)
  8050fc:	dc001c17 	ldw	r16,112(sp)
  805100:	dec02604 	addi	sp,sp,152
  805104:	f800283a 	ret
  805108:	d9001617 	ldw	r4,88(sp)
  80510c:	d9401217 	ldw	r5,72(sp)
  805110:	d8800104 	addi	r2,sp,4
  805114:	a80d883a 	mov	r6,r21
  805118:	d9c00204 	addi	r7,sp,8
  80511c:	d8800015 	stw	r2,0(sp)
  805120:	0803d000 	call	803d00 <__d2b>
  805124:	d8800715 	stw	r2,28(sp)
  805128:	a804d53a 	srli	r2,r21,20
  80512c:	1101ffcc 	andi	r4,r2,2047
  805130:	20008626 	beq	r4,zero,80534c <_dtoa_r+0x348>
  805134:	d8c01217 	ldw	r3,72(sp)
  805138:	00800434 	movhi	r2,16
  80513c:	10bfffc4 	addi	r2,r2,-1
  805140:	ddc00117 	ldw	r23,4(sp)
  805144:	a884703a 	and	r2,r21,r2
  805148:	1811883a 	mov	r8,r3
  80514c:	124ffc34 	orhi	r9,r2,16368
  805150:	25bf0044 	addi	r22,r4,-1023
  805154:	d8000815 	stw	zero,32(sp)
  805158:	0005883a 	mov	r2,zero
  80515c:	00cffe34 	movhi	r3,16376
  805160:	480b883a 	mov	r5,r9
  805164:	4009883a 	mov	r4,r8
  805168:	180f883a 	mov	r7,r3
  80516c:	100d883a 	mov	r6,r2
  805170:	0800fc00 	call	800fc0 <__subdf3>
  805174:	0218dbf4 	movhi	r8,25455
  805178:	4210d844 	addi	r8,r8,17249
  80517c:	024ff4f4 	movhi	r9,16339
  805180:	4a61e9c4 	addi	r9,r9,-30809
  805184:	480f883a 	mov	r7,r9
  805188:	400d883a 	mov	r6,r8
  80518c:	180b883a 	mov	r5,r3
  805190:	1009883a 	mov	r4,r2
  805194:	08067c80 	call	8067c8 <__muldf3>
  805198:	0222d874 	movhi	r8,35681
  80519c:	42322cc4 	addi	r8,r8,-14157
  8051a0:	024ff1f4 	movhi	r9,16327
  8051a4:	4a628a04 	addi	r9,r9,-30168
  8051a8:	480f883a 	mov	r7,r9
  8051ac:	400d883a 	mov	r6,r8
  8051b0:	180b883a 	mov	r5,r3
  8051b4:	1009883a 	mov	r4,r2
  8051b8:	08010400 	call	801040 <__adddf3>
  8051bc:	b009883a 	mov	r4,r22
  8051c0:	1021883a 	mov	r16,r2
  8051c4:	1823883a 	mov	r17,r3
  8051c8:	080130c0 	call	80130c <__floatsidf>
  8051cc:	021427f4 	movhi	r8,20639
  8051d0:	421e7ec4 	addi	r8,r8,31227
  8051d4:	024ff4f4 	movhi	r9,16339
  8051d8:	4a5104c4 	addi	r9,r9,17427
  8051dc:	480f883a 	mov	r7,r9
  8051e0:	400d883a 	mov	r6,r8
  8051e4:	180b883a 	mov	r5,r3
  8051e8:	1009883a 	mov	r4,r2
  8051ec:	08067c80 	call	8067c8 <__muldf3>
  8051f0:	180f883a 	mov	r7,r3
  8051f4:	880b883a 	mov	r5,r17
  8051f8:	100d883a 	mov	r6,r2
  8051fc:	8009883a 	mov	r4,r16
  805200:	08010400 	call	801040 <__adddf3>
  805204:	1009883a 	mov	r4,r2
  805208:	180b883a 	mov	r5,r3
  80520c:	1021883a 	mov	r16,r2
  805210:	1823883a 	mov	r17,r3
  805214:	0806ebc0 	call	806ebc <__fixdfsi>
  805218:	000d883a 	mov	r6,zero
  80521c:	000f883a 	mov	r7,zero
  805220:	8009883a 	mov	r4,r16
  805224:	880b883a 	mov	r5,r17
  805228:	d8800d15 	stw	r2,52(sp)
  80522c:	0806dac0 	call	806dac <__ltdf2>
  805230:	10031716 	blt	r2,zero,805e90 <_dtoa_r+0xe8c>
  805234:	d8c00d17 	ldw	r3,52(sp)
  805238:	00800584 	movi	r2,22
  80523c:	10c1482e 	bgeu	r2,r3,805760 <_dtoa_r+0x75c>
  805240:	01000044 	movi	r4,1
  805244:	d9000c15 	stw	r4,48(sp)
  805248:	bd85c83a 	sub	r2,r23,r22
  80524c:	11bfffc4 	addi	r6,r2,-1
  805250:	30030b16 	blt	r6,zero,805e80 <_dtoa_r+0xe7c>
  805254:	d9800a15 	stw	r6,40(sp)
  805258:	d8001115 	stw	zero,68(sp)
  80525c:	d8c00d17 	ldw	r3,52(sp)
  805260:	1802ff16 	blt	r3,zero,805e60 <_dtoa_r+0xe5c>
  805264:	d9000a17 	ldw	r4,40(sp)
  805268:	d8c00915 	stw	r3,36(sp)
  80526c:	d8001015 	stw	zero,64(sp)
  805270:	20c9883a 	add	r4,r4,r3
  805274:	d9000a15 	stw	r4,40(sp)
  805278:	d9001717 	ldw	r4,92(sp)
  80527c:	00800244 	movi	r2,9
  805280:	11004636 	bltu	r2,r4,80539c <_dtoa_r+0x398>
  805284:	00800144 	movi	r2,5
  805288:	11020416 	blt	r2,r4,805a9c <_dtoa_r+0xa98>
  80528c:	04400044 	movi	r17,1
  805290:	d8c01717 	ldw	r3,92(sp)
  805294:	00800144 	movi	r2,5
  805298:	10c1ed36 	bltu	r2,r3,805a50 <_dtoa_r+0xa4c>
  80529c:	18c5883a 	add	r2,r3,r3
  8052a0:	1085883a 	add	r2,r2,r2
  8052a4:	00c02034 	movhi	r3,128
  8052a8:	18d4ae04 	addi	r3,r3,21176
  8052ac:	10c5883a 	add	r2,r2,r3
  8052b0:	11000017 	ldw	r4,0(r2)
  8052b4:	2000683a 	jmp	r4
  8052b8:	008053a4 	muli	r2,zero,334
  8052bc:	008053a4 	muli	r2,zero,334
  8052c0:	00805da4 	muli	r2,zero,374
  8052c4:	00805d7c 	xorhi	r2,zero,373
  8052c8:	00805dc0 	call	805dc <__reset-0x77fa24>
  8052cc:	00805dcc 	andi	r2,zero,375
  8052d0:	d9002717 	ldw	r4,156(sp)
  8052d4:	0089c3c4 	movi	r2,9999
  8052d8:	20800015 	stw	r2,0(r4)
  8052dc:	a0001026 	beq	r20,zero,805320 <_dtoa_r+0x31c>
  8052e0:	00c02074 	movhi	r3,129
  8052e4:	18e6ec04 	addi	r3,r3,-25680
  8052e8:	d9802917 	ldw	r6,164(sp)
  8052ec:	303f7926 	beq	r6,zero,8050d4 <_dtoa_r+0xd0>
  8052f0:	188000c7 	ldb	r2,3(r3)
  8052f4:	190000c4 	addi	r4,r3,3
  8052f8:	1000101e 	bne	r2,zero,80533c <_dtoa_r+0x338>
  8052fc:	d8802917 	ldw	r2,164(sp)
  805300:	11000015 	stw	r4,0(r2)
  805304:	003f7306 	br	8050d4 <_dtoa_r+0xd0>
  805308:	00a00034 	movhi	r2,32768
  80530c:	10bfffc4 	addi	r2,r2,-1
  805310:	00c00044 	movi	r3,1
  805314:	88aa703a 	and	r21,r17,r2
  805318:	90c00015 	stw	r3,0(r18)
  80531c:	003f5806 	br	805080 <_dtoa_r+0x7c>
  805320:	00800434 	movhi	r2,16
  805324:	10bfffc4 	addi	r2,r2,-1
  805328:	a884703a 	and	r2,r21,r2
  80532c:	103fec1e 	bne	r2,zero,8052e0 <_dtoa_r+0x2dc>
  805330:	00c02074 	movhi	r3,129
  805334:	18e6e904 	addi	r3,r3,-25692
  805338:	003feb06 	br	8052e8 <_dtoa_r+0x2e4>
  80533c:	d8802917 	ldw	r2,164(sp)
  805340:	19000204 	addi	r4,r3,8
  805344:	11000015 	stw	r4,0(r2)
  805348:	003f6206 	br	8050d4 <_dtoa_r+0xd0>
  80534c:	ddc00117 	ldw	r23,4(sp)
  805350:	d8800217 	ldw	r2,8(sp)
  805354:	01000804 	movi	r4,32
  805358:	b8c10c84 	addi	r3,r23,1074
  80535c:	18a3883a 	add	r17,r3,r2
  805360:	2441b80e 	bge	r4,r17,805a44 <_dtoa_r+0xa40>
  805364:	00c01004 	movi	r3,64
  805368:	1c47c83a 	sub	r3,r3,r17
  80536c:	88bff804 	addi	r2,r17,-32
  805370:	a8c6983a 	sll	r3,r21,r3
  805374:	a084d83a 	srl	r2,r20,r2
  805378:	1888b03a 	or	r4,r3,r2
  80537c:	080143c0 	call	80143c <__floatunsidf>
  805380:	1011883a 	mov	r8,r2
  805384:	00bf8434 	movhi	r2,65040
  805388:	01000044 	movi	r4,1
  80538c:	10d3883a 	add	r9,r2,r3
  805390:	8dbef344 	addi	r22,r17,-1075
  805394:	d9000815 	stw	r4,32(sp)
  805398:	003f6f06 	br	805158 <_dtoa_r+0x154>
  80539c:	d8001715 	stw	zero,92(sp)
  8053a0:	04400044 	movi	r17,1
  8053a4:	00bfffc4 	movi	r2,-1
  8053a8:	00c00044 	movi	r3,1
  8053ac:	d8800e15 	stw	r2,56(sp)
  8053b0:	d8002615 	stw	zero,152(sp)
  8053b4:	d8800f15 	stw	r2,60(sp)
  8053b8:	d8c00b15 	stw	r3,44(sp)
  8053bc:	1021883a 	mov	r16,r2
  8053c0:	d8801617 	ldw	r2,88(sp)
  8053c4:	10001115 	stw	zero,68(r2)
  8053c8:	d8801617 	ldw	r2,88(sp)
  8053cc:	11401117 	ldw	r5,68(r2)
  8053d0:	1009883a 	mov	r4,r2
  8053d4:	0803c440 	call	803c44 <_Balloc>
  8053d8:	d8c01617 	ldw	r3,88(sp)
  8053dc:	d8800515 	stw	r2,20(sp)
  8053e0:	18801015 	stw	r2,64(r3)
  8053e4:	00800384 	movi	r2,14
  8053e8:	14006836 	bltu	r2,r16,80558c <_dtoa_r+0x588>
  8053ec:	8805003a 	cmpeq	r2,r17,zero
  8053f0:	1000661e 	bne	r2,zero,80558c <_dtoa_r+0x588>
  8053f4:	d9000d17 	ldw	r4,52(sp)
  8053f8:	0102300e 	bge	zero,r4,805cbc <_dtoa_r+0xcb8>
  8053fc:	208003cc 	andi	r2,r4,15
  805400:	100490fa 	slli	r2,r2,3
  805404:	2025d13a 	srai	r18,r4,4
  805408:	00c02074 	movhi	r3,129
  80540c:	18e6a004 	addi	r3,r3,-25984
  805410:	10c5883a 	add	r2,r2,r3
  805414:	90c0040c 	andi	r3,r18,16
  805418:	14000017 	ldw	r16,0(r2)
  80541c:	14400117 	ldw	r17,4(r2)
  805420:	18036a1e 	bne	r3,zero,8061cc <_dtoa_r+0x11c8>
  805424:	05800084 	movi	r22,2
  805428:	90001026 	beq	r18,zero,80546c <_dtoa_r+0x468>
  80542c:	04c02074 	movhi	r19,129
  805430:	9ce6d204 	addi	r19,r19,-25784
  805434:	9080004c 	andi	r2,r18,1
  805438:	1005003a 	cmpeq	r2,r2,zero
  80543c:	1000081e 	bne	r2,zero,805460 <_dtoa_r+0x45c>
  805440:	99800017 	ldw	r6,0(r19)
  805444:	99c00117 	ldw	r7,4(r19)
  805448:	880b883a 	mov	r5,r17
  80544c:	8009883a 	mov	r4,r16
  805450:	08067c80 	call	8067c8 <__muldf3>
  805454:	1021883a 	mov	r16,r2
  805458:	b5800044 	addi	r22,r22,1
  80545c:	1823883a 	mov	r17,r3
  805460:	9025d07a 	srai	r18,r18,1
  805464:	9cc00204 	addi	r19,r19,8
  805468:	903ff21e 	bne	r18,zero,805434 <_dtoa_r+0x430>
  80546c:	a80b883a 	mov	r5,r21
  805470:	a009883a 	mov	r4,r20
  805474:	880f883a 	mov	r7,r17
  805478:	800d883a 	mov	r6,r16
  80547c:	08010b40 	call	8010b4 <__divdf3>
  805480:	1029883a 	mov	r20,r2
  805484:	182b883a 	mov	r21,r3
  805488:	d8c00c17 	ldw	r3,48(sp)
  80548c:	1805003a 	cmpeq	r2,r3,zero
  805490:	1000081e 	bne	r2,zero,8054b4 <_dtoa_r+0x4b0>
  805494:	0005883a 	mov	r2,zero
  805498:	00cffc34 	movhi	r3,16368
  80549c:	180f883a 	mov	r7,r3
  8054a0:	a009883a 	mov	r4,r20
  8054a4:	a80b883a 	mov	r5,r21
  8054a8:	100d883a 	mov	r6,r2
  8054ac:	0806dac0 	call	806dac <__ltdf2>
  8054b0:	1003fe16 	blt	r2,zero,8064ac <_dtoa_r+0x14a8>
  8054b4:	b009883a 	mov	r4,r22
  8054b8:	080130c0 	call	80130c <__floatsidf>
  8054bc:	180b883a 	mov	r5,r3
  8054c0:	1009883a 	mov	r4,r2
  8054c4:	a00d883a 	mov	r6,r20
  8054c8:	a80f883a 	mov	r7,r21
  8054cc:	08067c80 	call	8067c8 <__muldf3>
  8054d0:	0011883a 	mov	r8,zero
  8054d4:	02500734 	movhi	r9,16412
  8054d8:	1009883a 	mov	r4,r2
  8054dc:	180b883a 	mov	r5,r3
  8054e0:	480f883a 	mov	r7,r9
  8054e4:	400d883a 	mov	r6,r8
  8054e8:	08010400 	call	801040 <__adddf3>
  8054ec:	d9000f17 	ldw	r4,60(sp)
  8054f0:	102d883a 	mov	r22,r2
  8054f4:	00bf3034 	movhi	r2,64704
  8054f8:	18b9883a 	add	fp,r3,r2
  8054fc:	e02f883a 	mov	r23,fp
  805500:	20028f1e 	bne	r4,zero,805f40 <_dtoa_r+0xf3c>
  805504:	0005883a 	mov	r2,zero
  805508:	00d00534 	movhi	r3,16404
  80550c:	a009883a 	mov	r4,r20
  805510:	a80b883a 	mov	r5,r21
  805514:	180f883a 	mov	r7,r3
  805518:	100d883a 	mov	r6,r2
  80551c:	0800fc00 	call	800fc0 <__subdf3>
  805520:	1009883a 	mov	r4,r2
  805524:	e00f883a 	mov	r7,fp
  805528:	180b883a 	mov	r5,r3
  80552c:	b00d883a 	mov	r6,r22
  805530:	1025883a 	mov	r18,r2
  805534:	1827883a 	mov	r19,r3
  805538:	0806c9c0 	call	806c9c <__gtdf2>
  80553c:	00834f16 	blt	zero,r2,80627c <_dtoa_r+0x1278>
  805540:	e0e0003c 	xorhi	r3,fp,32768
  805544:	9009883a 	mov	r4,r18
  805548:	980b883a 	mov	r5,r19
  80554c:	180f883a 	mov	r7,r3
  805550:	b00d883a 	mov	r6,r22
  805554:	0806dac0 	call	806dac <__ltdf2>
  805558:	1000080e 	bge	r2,zero,80557c <_dtoa_r+0x578>
  80555c:	0027883a 	mov	r19,zero
  805560:	0025883a 	mov	r18,zero
  805564:	d8802617 	ldw	r2,152(sp)
  805568:	df000517 	ldw	fp,20(sp)
  80556c:	d8000615 	stw	zero,24(sp)
  805570:	0084303a 	nor	r2,zero,r2
  805574:	d8800d15 	stw	r2,52(sp)
  805578:	00019b06 	br	805be8 <_dtoa_r+0xbe4>
  80557c:	d9801217 	ldw	r6,72(sp)
  805580:	d8801317 	ldw	r2,76(sp)
  805584:	3029883a 	mov	r20,r6
  805588:	102b883a 	mov	r21,r2
  80558c:	d8c00217 	ldw	r3,8(sp)
  805590:	18008516 	blt	r3,zero,8057a8 <_dtoa_r+0x7a4>
  805594:	d9000d17 	ldw	r4,52(sp)
  805598:	00800384 	movi	r2,14
  80559c:	11008216 	blt	r2,r4,8057a8 <_dtoa_r+0x7a4>
  8055a0:	200490fa 	slli	r2,r4,3
  8055a4:	d9802617 	ldw	r6,152(sp)
  8055a8:	00c02074 	movhi	r3,129
  8055ac:	18e6a004 	addi	r3,r3,-25984
  8055b0:	10c5883a 	add	r2,r2,r3
  8055b4:	14800017 	ldw	r18,0(r2)
  8055b8:	14c00117 	ldw	r19,4(r2)
  8055bc:	30031e16 	blt	r6,zero,806238 <_dtoa_r+0x1234>
  8055c0:	d9000517 	ldw	r4,20(sp)
  8055c4:	d8c00f17 	ldw	r3,60(sp)
  8055c8:	a823883a 	mov	r17,r21
  8055cc:	a021883a 	mov	r16,r20
  8055d0:	192b883a 	add	r21,r3,r4
  8055d4:	2039883a 	mov	fp,r4
  8055d8:	00000f06 	br	805618 <_dtoa_r+0x614>
  8055dc:	0005883a 	mov	r2,zero
  8055e0:	00d00934 	movhi	r3,16420
  8055e4:	5009883a 	mov	r4,r10
  8055e8:	580b883a 	mov	r5,r11
  8055ec:	180f883a 	mov	r7,r3
  8055f0:	100d883a 	mov	r6,r2
  8055f4:	08067c80 	call	8067c8 <__muldf3>
  8055f8:	180b883a 	mov	r5,r3
  8055fc:	000d883a 	mov	r6,zero
  805600:	000f883a 	mov	r7,zero
  805604:	1009883a 	mov	r4,r2
  805608:	1021883a 	mov	r16,r2
  80560c:	1823883a 	mov	r17,r3
  805610:	0806c140 	call	806c14 <__nedf2>
  805614:	10004526 	beq	r2,zero,80572c <_dtoa_r+0x728>
  805618:	900d883a 	mov	r6,r18
  80561c:	980f883a 	mov	r7,r19
  805620:	8009883a 	mov	r4,r16
  805624:	880b883a 	mov	r5,r17
  805628:	08010b40 	call	8010b4 <__divdf3>
  80562c:	180b883a 	mov	r5,r3
  805630:	1009883a 	mov	r4,r2
  805634:	0806ebc0 	call	806ebc <__fixdfsi>
  805638:	1009883a 	mov	r4,r2
  80563c:	1029883a 	mov	r20,r2
  805640:	080130c0 	call	80130c <__floatsidf>
  805644:	180f883a 	mov	r7,r3
  805648:	9009883a 	mov	r4,r18
  80564c:	980b883a 	mov	r5,r19
  805650:	100d883a 	mov	r6,r2
  805654:	08067c80 	call	8067c8 <__muldf3>
  805658:	180f883a 	mov	r7,r3
  80565c:	880b883a 	mov	r5,r17
  805660:	8009883a 	mov	r4,r16
  805664:	100d883a 	mov	r6,r2
  805668:	0800fc00 	call	800fc0 <__subdf3>
  80566c:	1015883a 	mov	r10,r2
  805670:	a0800c04 	addi	r2,r20,48
  805674:	e0800005 	stb	r2,0(fp)
  805678:	e7000044 	addi	fp,fp,1
  80567c:	1817883a 	mov	r11,r3
  805680:	e57fd61e 	bne	fp,r21,8055dc <_dtoa_r+0x5d8>
  805684:	500d883a 	mov	r6,r10
  805688:	180f883a 	mov	r7,r3
  80568c:	5009883a 	mov	r4,r10
  805690:	180b883a 	mov	r5,r3
  805694:	08010400 	call	801040 <__adddf3>
  805698:	100d883a 	mov	r6,r2
  80569c:	9009883a 	mov	r4,r18
  8056a0:	980b883a 	mov	r5,r19
  8056a4:	180f883a 	mov	r7,r3
  8056a8:	1021883a 	mov	r16,r2
  8056ac:	1823883a 	mov	r17,r3
  8056b0:	0806dac0 	call	806dac <__ltdf2>
  8056b4:	10000816 	blt	r2,zero,8056d8 <_dtoa_r+0x6d4>
  8056b8:	980b883a 	mov	r5,r19
  8056bc:	800d883a 	mov	r6,r16
  8056c0:	880f883a 	mov	r7,r17
  8056c4:	9009883a 	mov	r4,r18
  8056c8:	0806b8c0 	call	806b8c <__eqdf2>
  8056cc:	1000171e 	bne	r2,zero,80572c <_dtoa_r+0x728>
  8056d0:	a080004c 	andi	r2,r20,1
  8056d4:	10001526 	beq	r2,zero,80572c <_dtoa_r+0x728>
  8056d8:	d8800d17 	ldw	r2,52(sp)
  8056dc:	d8800415 	stw	r2,16(sp)
  8056e0:	e009883a 	mov	r4,fp
  8056e4:	213fffc4 	addi	r4,r4,-1
  8056e8:	20c00007 	ldb	r3,0(r4)
  8056ec:	00800e44 	movi	r2,57
  8056f0:	1880081e 	bne	r3,r2,805714 <_dtoa_r+0x710>
  8056f4:	d8800517 	ldw	r2,20(sp)
  8056f8:	113ffa1e 	bne	r2,r4,8056e4 <_dtoa_r+0x6e0>
  8056fc:	d8c00417 	ldw	r3,16(sp)
  805700:	d9800517 	ldw	r6,20(sp)
  805704:	00800c04 	movi	r2,48
  805708:	18c00044 	addi	r3,r3,1
  80570c:	d8c00415 	stw	r3,16(sp)
  805710:	30800005 	stb	r2,0(r6)
  805714:	20800003 	ldbu	r2,0(r4)
  805718:	d8c00417 	ldw	r3,16(sp)
  80571c:	27000044 	addi	fp,r4,1
  805720:	10800044 	addi	r2,r2,1
  805724:	d8c00d15 	stw	r3,52(sp)
  805728:	20800005 	stb	r2,0(r4)
  80572c:	d9001617 	ldw	r4,88(sp)
  805730:	d9400717 	ldw	r5,28(sp)
  805734:	08036c40 	call	8036c4 <_Bfree>
  805738:	e0000005 	stb	zero,0(fp)
  80573c:	d9800d17 	ldw	r6,52(sp)
  805740:	d8c02717 	ldw	r3,156(sp)
  805744:	d9002917 	ldw	r4,164(sp)
  805748:	30800044 	addi	r2,r6,1
  80574c:	18800015 	stw	r2,0(r3)
  805750:	20029c26 	beq	r4,zero,8061c4 <_dtoa_r+0x11c0>
  805754:	d8c00517 	ldw	r3,20(sp)
  805758:	27000015 	stw	fp,0(r4)
  80575c:	003e5d06 	br	8050d4 <_dtoa_r+0xd0>
  805760:	d9800d17 	ldw	r6,52(sp)
  805764:	00c02074 	movhi	r3,129
  805768:	18e6a004 	addi	r3,r3,-25984
  80576c:	d9001217 	ldw	r4,72(sp)
  805770:	300490fa 	slli	r2,r6,3
  805774:	d9401317 	ldw	r5,76(sp)
  805778:	10c5883a 	add	r2,r2,r3
  80577c:	12000017 	ldw	r8,0(r2)
  805780:	12400117 	ldw	r9,4(r2)
  805784:	400d883a 	mov	r6,r8
  805788:	480f883a 	mov	r7,r9
  80578c:	0806dac0 	call	806dac <__ltdf2>
  805790:	1000030e 	bge	r2,zero,8057a0 <_dtoa_r+0x79c>
  805794:	d8800d17 	ldw	r2,52(sp)
  805798:	10bfffc4 	addi	r2,r2,-1
  80579c:	d8800d15 	stw	r2,52(sp)
  8057a0:	d8000c15 	stw	zero,48(sp)
  8057a4:	003ea806 	br	805248 <_dtoa_r+0x244>
  8057a8:	d9000b17 	ldw	r4,44(sp)
  8057ac:	202cc03a 	cmpne	r22,r4,zero
  8057b0:	b000c71e 	bne	r22,zero,805ad0 <_dtoa_r+0xacc>
  8057b4:	dc001117 	ldw	r16,68(sp)
  8057b8:	dc801017 	ldw	r18,64(sp)
  8057bc:	0027883a 	mov	r19,zero
  8057c0:	04000b0e 	bge	zero,r16,8057f0 <_dtoa_r+0x7ec>
  8057c4:	d8c00a17 	ldw	r3,40(sp)
  8057c8:	00c0090e 	bge	zero,r3,8057f0 <_dtoa_r+0x7ec>
  8057cc:	8005883a 	mov	r2,r16
  8057d0:	1c011316 	blt	r3,r16,805c20 <_dtoa_r+0xc1c>
  8057d4:	d9000a17 	ldw	r4,40(sp)
  8057d8:	d9801117 	ldw	r6,68(sp)
  8057dc:	80a1c83a 	sub	r16,r16,r2
  8057e0:	2089c83a 	sub	r4,r4,r2
  8057e4:	308dc83a 	sub	r6,r6,r2
  8057e8:	d9000a15 	stw	r4,40(sp)
  8057ec:	d9801115 	stw	r6,68(sp)
  8057f0:	d8801017 	ldw	r2,64(sp)
  8057f4:	0080150e 	bge	zero,r2,80584c <_dtoa_r+0x848>
  8057f8:	d8c00b17 	ldw	r3,44(sp)
  8057fc:	1805003a 	cmpeq	r2,r3,zero
  805800:	1001c91e 	bne	r2,zero,805f28 <_dtoa_r+0xf24>
  805804:	04800e0e 	bge	zero,r18,805840 <_dtoa_r+0x83c>
  805808:	d9001617 	ldw	r4,88(sp)
  80580c:	980b883a 	mov	r5,r19
  805810:	900d883a 	mov	r6,r18
  805814:	08044780 	call	804478 <__pow5mult>
  805818:	d9001617 	ldw	r4,88(sp)
  80581c:	d9800717 	ldw	r6,28(sp)
  805820:	100b883a 	mov	r5,r2
  805824:	1027883a 	mov	r19,r2
  805828:	08041540 	call	804154 <__multiply>
  80582c:	d9001617 	ldw	r4,88(sp)
  805830:	d9400717 	ldw	r5,28(sp)
  805834:	1023883a 	mov	r17,r2
  805838:	08036c40 	call	8036c4 <_Bfree>
  80583c:	dc400715 	stw	r17,28(sp)
  805840:	d9001017 	ldw	r4,64(sp)
  805844:	248dc83a 	sub	r6,r4,r18
  805848:	30010e1e 	bne	r6,zero,805c84 <_dtoa_r+0xc80>
  80584c:	d9001617 	ldw	r4,88(sp)
  805850:	04400044 	movi	r17,1
  805854:	880b883a 	mov	r5,r17
  805858:	080433c0 	call	80433c <__i2b>
  80585c:	d9800917 	ldw	r6,36(sp)
  805860:	1025883a 	mov	r18,r2
  805864:	0180040e 	bge	zero,r6,805878 <_dtoa_r+0x874>
  805868:	d9001617 	ldw	r4,88(sp)
  80586c:	100b883a 	mov	r5,r2
  805870:	08044780 	call	804478 <__pow5mult>
  805874:	1025883a 	mov	r18,r2
  805878:	d8801717 	ldw	r2,92(sp)
  80587c:	8880f30e 	bge	r17,r2,805c4c <_dtoa_r+0xc48>
  805880:	0023883a 	mov	r17,zero
  805884:	d9800917 	ldw	r6,36(sp)
  805888:	30019e1e 	bne	r6,zero,805f04 <_dtoa_r+0xf00>
  80588c:	00c00044 	movi	r3,1
  805890:	d9000a17 	ldw	r4,40(sp)
  805894:	20c5883a 	add	r2,r4,r3
  805898:	10c007cc 	andi	r3,r2,31
  80589c:	1800841e 	bne	r3,zero,805ab0 <_dtoa_r+0xaac>
  8058a0:	00800704 	movi	r2,28
  8058a4:	d9000a17 	ldw	r4,40(sp)
  8058a8:	d9801117 	ldw	r6,68(sp)
  8058ac:	80a1883a 	add	r16,r16,r2
  8058b0:	2089883a 	add	r4,r4,r2
  8058b4:	308d883a 	add	r6,r6,r2
  8058b8:	d9000a15 	stw	r4,40(sp)
  8058bc:	d9801115 	stw	r6,68(sp)
  8058c0:	d8801117 	ldw	r2,68(sp)
  8058c4:	0080050e 	bge	zero,r2,8058dc <_dtoa_r+0x8d8>
  8058c8:	d9400717 	ldw	r5,28(sp)
  8058cc:	d9001617 	ldw	r4,88(sp)
  8058d0:	100d883a 	mov	r6,r2
  8058d4:	08040080 	call	804008 <__lshift>
  8058d8:	d8800715 	stw	r2,28(sp)
  8058dc:	d8c00a17 	ldw	r3,40(sp)
  8058e0:	00c0050e 	bge	zero,r3,8058f8 <_dtoa_r+0x8f4>
  8058e4:	d9001617 	ldw	r4,88(sp)
  8058e8:	900b883a 	mov	r5,r18
  8058ec:	180d883a 	mov	r6,r3
  8058f0:	08040080 	call	804008 <__lshift>
  8058f4:	1025883a 	mov	r18,r2
  8058f8:	d9000c17 	ldw	r4,48(sp)
  8058fc:	2005003a 	cmpeq	r2,r4,zero
  805900:	10016f26 	beq	r2,zero,805ec0 <_dtoa_r+0xebc>
  805904:	d9000f17 	ldw	r4,60(sp)
  805908:	0102170e 	bge	zero,r4,806168 <_dtoa_r+0x1164>
  80590c:	d9800b17 	ldw	r6,44(sp)
  805910:	3005003a 	cmpeq	r2,r6,zero
  805914:	1000881e 	bne	r2,zero,805b38 <_dtoa_r+0xb34>
  805918:	0400050e 	bge	zero,r16,805930 <_dtoa_r+0x92c>
  80591c:	d9001617 	ldw	r4,88(sp)
  805920:	980b883a 	mov	r5,r19
  805924:	800d883a 	mov	r6,r16
  805928:	08040080 	call	804008 <__lshift>
  80592c:	1027883a 	mov	r19,r2
  805930:	8804c03a 	cmpne	r2,r17,zero
  805934:	1002541e 	bne	r2,zero,806288 <_dtoa_r+0x1284>
  805938:	980b883a 	mov	r5,r19
  80593c:	dd800517 	ldw	r22,20(sp)
  805940:	dcc00615 	stw	r19,24(sp)
  805944:	a700004c 	andi	fp,r20,1
  805948:	2827883a 	mov	r19,r5
  80594c:	d9000717 	ldw	r4,28(sp)
  805950:	900b883a 	mov	r5,r18
  805954:	0804dec0 	call	804dec <quorem>
  805958:	d9000717 	ldw	r4,28(sp)
  80595c:	d9400617 	ldw	r5,24(sp)
  805960:	1023883a 	mov	r17,r2
  805964:	8dc00c04 	addi	r23,r17,48
  805968:	08038200 	call	803820 <__mcmp>
  80596c:	d9001617 	ldw	r4,88(sp)
  805970:	900b883a 	mov	r5,r18
  805974:	980d883a 	mov	r6,r19
  805978:	1029883a 	mov	r20,r2
  80597c:	0803e7c0 	call	803e7c <__mdiff>
  805980:	102b883a 	mov	r21,r2
  805984:	10800317 	ldw	r2,12(r2)
  805988:	1001281e 	bne	r2,zero,805e2c <_dtoa_r+0xe28>
  80598c:	d9000717 	ldw	r4,28(sp)
  805990:	a80b883a 	mov	r5,r21
  805994:	08038200 	call	803820 <__mcmp>
  805998:	d9001617 	ldw	r4,88(sp)
  80599c:	1021883a 	mov	r16,r2
  8059a0:	a80b883a 	mov	r5,r21
  8059a4:	08036c40 	call	8036c4 <_Bfree>
  8059a8:	8000041e 	bne	r16,zero,8059bc <_dtoa_r+0x9b8>
  8059ac:	d8801717 	ldw	r2,92(sp)
  8059b0:	1000021e 	bne	r2,zero,8059bc <_dtoa_r+0x9b8>
  8059b4:	e004c03a 	cmpne	r2,fp,zero
  8059b8:	10011726 	beq	r2,zero,805e18 <_dtoa_r+0xe14>
  8059bc:	a0010616 	blt	r20,zero,805dd8 <_dtoa_r+0xdd4>
  8059c0:	a000041e 	bne	r20,zero,8059d4 <_dtoa_r+0x9d0>
  8059c4:	d8c01717 	ldw	r3,92(sp)
  8059c8:	1800021e 	bne	r3,zero,8059d4 <_dtoa_r+0x9d0>
  8059cc:	e004c03a 	cmpne	r2,fp,zero
  8059d0:	10010126 	beq	r2,zero,805dd8 <_dtoa_r+0xdd4>
  8059d4:	04023d16 	blt	zero,r16,8062cc <_dtoa_r+0x12c8>
  8059d8:	b5c00005 	stb	r23,0(r22)
  8059dc:	d9800517 	ldw	r6,20(sp)
  8059e0:	d9000f17 	ldw	r4,60(sp)
  8059e4:	b5800044 	addi	r22,r22,1
  8059e8:	3105883a 	add	r2,r6,r4
  8059ec:	b0806526 	beq	r22,r2,805b84 <_dtoa_r+0xb80>
  8059f0:	d9400717 	ldw	r5,28(sp)
  8059f4:	d9001617 	ldw	r4,88(sp)
  8059f8:	01800284 	movi	r6,10
  8059fc:	000f883a 	mov	r7,zero
  805a00:	08043780 	call	804378 <__multadd>
  805a04:	d8800715 	stw	r2,28(sp)
  805a08:	d8800617 	ldw	r2,24(sp)
  805a0c:	14c10c26 	beq	r2,r19,805e40 <_dtoa_r+0xe3c>
  805a10:	d9400617 	ldw	r5,24(sp)
  805a14:	d9001617 	ldw	r4,88(sp)
  805a18:	01800284 	movi	r6,10
  805a1c:	000f883a 	mov	r7,zero
  805a20:	08043780 	call	804378 <__multadd>
  805a24:	d9001617 	ldw	r4,88(sp)
  805a28:	980b883a 	mov	r5,r19
  805a2c:	01800284 	movi	r6,10
  805a30:	000f883a 	mov	r7,zero
  805a34:	d8800615 	stw	r2,24(sp)
  805a38:	08043780 	call	804378 <__multadd>
  805a3c:	1027883a 	mov	r19,r2
  805a40:	003fc206 	br	80594c <_dtoa_r+0x948>
  805a44:	2445c83a 	sub	r2,r4,r17
  805a48:	a088983a 	sll	r4,r20,r2
  805a4c:	003e4b06 	br	80537c <_dtoa_r+0x378>
  805a50:	01bfffc4 	movi	r6,-1
  805a54:	00800044 	movi	r2,1
  805a58:	d9800e15 	stw	r6,56(sp)
  805a5c:	d9800f15 	stw	r6,60(sp)
  805a60:	d8800b15 	stw	r2,44(sp)
  805a64:	d8c01617 	ldw	r3,88(sp)
  805a68:	008005c4 	movi	r2,23
  805a6c:	18001115 	stw	zero,68(r3)
  805a70:	1580082e 	bgeu	r2,r22,805a94 <_dtoa_r+0xa90>
  805a74:	00c00104 	movi	r3,4
  805a78:	0009883a 	mov	r4,zero
  805a7c:	18c7883a 	add	r3,r3,r3
  805a80:	18800504 	addi	r2,r3,20
  805a84:	21000044 	addi	r4,r4,1
  805a88:	b0bffc2e 	bgeu	r22,r2,805a7c <_dtoa_r+0xa78>
  805a8c:	d9801617 	ldw	r6,88(sp)
  805a90:	31001115 	stw	r4,68(r6)
  805a94:	dc000f17 	ldw	r16,60(sp)
  805a98:	003e4b06 	br	8053c8 <_dtoa_r+0x3c4>
  805a9c:	d9801717 	ldw	r6,92(sp)
  805aa0:	0023883a 	mov	r17,zero
  805aa4:	31bfff04 	addi	r6,r6,-4
  805aa8:	d9801715 	stw	r6,92(sp)
  805aac:	003df806 	br	805290 <_dtoa_r+0x28c>
  805ab0:	00800804 	movi	r2,32
  805ab4:	10c9c83a 	sub	r4,r2,r3
  805ab8:	00c00104 	movi	r3,4
  805abc:	19005a16 	blt	r3,r4,805c28 <_dtoa_r+0xc24>
  805ac0:	008000c4 	movi	r2,3
  805ac4:	113f7e16 	blt	r2,r4,8058c0 <_dtoa_r+0x8bc>
  805ac8:	20800704 	addi	r2,r4,28
  805acc:	003f7506 	br	8058a4 <_dtoa_r+0x8a0>
  805ad0:	d9801717 	ldw	r6,92(sp)
  805ad4:	00800044 	movi	r2,1
  805ad8:	1180a10e 	bge	r2,r6,805d60 <_dtoa_r+0xd5c>
  805adc:	d9800f17 	ldw	r6,60(sp)
  805ae0:	d8c01017 	ldw	r3,64(sp)
  805ae4:	30bfffc4 	addi	r2,r6,-1
  805ae8:	1881c616 	blt	r3,r2,806204 <_dtoa_r+0x1200>
  805aec:	18a5c83a 	sub	r18,r3,r2
  805af0:	d8800f17 	ldw	r2,60(sp)
  805af4:	10026216 	blt	r2,zero,806480 <_dtoa_r+0x147c>
  805af8:	dc001117 	ldw	r16,68(sp)
  805afc:	1007883a 	mov	r3,r2
  805b00:	d9800a17 	ldw	r6,40(sp)
  805b04:	d8801117 	ldw	r2,68(sp)
  805b08:	d9001617 	ldw	r4,88(sp)
  805b0c:	30cd883a 	add	r6,r6,r3
  805b10:	10c5883a 	add	r2,r2,r3
  805b14:	01400044 	movi	r5,1
  805b18:	d9800a15 	stw	r6,40(sp)
  805b1c:	d8801115 	stw	r2,68(sp)
  805b20:	080433c0 	call	80433c <__i2b>
  805b24:	1027883a 	mov	r19,r2
  805b28:	003f2506 	br	8057c0 <_dtoa_r+0x7bc>
  805b2c:	00c02074 	movhi	r3,129
  805b30:	18e6ed04 	addi	r3,r3,-25676
  805b34:	003d6706 	br	8050d4 <_dtoa_r+0xd0>
  805b38:	dd800517 	ldw	r22,20(sp)
  805b3c:	04000044 	movi	r16,1
  805b40:	00000706 	br	805b60 <_dtoa_r+0xb5c>
  805b44:	d9400717 	ldw	r5,28(sp)
  805b48:	d9001617 	ldw	r4,88(sp)
  805b4c:	01800284 	movi	r6,10
  805b50:	000f883a 	mov	r7,zero
  805b54:	08043780 	call	804378 <__multadd>
  805b58:	d8800715 	stw	r2,28(sp)
  805b5c:	84000044 	addi	r16,r16,1
  805b60:	d9000717 	ldw	r4,28(sp)
  805b64:	900b883a 	mov	r5,r18
  805b68:	0804dec0 	call	804dec <quorem>
  805b6c:	15c00c04 	addi	r23,r2,48
  805b70:	b5c00005 	stb	r23,0(r22)
  805b74:	d8c00f17 	ldw	r3,60(sp)
  805b78:	b5800044 	addi	r22,r22,1
  805b7c:	80fff116 	blt	r16,r3,805b44 <_dtoa_r+0xb40>
  805b80:	d8000615 	stw	zero,24(sp)
  805b84:	d9400717 	ldw	r5,28(sp)
  805b88:	d9001617 	ldw	r4,88(sp)
  805b8c:	01800044 	movi	r6,1
  805b90:	08040080 	call	804008 <__lshift>
  805b94:	1009883a 	mov	r4,r2
  805b98:	900b883a 	mov	r5,r18
  805b9c:	d8800715 	stw	r2,28(sp)
  805ba0:	08038200 	call	803820 <__mcmp>
  805ba4:	00803c0e 	bge	zero,r2,805c98 <_dtoa_r+0xc94>
  805ba8:	b009883a 	mov	r4,r22
  805bac:	213fffc4 	addi	r4,r4,-1
  805bb0:	21400003 	ldbu	r5,0(r4)
  805bb4:	00800e44 	movi	r2,57
  805bb8:	28c03fcc 	andi	r3,r5,255
  805bbc:	18c0201c 	xori	r3,r3,128
  805bc0:	18ffe004 	addi	r3,r3,-128
  805bc4:	1881981e 	bne	r3,r2,806228 <_dtoa_r+0x1224>
  805bc8:	d9800517 	ldw	r6,20(sp)
  805bcc:	21bff71e 	bne	r4,r6,805bac <_dtoa_r+0xba8>
  805bd0:	d8800d17 	ldw	r2,52(sp)
  805bd4:	37000044 	addi	fp,r6,1
  805bd8:	10800044 	addi	r2,r2,1
  805bdc:	d8800d15 	stw	r2,52(sp)
  805be0:	00800c44 	movi	r2,49
  805be4:	30800005 	stb	r2,0(r6)
  805be8:	d9001617 	ldw	r4,88(sp)
  805bec:	900b883a 	mov	r5,r18
  805bf0:	08036c40 	call	8036c4 <_Bfree>
  805bf4:	983ecd26 	beq	r19,zero,80572c <_dtoa_r+0x728>
  805bf8:	d8c00617 	ldw	r3,24(sp)
  805bfc:	18000426 	beq	r3,zero,805c10 <_dtoa_r+0xc0c>
  805c00:	1cc00326 	beq	r3,r19,805c10 <_dtoa_r+0xc0c>
  805c04:	d9001617 	ldw	r4,88(sp)
  805c08:	180b883a 	mov	r5,r3
  805c0c:	08036c40 	call	8036c4 <_Bfree>
  805c10:	d9001617 	ldw	r4,88(sp)
  805c14:	980b883a 	mov	r5,r19
  805c18:	08036c40 	call	8036c4 <_Bfree>
  805c1c:	003ec306 	br	80572c <_dtoa_r+0x728>
  805c20:	1805883a 	mov	r2,r3
  805c24:	003eeb06 	br	8057d4 <_dtoa_r+0x7d0>
  805c28:	d9800a17 	ldw	r6,40(sp)
  805c2c:	d8c01117 	ldw	r3,68(sp)
  805c30:	20bfff04 	addi	r2,r4,-4
  805c34:	308d883a 	add	r6,r6,r2
  805c38:	1887883a 	add	r3,r3,r2
  805c3c:	80a1883a 	add	r16,r16,r2
  805c40:	d9800a15 	stw	r6,40(sp)
  805c44:	d8c01115 	stw	r3,68(sp)
  805c48:	003f1d06 	br	8058c0 <_dtoa_r+0x8bc>
  805c4c:	a03f0c1e 	bne	r20,zero,805880 <_dtoa_r+0x87c>
  805c50:	00800434 	movhi	r2,16
  805c54:	10bfffc4 	addi	r2,r2,-1
  805c58:	a884703a 	and	r2,r21,r2
  805c5c:	103f081e 	bne	r2,zero,805880 <_dtoa_r+0x87c>
  805c60:	a89ffc2c 	andhi	r2,r21,32752
  805c64:	103f0626 	beq	r2,zero,805880 <_dtoa_r+0x87c>
  805c68:	d8c01117 	ldw	r3,68(sp)
  805c6c:	d9000a17 	ldw	r4,40(sp)
  805c70:	18c00044 	addi	r3,r3,1
  805c74:	21000044 	addi	r4,r4,1
  805c78:	d8c01115 	stw	r3,68(sp)
  805c7c:	d9000a15 	stw	r4,40(sp)
  805c80:	003f0006 	br	805884 <_dtoa_r+0x880>
  805c84:	d9400717 	ldw	r5,28(sp)
  805c88:	d9001617 	ldw	r4,88(sp)
  805c8c:	08044780 	call	804478 <__pow5mult>
  805c90:	d8800715 	stw	r2,28(sp)
  805c94:	003eed06 	br	80584c <_dtoa_r+0x848>
  805c98:	1000021e 	bne	r2,zero,805ca4 <_dtoa_r+0xca0>
  805c9c:	b880004c 	andi	r2,r23,1
  805ca0:	103fc11e 	bne	r2,zero,805ba8 <_dtoa_r+0xba4>
  805ca4:	b5bfffc4 	addi	r22,r22,-1
  805ca8:	b0c00007 	ldb	r3,0(r22)
  805cac:	00800c04 	movi	r2,48
  805cb0:	18bffc26 	beq	r3,r2,805ca4 <_dtoa_r+0xca0>
  805cb4:	b7000044 	addi	fp,r22,1
  805cb8:	003fcb06 	br	805be8 <_dtoa_r+0xbe4>
  805cbc:	d9800d17 	ldw	r6,52(sp)
  805cc0:	018fc83a 	sub	r7,zero,r6
  805cc4:	3801f726 	beq	r7,zero,8064a4 <_dtoa_r+0x14a0>
  805cc8:	398003cc 	andi	r6,r7,15
  805ccc:	300c90fa 	slli	r6,r6,3
  805cd0:	01402074 	movhi	r5,129
  805cd4:	2966a004 	addi	r5,r5,-25984
  805cd8:	d9001217 	ldw	r4,72(sp)
  805cdc:	314d883a 	add	r6,r6,r5
  805ce0:	30c00117 	ldw	r3,4(r6)
  805ce4:	30800017 	ldw	r2,0(r6)
  805ce8:	d9401317 	ldw	r5,76(sp)
  805cec:	3821d13a 	srai	r16,r7,4
  805cf0:	100d883a 	mov	r6,r2
  805cf4:	180f883a 	mov	r7,r3
  805cf8:	08067c80 	call	8067c8 <__muldf3>
  805cfc:	1011883a 	mov	r8,r2
  805d00:	1813883a 	mov	r9,r3
  805d04:	1029883a 	mov	r20,r2
  805d08:	182b883a 	mov	r21,r3
  805d0c:	8001e526 	beq	r16,zero,8064a4 <_dtoa_r+0x14a0>
  805d10:	05800084 	movi	r22,2
  805d14:	04402074 	movhi	r17,129
  805d18:	8c66d204 	addi	r17,r17,-25784
  805d1c:	8080004c 	andi	r2,r16,1
  805d20:	1005003a 	cmpeq	r2,r2,zero
  805d24:	1000081e 	bne	r2,zero,805d48 <_dtoa_r+0xd44>
  805d28:	89800017 	ldw	r6,0(r17)
  805d2c:	89c00117 	ldw	r7,4(r17)
  805d30:	480b883a 	mov	r5,r9
  805d34:	4009883a 	mov	r4,r8
  805d38:	08067c80 	call	8067c8 <__muldf3>
  805d3c:	1011883a 	mov	r8,r2
  805d40:	b5800044 	addi	r22,r22,1
  805d44:	1813883a 	mov	r9,r3
  805d48:	8021d07a 	srai	r16,r16,1
  805d4c:	8c400204 	addi	r17,r17,8
  805d50:	803ff21e 	bne	r16,zero,805d1c <_dtoa_r+0xd18>
  805d54:	4029883a 	mov	r20,r8
  805d58:	482b883a 	mov	r21,r9
  805d5c:	003dca06 	br	805488 <_dtoa_r+0x484>
  805d60:	d9000817 	ldw	r4,32(sp)
  805d64:	2005003a 	cmpeq	r2,r4,zero
  805d68:	1001f61e 	bne	r2,zero,806544 <_dtoa_r+0x1540>
  805d6c:	dc001117 	ldw	r16,68(sp)
  805d70:	dc801017 	ldw	r18,64(sp)
  805d74:	18c10cc4 	addi	r3,r3,1075
  805d78:	003f6106 	br	805b00 <_dtoa_r+0xafc>
  805d7c:	d8000b15 	stw	zero,44(sp)
  805d80:	d9802617 	ldw	r6,152(sp)
  805d84:	d8c00d17 	ldw	r3,52(sp)
  805d88:	30800044 	addi	r2,r6,1
  805d8c:	18ad883a 	add	r22,r3,r2
  805d90:	b13fffc4 	addi	r4,r22,-1
  805d94:	d9000e15 	stw	r4,56(sp)
  805d98:	0581f60e 	bge	zero,r22,806574 <_dtoa_r+0x1570>
  805d9c:	dd800f15 	stw	r22,60(sp)
  805da0:	003f3006 	br	805a64 <_dtoa_r+0xa60>
  805da4:	d8000b15 	stw	zero,44(sp)
  805da8:	d9002617 	ldw	r4,152(sp)
  805dac:	0101eb0e 	bge	zero,r4,80655c <_dtoa_r+0x1558>
  805db0:	202d883a 	mov	r22,r4
  805db4:	d9000e15 	stw	r4,56(sp)
  805db8:	d9000f15 	stw	r4,60(sp)
  805dbc:	003f2906 	br	805a64 <_dtoa_r+0xa60>
  805dc0:	01800044 	movi	r6,1
  805dc4:	d9800b15 	stw	r6,44(sp)
  805dc8:	003ff706 	br	805da8 <_dtoa_r+0xda4>
  805dcc:	01000044 	movi	r4,1
  805dd0:	d9000b15 	stw	r4,44(sp)
  805dd4:	003fea06 	br	805d80 <_dtoa_r+0xd7c>
  805dd8:	04000c0e 	bge	zero,r16,805e0c <_dtoa_r+0xe08>
  805ddc:	d9400717 	ldw	r5,28(sp)
  805de0:	d9001617 	ldw	r4,88(sp)
  805de4:	01800044 	movi	r6,1
  805de8:	08040080 	call	804008 <__lshift>
  805dec:	1009883a 	mov	r4,r2
  805df0:	900b883a 	mov	r5,r18
  805df4:	d8800715 	stw	r2,28(sp)
  805df8:	08038200 	call	803820 <__mcmp>
  805dfc:	0081e00e 	bge	zero,r2,806580 <_dtoa_r+0x157c>
  805e00:	bdc00044 	addi	r23,r23,1
  805e04:	00800e84 	movi	r2,58
  805e08:	b881a226 	beq	r23,r2,806494 <_dtoa_r+0x1490>
  805e0c:	b7000044 	addi	fp,r22,1
  805e10:	b5c00005 	stb	r23,0(r22)
  805e14:	003f7406 	br	805be8 <_dtoa_r+0xbe4>
  805e18:	00800e44 	movi	r2,57
  805e1c:	b8819d26 	beq	r23,r2,806494 <_dtoa_r+0x1490>
  805e20:	053ffa0e 	bge	zero,r20,805e0c <_dtoa_r+0xe08>
  805e24:	8dc00c44 	addi	r23,r17,49
  805e28:	003ff806 	br	805e0c <_dtoa_r+0xe08>
  805e2c:	d9001617 	ldw	r4,88(sp)
  805e30:	a80b883a 	mov	r5,r21
  805e34:	04000044 	movi	r16,1
  805e38:	08036c40 	call	8036c4 <_Bfree>
  805e3c:	003edf06 	br	8059bc <_dtoa_r+0x9b8>
  805e40:	d9001617 	ldw	r4,88(sp)
  805e44:	980b883a 	mov	r5,r19
  805e48:	01800284 	movi	r6,10
  805e4c:	000f883a 	mov	r7,zero
  805e50:	08043780 	call	804378 <__multadd>
  805e54:	1027883a 	mov	r19,r2
  805e58:	d8800615 	stw	r2,24(sp)
  805e5c:	003ebb06 	br	80594c <_dtoa_r+0x948>
  805e60:	d9801117 	ldw	r6,68(sp)
  805e64:	d8800d17 	ldw	r2,52(sp)
  805e68:	d8000915 	stw	zero,36(sp)
  805e6c:	308dc83a 	sub	r6,r6,r2
  805e70:	0087c83a 	sub	r3,zero,r2
  805e74:	d9801115 	stw	r6,68(sp)
  805e78:	d8c01015 	stw	r3,64(sp)
  805e7c:	003cfe06 	br	805278 <_dtoa_r+0x274>
  805e80:	018dc83a 	sub	r6,zero,r6
  805e84:	d9801115 	stw	r6,68(sp)
  805e88:	d8000a15 	stw	zero,40(sp)
  805e8c:	003cf306 	br	80525c <_dtoa_r+0x258>
  805e90:	d9000d17 	ldw	r4,52(sp)
  805e94:	080130c0 	call	80130c <__floatsidf>
  805e98:	880b883a 	mov	r5,r17
  805e9c:	8009883a 	mov	r4,r16
  805ea0:	180f883a 	mov	r7,r3
  805ea4:	100d883a 	mov	r6,r2
  805ea8:	0806c140 	call	806c14 <__nedf2>
  805eac:	103ce126 	beq	r2,zero,805234 <_dtoa_r+0x230>
  805eb0:	d9800d17 	ldw	r6,52(sp)
  805eb4:	31bfffc4 	addi	r6,r6,-1
  805eb8:	d9800d15 	stw	r6,52(sp)
  805ebc:	003cdd06 	br	805234 <_dtoa_r+0x230>
  805ec0:	d9000717 	ldw	r4,28(sp)
  805ec4:	900b883a 	mov	r5,r18
  805ec8:	08038200 	call	803820 <__mcmp>
  805ecc:	103e8d0e 	bge	r2,zero,805904 <_dtoa_r+0x900>
  805ed0:	d9400717 	ldw	r5,28(sp)
  805ed4:	d9001617 	ldw	r4,88(sp)
  805ed8:	01800284 	movi	r6,10
  805edc:	000f883a 	mov	r7,zero
  805ee0:	08043780 	call	804378 <__multadd>
  805ee4:	d9800d17 	ldw	r6,52(sp)
  805ee8:	d8800715 	stw	r2,28(sp)
  805eec:	31bfffc4 	addi	r6,r6,-1
  805ef0:	d9800d15 	stw	r6,52(sp)
  805ef4:	b001a71e 	bne	r22,zero,806594 <_dtoa_r+0x1590>
  805ef8:	d8800e17 	ldw	r2,56(sp)
  805efc:	d8800f15 	stw	r2,60(sp)
  805f00:	003e8006 	br	805904 <_dtoa_r+0x900>
  805f04:	90800417 	ldw	r2,16(r18)
  805f08:	1085883a 	add	r2,r2,r2
  805f0c:	1085883a 	add	r2,r2,r2
  805f10:	1485883a 	add	r2,r2,r18
  805f14:	11000417 	ldw	r4,16(r2)
  805f18:	08036ec0 	call	8036ec <__hi0bits>
  805f1c:	00c00804 	movi	r3,32
  805f20:	1887c83a 	sub	r3,r3,r2
  805f24:	003e5a06 	br	805890 <_dtoa_r+0x88c>
  805f28:	d9400717 	ldw	r5,28(sp)
  805f2c:	d9801017 	ldw	r6,64(sp)
  805f30:	d9001617 	ldw	r4,88(sp)
  805f34:	08044780 	call	804478 <__pow5mult>
  805f38:	d8800715 	stw	r2,28(sp)
  805f3c:	003e4306 	br	80584c <_dtoa_r+0x848>
  805f40:	d9800f17 	ldw	r6,60(sp)
  805f44:	d8800d17 	ldw	r2,52(sp)
  805f48:	d9800315 	stw	r6,12(sp)
  805f4c:	d8800415 	stw	r2,16(sp)
  805f50:	d8c00b17 	ldw	r3,44(sp)
  805f54:	1805003a 	cmpeq	r2,r3,zero
  805f58:	1000e21e 	bne	r2,zero,8062e4 <_dtoa_r+0x12e0>
  805f5c:	d9000317 	ldw	r4,12(sp)
  805f60:	0005883a 	mov	r2,zero
  805f64:	00cff834 	movhi	r3,16352
  805f68:	200c90fa 	slli	r6,r4,3
  805f6c:	01002074 	movhi	r4,129
  805f70:	2126a004 	addi	r4,r4,-25984
  805f74:	180b883a 	mov	r5,r3
  805f78:	310d883a 	add	r6,r6,r4
  805f7c:	327fff17 	ldw	r9,-4(r6)
  805f80:	323ffe17 	ldw	r8,-8(r6)
  805f84:	1009883a 	mov	r4,r2
  805f88:	480f883a 	mov	r7,r9
  805f8c:	400d883a 	mov	r6,r8
  805f90:	08010b40 	call	8010b4 <__divdf3>
  805f94:	180b883a 	mov	r5,r3
  805f98:	b00d883a 	mov	r6,r22
  805f9c:	b80f883a 	mov	r7,r23
  805fa0:	1009883a 	mov	r4,r2
  805fa4:	0800fc00 	call	800fc0 <__subdf3>
  805fa8:	a80b883a 	mov	r5,r21
  805fac:	a009883a 	mov	r4,r20
  805fb0:	d8c01915 	stw	r3,100(sp)
  805fb4:	d8801815 	stw	r2,96(sp)
  805fb8:	0806ebc0 	call	806ebc <__fixdfsi>
  805fbc:	1009883a 	mov	r4,r2
  805fc0:	1027883a 	mov	r19,r2
  805fc4:	080130c0 	call	80130c <__floatsidf>
  805fc8:	a80b883a 	mov	r5,r21
  805fcc:	a009883a 	mov	r4,r20
  805fd0:	180f883a 	mov	r7,r3
  805fd4:	100d883a 	mov	r6,r2
  805fd8:	0800fc00 	call	800fc0 <__subdf3>
  805fdc:	d9801817 	ldw	r6,96(sp)
  805fe0:	1823883a 	mov	r17,r3
  805fe4:	d8801415 	stw	r2,80(sp)
  805fe8:	302d883a 	mov	r22,r6
  805fec:	d9800517 	ldw	r6,20(sp)
  805ff0:	9cc00c04 	addi	r19,r19,48
  805ff4:	dc401515 	stw	r17,84(sp)
  805ff8:	d8c01917 	ldw	r3,100(sp)
  805ffc:	34c00005 	stb	r19,0(r6)
  806000:	d8800517 	ldw	r2,20(sp)
  806004:	d9401917 	ldw	r5,100(sp)
  806008:	d9801417 	ldw	r6,80(sp)
  80600c:	b009883a 	mov	r4,r22
  806010:	880f883a 	mov	r7,r17
  806014:	182f883a 	mov	r23,r3
  806018:	17000044 	addi	fp,r2,1
  80601c:	0806c9c0 	call	806c9c <__gtdf2>
